 Shell

 Timestamp is 5a2f2e9b (Tue Dec 12 08:19:23 2017)

 Preferred load address is 00010000

 Start         Length     Name                   Class
 0001:00000000 000001d9H .text                   CODE
 0001:000001d9 0004d71fH .text$mn                CODE
 0002:00000000 00017760H .rdata                  DATA
 0002:00017760 0000008cH .rdata$debug            DATA
 0003:00000000 0005f38cH .data                   DATA
 0003:0005f3a0 00002a94H .bss                    DATA
 0004:00000000 0000004dH .edata                  DATA

  Address         Publics by Value              Rva+Base       Lib:Object

 0000:00000000       ___guard_fids_table        00000000     <absolute>
 0000:00000000       ___guard_flags             00000000     <absolute>
 0000:00000000       ___guard_fids_count        00000000     <absolute>
 0001:00000000       _InternalMemCopyMem        00011000     BaseMemoryLibOptDxe:CopyMem.obj
 0001:00000070       _InternalMemScanMem16      00011070     BaseMemoryLibOptDxe:ScanMem16.obj
 0001:00000090       _InternalMemSetMem16       00011090     BaseMemoryLibOptDxe:SetMem16.obj
 0001:000000b0       _InternalMemZeroMem        000110b0     BaseMemoryLibOptDxe:ZeroMem.obj
 0001:000000d0       _InternalMemSetMem         000110d0     BaseMemoryLibOptDxe:SetMem.obj
 0001:00000100       _InternalMemSetMem32       00011100     BaseMemoryLibOptDxe:SetMem32.obj
 0001:00000120       _InternalMemSetMem64       00011120     BaseMemoryLibOptDxe:SetMem64.obj
 0001:00000140       _InternalMemCompareMem     00011140     BaseMemoryLibOptDxe:CompareMem.obj
 0001:00000160       _InternalMathDivRemU64x64  00011160     BaseLib:DivU64x64Remainder.obj
 0001:000001d9       __ModuleEntryPoint         000111d9 f   UefiApplicationEntryPoint:ApplicationEntryPoint.obj
 0001:000001ff       _ProcessLibraryConstructorList 000111ff f   Shell:AutoGen.obj
 0001:00000609       _ProcessLibraryDestructorList 00011609 f   Shell:AutoGen.obj
 0001:00000792       _TrimSpaces                00011792 f   Shell:Shell.obj
 0001:00000839       _FindNextInstance          00011839 f   Shell:Shell.obj
 0001:00000873       _IsValidEnvironmentVariableName 00011873 f   Shell:Shell.obj
 0001:00000919       _ContainsSplit             00011919 f   Shell:Shell.obj
 0001:000009ba       _InternalEfiShellStartCtrlSMonitor 000119ba f   Shell:Shell.obj
 0001:00000aa3       _UefiMain                  00011aa3 f   Shell:Shell.obj
 0001:00001203       _SetBuiltInAlias           00012203 f   Shell:Shell.obj
 0001:0000126c       _IsScriptOnlyCommand       0001226c f   Shell:Shell.obj
 0001:0000131a       _GetDevicePathsForImageAndFile 0001231a f   Shell:Shell.obj
 0001:00001415       _ProcessCommandLine        00012415 f   Shell:Shell.obj
 0001:0000180c       _LocateStartupScript       0001280c f   Shell:Shell.obj
 0001:000018b7       _DoStartupScript           000128b7 f   Shell:Shell.obj
 0001:00001aa2       _DoShellPrompt             00012aa2 f   Shell:Shell.obj
 0001:00001bc7       _AddBufferToFreeList       00012bc7 f   Shell:Shell.obj
 0001:00001bf1       _RestoreBufferList         00012bf1 f   Shell:Shell.obj
 0001:00001c12       _AddLineToCommandHistory   00012c12 f   Shell:Shell.obj
 0001:00001cbb       _StripUnreplacedEnvironmentVariables 00012cbb f   Shell:Shell.obj
 0001:00001d6e       _ShellConvertVariables     00012d6e f   Shell:Shell.obj
 0001:00002087       _RunSplitCommand           00013087 f   Shell:Shell.obj
 0001:000022fc       _ShellSubstituteAliases    000132fc f   Shell:Shell.obj
 0001:00002454       _GetOperationType          00013454 f   Shell:Shell.obj
 0001:00002501       _IsValidSplit              00013501 f   Shell:Shell.obj
 0001:000025f5       _VerifySplit               000135f5 f   Shell:Shell.obj
 0001:0000263d       _ProcessNewSplitCommandLine 0001363d f   Shell:Shell.obj
 0001:0000269d       _ChangeMappedDrive         0001369d f   Shell:Shell.obj
 0001:00002704       _DoHelpUpdate              00013704 f   Shell:Shell.obj
 0001:00002811       _SetLastError              00013811 f   Shell:Shell.obj
 0001:00002850       _ProcessCommandLineToFinal 00013850 f   Shell:Shell.obj
 0001:000028bb       _RunInternalCommand        000138bb f   Shell:Shell.obj
 0001:000029ed       _RunCommandOrFile          000139ed f   Shell:Shell.obj
 0001:00002b38       _SetupAndRunCommandOrFile  00013b38 f   Shell:Shell.obj
 0001:00002bf2       _RunShellCommand           00013bf2 f   Shell:Shell.obj
 0001:00002de5       _RunScriptFileHandle       00013de5 f   Shell:Shell.obj
 0001:000036c9       _RunScriptFile             000146c9 f   Shell:Shell.obj
 0001:00003749       _FindFirstCharacter        00014749 f   Shell:Shell.obj
 0001:000037bd       _FindEndOfParameter        000147bd f   Shell:ShellParametersProtocol.obj
 0001:000037fc       _GetNextParameter          000147fc f   Shell:ShellParametersProtocol.obj
 0001:00003916       _ParseCommandLineToArgs    00014916 f   Shell:ShellParametersProtocol.obj
 0001:00003ae0       _CreatePopulateInstallShellParametersProtocol 00014ae0 f   Shell:ShellParametersProtocol.obj
 0001:00003d48       _CleanUpShellParametersProtocol 00014d48 f   Shell:ShellParametersProtocol.obj
 0001:00003dbe       _IsUnicodeFile             00014dbe f   Shell:ShellParametersProtocol.obj
 0001:00003e59       _StripQuotes               00014e59 f   Shell:ShellParametersProtocol.obj
 0001:00003e99       _CalculateEfiHdrCrc        00014e99 f   Shell:ShellParametersProtocol.obj
 0001:00003ecd       _FixFileName               00014ecd f   Shell:ShellParametersProtocol.obj
 0001:00003f1a       _FixVarName                00014f1a f   Shell:ShellParametersProtocol.obj
 0001:00003f43       _WriteFileTag              00014f43 f   Shell:ShellParametersProtocol.obj
 0001:00003f93       _UpdateStdInStdOutStdErr   00014f93 f   Shell:ShellParametersProtocol.obj
 0001:00004ee7       _RestoreStdInStdOutStdErr  00015ee7 f   Shell:ShellParametersProtocol.obj
 0001:00005012       _UpdateArgcArgv            00016012 f   Shell:ShellParametersProtocol.obj
 0001:00005064       _RestoreArgcArgv           00016064 f   Shell:ShellParametersProtocol.obj
 0001:000050ee       _EfiShellClose             000160ee f   Shell:ShellProtocol.obj
 0001:000050fc       _EfiShellSetMap            000160fc f   Shell:ShellProtocol.obj
 0001:0000523c       _EfiShellGetDevicePathFromMap 0001623c f   Shell:ShellProtocol.obj
 0001:000052a3       _EfiShellGetMapFromDevicePath 000162a3 f   Shell:ShellProtocol.obj
 0001:000053ae       _EfiShellGetFilePathFromDevicePath 000163ae f   Shell:ShellProtocol.obj
 0001:000055b1       _EfiShellGetDevicePathFromFilePath 000165b1 f   Shell:ShellProtocol.obj
 0001:00005744       _EfiShellGetDeviceName     00016744 f   Shell:ShellProtocol.obj
 0001:00005a39       _EfiShellOpenRootByHandle  00016a39 f   Shell:ShellProtocol.obj
 0001:00005acc       _EfiShellOpenRoot          00016acc f   Shell:ShellProtocol.obj
 0001:00005b12       _EfiShellBatchIsActive     00016b12 f   Shell:ShellProtocol.obj
 0001:00005b1d       _InternalOpenFileDevicePath 00016b1d f   Shell:ShellProtocol.obj
 0001:00005cf9       _EfiShellCreateFile        00016cf9 f   Shell:ShellProtocol.obj
 0001:00005d84       _EfiShellRegisterGuidName  00016d84 f   Shell:ShellProtocol.obj
 0001:00005dd8       _EfiShellOpenFileByName    00016dd8 f   Shell:ShellProtocol.obj
 0001:00005f3f       _EfiShellDeleteFileByName  00016f3f f   Shell:ShellProtocol.obj
 0001:00005f7d       _EfiShellDisablePageBreak  00016f7d f   Shell:ShellProtocol.obj
 0001:00005f85       _EfiShellEnablePageBreak   00016f85 f   Shell:ShellProtocol.obj
 0001:00005f8d       _InternalShellExecuteDevicePath 00016f8d f   Shell:ShellProtocol.obj
 0001:000062da       _InternalShellExecute      000172da f   Shell:ShellProtocol.obj
 0001:0000642a       _EfiShellExecute           0001742a f   Shell:ShellProtocol.obj
 0001:000064fc       _InternalFreeShellFileInfoNode 000174fc f   Shell:ShellProtocol.obj
 0001:0000653d       _EfiShellFreeFileList      0001753d f   Shell:ShellProtocol.obj
 0001:00006585       _EfiShellRemoveDupInFileList 00017585 f   Shell:ShellProtocol.obj
 0001:00006627       _InternalDuplicateShellFileInfo 00017627 f   Shell:ShellProtocol.obj
 0001:000066e5       _CreateAndPopulateShellFileInfo 000176e5 f   Shell:ShellProtocol.obj
 0001:00006817       _EfiShellFindFilesInDir    00017817 f   Shell:ShellProtocol.obj
 0001:00006997       _EfiShellGetGuidFromName   00017997 f   Shell:ShellProtocol.obj
 0001:000069d4       _EfiShellGetGuidName       000179d4 f   Shell:ShellProtocol.obj
 0001:00006a1f       _ShellSearchHandle         00017a1f f   Shell:ShellProtocol.obj
 0001:00006d24       _EfiShellFindFiles         00017d24 f   Shell:ShellProtocol.obj
 0001:00006e5f       _EfiShellOpenFileList      00017e5f f   Shell:ShellProtocol.obj
 0001:00006fc5       _EfiShellGetEnvEx          00017fc5 f   Shell:ShellProtocol.obj
 0001:0000717d       _EfiShellGetEnv            0001817d f   Shell:ShellProtocol.obj
 0001:0000718b       _InternalEfiShellSetEnv    0001818b f   Shell:ShellProtocol.obj
 0001:00007245       _EfiShellSetEnv            00018245 f   Shell:ShellProtocol.obj
 0001:0000731c       _EfiShellGetCurDir         0001831c f   Shell:ShellProtocol.obj
 0001:00007392       _EfiShellSetCurDir         00018392 f   Shell:ShellProtocol.obj
 0001:000076aa       _EfiShellGetHelpText       000186aa f   Shell:ShellProtocol.obj
 0001:000077db       _EfiShellGetPageBreak      000187db f   Shell:ShellProtocol.obj
 0001:000077e1       _EfiShellIsRootShell       000187e1 f   Shell:ShellProtocol.obj
 0001:000077e7       _InternalEfiShellGetListAlias 000187e7 f   Shell:ShellProtocol.obj
 0001:00007926       _ToLower                   00018926 f   Shell:ShellProtocol.obj
 0001:00007954       _EfiShellGetAlias          00018954 f   Shell:ShellProtocol.obj
 0001:00007a45       _InternalSetAlias          00018a45 f   Shell:ShellProtocol.obj
 0001:00007af2       _EfiShellSetAlias          00018af2 f   Shell:ShellProtocol.obj
 0001:00007b5d       _CreatePopulateInstallShellProtocol 00018b5d f   Shell:ShellProtocol.obj
 0001:00007d29       _CleanUpShellProtocol      00018d29 f   Shell:ShellProtocol.obj
 0001:00007d96       _CleanUpShellEnvironment   00018d96 f   Shell:ShellProtocol.obj
 0001:00007e55       _NotificationFunction      00018e55 f   Shell:ShellProtocol.obj
 0001:00007eb6       _InernalEfiShellStartMonitor 00018eb6 f   Shell:ShellProtocol.obj
 0001:00007fb6       _ConsoleLoggerInstall      00018fb6 f   Shell:ConsoleLogger.obj
 0001:00008157       _ConsoleLoggerUninstall    00019157 f   Shell:ConsoleLogger.obj
 0001:000081f8       _ConsoleLoggerDisplayHistory 000191f8 f   Shell:ConsoleLogger.obj
 0001:00008261       _UpdateDisplayFromHistory  00019261 f   Shell:ConsoleLogger.obj
 0001:00008449       _ConsoleLoggerReset        00019449 f   Shell:ConsoleLogger.obj
 0001:000084a1       _AppendStringToHistory     000194a1 f   Shell:ConsoleLogger.obj
 0001:000086d3       _ConsoleLoggerOutputStringSplit 000196d3 f   Shell:ConsoleLogger.obj
 0001:000086f5       _ConsoleLoggerDoPageBreak  000196f5 f   Shell:ConsoleLogger.obj
 0001:000087cf       _ConsoleLoggerPrintWithPageBreak 000197cf f   Shell:ConsoleLogger.obj
 0001:000088f2       _ConsoleLoggerOutputString 000198f2 f   Shell:ConsoleLogger.obj
 0001:00008a41       _ConsoleLoggerTestString   00019a41 f   Shell:ConsoleLogger.obj
 0001:00008a78       _ConsoleLoggerQueryMode    00019a78 f   Shell:ConsoleLogger.obj
 0001:00008ab8       _ConsoleLoggerSetMode      00019ab8 f   Shell:ConsoleLogger.obj
 0001:00008b1b       _ConsoleLoggerSetAttribute 00019b1b f   Shell:ConsoleLogger.obj
 0001:00008b5c       _ConsoleLoggerClearScreen  00019b5c f   Shell:ConsoleLogger.obj
 0001:00008c0a       _ConsoleLoggerSetCursorPosition 00019c0a f   Shell:ConsoleLogger.obj
 0001:00008c6a       _ConsoleLoggerEnableCursor 00019c6a f   Shell:ConsoleLogger.obj
 0001:00008cab       _ConsoleLoggerResetBuffers 00019cab f   Shell:ConsoleLogger.obj
 0001:00008d60       _ConInWaitForKey           00019d60 f   Shell:ConsoleWrappers.obj
 0001:00008d6e       _FileInterfaceNopGeneric   00019d6e f   Shell:FileHandleWrappers.obj
 0001:00008d6e       _FileBasedSimpleTextOutSetCursorPosition 00019d6e f   Shell:ConsoleWrappers.obj
 0001:00008d6e       _FileBasedSimpleTextOutTestString 00019d6e f   Shell:ConsoleWrappers.obj
 0001:00008d6e       _FileBasedSimpleTextOutEnableCursor 00019d6e f   Shell:ConsoleWrappers.obj
 0001:00008d6e       _FileBasedSimpleTextOutClearScreen 00019d6e f   Shell:ConsoleWrappers.obj
 0001:00008d6e       _FileBasedSimpleTextOutReset 00019d6e f   Shell:ConsoleWrappers.obj
 0001:00008d6e       _FileBasedSimpleTextInReset 00019d6e f   Shell:ConsoleWrappers.obj
 0001:00008d6e       _FileBasedSimpleTextOutSetAttribute 00019d6e f   Shell:ConsoleWrappers.obj
 0001:00008d6e       _FileInterfaceNulWrite     00019d6e f   Shell:FileHandleWrappers.obj
 0001:00008d6e       _DevPathSerialDefault      00019d6e f   UefiShellCommandLib:ConsistMapping.obj
 0001:00008d71       _FileBasedSimpleTextInReadKeyStroke 00019d71 f   Shell:ConsoleWrappers.obj
 0001:00008def       _CreateSimpleTextInOnFile  00019def f   Shell:ConsoleWrappers.obj
 0001:00008ea9       _CloseSimpleTextInOnFile   00019ea9 f   Shell:ConsoleWrappers.obj
 0001:00008ef1       _FileBasedSimpleTextOutQueryMode 00019ef1 f   Shell:ConsoleWrappers.obj
 0001:00008f0c       _FileInterfaceNopGetPosition 00019f0c f   Shell:FileHandleWrappers.obj
 0001:00008f0c       _FileInterfaceStdInWrite   00019f0c f   Shell:FileHandleWrappers.obj
 0001:00008f0c       _FileInterfaceStdOutRead   00019f0c f   Shell:FileHandleWrappers.obj
 0001:00008f0c       _FileInterfaceNopSetInfo   00019f0c f   Shell:FileHandleWrappers.obj
 0001:00008f0c       _FileInterfaceNopGetInfo   00019f0c f   Shell:FileHandleWrappers.obj
 0001:00008f0c       _FileInterfaceStdErrRead   00019f0c f   Shell:FileHandleWrappers.obj
 0001:00008f0c       _FileBasedSimpleTextOutSetMode 00019f0c f   Shell:ConsoleWrappers.obj
 0001:00008f0c       _FileInterfaceNopSetPosition 00019f0c f   Shell:FileHandleWrappers.obj
 0001:00008f12       _FileBasedSimpleTextOutOutputString 00019f12 f   Shell:ConsoleWrappers.obj
 0001:00008f40       _CreateSimpleTextOutOnFile 00019f40 f   Shell:ConsoleWrappers.obj
 0001:00009047       _CloseSimpleTextOutOnFile  0001a047 f   Shell:ConsoleWrappers.obj
 0001:00009082       _IsVolatileEnv             0001a082 f   Shell:ShellEnvVar.obj
 0001:00009132       _FreeEnvironmentVariableList 0001a132 f   Shell:ShellEnvVar.obj
 0001:000091a5       _GetEnvironmentVariableList 0001a1a5 f   Shell:ShellEnvVar.obj
 0001:000093c1       _SetEnvironmentVariableList 0001a3c1 f   Shell:ShellEnvVar.obj
 0001:00009512       _SetEnvironmentVariables   0001a512 f   Shell:ShellEnvVar.obj
 0001:0000968f       _ShellFindEnvVarInList     0001a68f f   Shell:ShellEnvVar.obj
 0001:0000972a       _ShellAddEnvVarToList      0001a72a f   Shell:ShellEnvVar.obj
 0001:00009813       _ShellRemvoeEnvVarFromList 0001a813 f   Shell:ShellEnvVar.obj
 0001:00009896       _FileInterfaceOpenNotFound 0001a896 f   Shell:FileHandleWrappers.obj
 0001:0000989c       _FileInterfaceStdOutWrite  0001a89c f   Shell:FileHandleWrappers.obj
 0001:000098d6       _FileInterfaceStdErrWrite  0001a8d6 f   Shell:FileHandleWrappers.obj
 0001:000098e9       _FileInterfaceNulRead      0001a8e9 f   Shell:FileHandleWrappers.obj
 0001:000098f3       _CreateTabCompletionList   0001a8f3 f   Shell:FileHandleWrappers.obj
 0001:00009b39       _FileInterfaceStdInRead    0001ab39 f   Shell:FileHandleWrappers.obj
 0001:0000a306       _FileInterfaceEnvClose     0001b306 f   Shell:FileHandleWrappers.obj
 0001:0000a41e       _FileInterfaceEnvDelete    0001b41e f   Shell:FileHandleWrappers.obj
 0001:0000a447       _FileInterfaceEnvRead      0001b447 f   Shell:FileHandleWrappers.obj
 0001:0000a46a       _FileInterfaceEnvVolWrite  0001b46a f   Shell:FileHandleWrappers.obj
 0001:0000a56b       _FileInterfaceEnvNonVolWrite 0001b56b f   Shell:FileHandleWrappers.obj
 0001:0000a66c       _CreateFileInterfaceEnv    0001b66c f   Shell:FileHandleWrappers.obj
 0001:0000a717       _PrintCommandHistory       0001b717 f   Shell:FileHandleWrappers.obj
 0001:0000a7c6       _FileInterfaceMemSetPosition 0001b7c6 f   Shell:FileHandleWrappers.obj
 0001:0000a7ed       _FileInterfaceMemGetPosition 0001b7ed f   Shell:FileHandleWrappers.obj
 0001:0000a803       _FileInterfaceMemWrite     0001b803 f   Shell:FileHandleWrappers.obj
 0001:0000a921       _FileInterfaceMemRead      0001b921 f   Shell:FileHandleWrappers.obj
 0001:0000a957       _FileInterfaceMemClose     0001b957 f   Shell:FileHandleWrappers.obj
 0001:0000a979       _CreateFileInterfaceMem    0001b979 f   Shell:FileHandleWrappers.obj
 0001:0000aa73       _FileInterfaceFileSetPosition 0001ba73 f   Shell:FileHandleWrappers.obj
 0001:0000aa8a       _FileInterfaceFileGetPosition 0001ba8a f   Shell:FileHandleWrappers.obj
 0001:0000aa9c       _FileInterfaceFileGetInfo  0001ba9c f   Shell:FileHandleWrappers.obj
 0001:0000aab7       _FileInterfaceFileSetInfo  0001bab7 f   Shell:FileHandleWrappers.obj
 0001:0000aad2       _FileInterfaceFileFlush    0001bad2 f   Shell:FileHandleWrappers.obj
 0001:0000aadf       _FileInterfaceFileRead     0001badf f   Shell:FileHandleWrappers.obj
 0001:0000ab9b       _FileInterfaceFileOpen     0001bb9b f   Shell:FileHandleWrappers.obj
 0001:0000abbf       _FileInterfaceFileDelete   0001bbbf f   Shell:FileHandleWrappers.obj
 0001:0000abdb       _FileInterfaceFileClose    0001bbdb f   Shell:FileHandleWrappers.obj
 0001:0000abf7       _FileInterfaceFileWrite    0001bbf7 f   Shell:FileHandleWrappers.obj
 0001:0000ac5d       _CreateFileInterfaceFile   0001bc5d f   Shell:FileHandleWrappers.obj
 0001:0000accf       _GetExecuatableFileName    0001bccf f   Shell:ShellManParser.obj
 0001:0000ae38       _GetManFileName            0001be38 f   Shell:ShellManParser.obj
 0001:0000aec5       _SearchPathForFile         0001bec5 f   Shell:ShellManParser.obj
 0001:0000af15       _ManBufferFindSections     0001bf15 f   Shell:ShellManParser.obj
 0001:0000b179       _ManFileFindSections       0001c179 f   Shell:ShellManParser.obj
 0001:0000b32c       _ManBufferFindTitleSection 0001c32c f   Shell:ShellManParser.obj
 0001:0000b48f       _IsTitleHeader             0001c48f f   Shell:ShellManParser.obj
 0001:0000b5c2       _ManFileFindTitleSection   0001c5c2 f   Shell:ShellManParser.obj
 0001:0000b6ba       _ProcessManFile            0001c6ba f   Shell:ShellManParser.obj
 0001:0000ba5c       _CopyMem                   0001ca5c f   BaseMemoryLibOptDxe:CopyMemWrapper.obj
 0001:0000bac1       _SetMem16                  0001cac1 f   BaseMemoryLibOptDxe:SetMem16Wrapper.obj
 0001:0000bb48       _CopyGuid                  0001cb48 f   BaseMemoryLibOptDxe:MemLibGuid.obj
 0001:0000bb78       _CompareGuid               0001cb78 f   BaseMemoryLibOptDxe:MemLibGuid.obj
 0001:0000bbd7       _ZeroMem                   0001cbd7 f   BaseMemoryLibOptDxe:ZeroMemWrapper.obj
 0001:0000bc24       _SetMem                    0001cc24 f   BaseMemoryLibOptDxe:SetMemWrapper.obj
 0001:0000bc5c       _DebugPrint                0001cc5c f   PeiDxeDebugLibReportStatusCode:DebugLib.obj
 0001:0000bdb3       _DebugAssert               0001cdb3 f   PeiDxeDebugLibReportStatusCode:DebugLib.obj
 0001:0000beb4       _StrLen                    0001ceb4 f   BaseLib:String.obj
 0001:0000bf1c       _StrSize                   0001cf1c f   BaseLib:String.obj
 0001:0000bf2b       _StrCmp                    0001cf2b f   BaseLib:String.obj
 0001:0000bf90       _StrnCmp                   0001cf90 f   BaseLib:String.obj
 0001:0000c023       _StrStr                    0001d023 f   BaseLib:String.obj
 0001:0000c0bc       _InternalCharToUpper       0001d0bc f   BaseLib:String.obj
 0001:0000c0bc       _InternalShellCharToUpper  0001d0bc f   UefiShellLib:UefiShellLib.obj
 0001:0000c0cd       _InternalHexCharToUintn    0001d0cd f   BaseLib:String.obj
 0001:0000c0cd       _InternalShellHexCharToUintn 0001d0cd f   UefiShellLib:UefiShellLib.obj
 0001:0000c0e9       _InternalIsHexaDecimalDigitCharacter 0001d0e9 f   BaseLib:String.obj
 0001:0000c110       _StrHexToUint64            0001d110 f   BaseLib:String.obj
 0001:0000c129       _AsciiStrLen               0001d129 f   BaseLib:String.obj
 0001:0000c174       _AsciiStrnCmp              0001d174 f   BaseLib:String.obj
 0001:0000c204       _InternalSafeStringIsOverlap 0001d204 f   BaseLib:SafeString.obj
 0001:0000c22a       _InternalSafeStringNoStrOverlap 0001d22a f   BaseLib:SafeString.obj
 0001:0000c249       _StrnLenS                  0001d249 f   BaseLib:SafeString.obj
 0001:0000c293       _StrCpyS                   0001d293 f   BaseLib:SafeString.obj
 0001:0000c3b8       _StrnCpyS                  0001d3b8 f   BaseLib:SafeString.obj
 0001:0000c50a       _StrCatS                   0001d50a f   BaseLib:SafeString.obj
 0001:0000c669       _StrnCatS                  0001d669 f   BaseLib:SafeString.obj
 0001:0000c7fa       _StrDecimalToUintnS        0001d7fa f   BaseLib:SafeString.obj
 0001:0000c90c       _StrHexToUintnS            0001d90c f   BaseLib:SafeString.obj
 0001:0000ca27       _StrHexToUint64S           0001da27 f   BaseLib:SafeString.obj
 0001:0000cb99       _StrToIpv6Address          0001db99 f   BaseLib:SafeString.obj
 0001:0000cd97       _StrToIpv4Address          0001dd97 f   BaseLib:SafeString.obj
 0001:0000ce8b       _StrToGuid                 0001de8b f   BaseLib:SafeString.obj
 0001:0000cfa9       _StrHexToBytes             0001dfa9 f   BaseLib:SafeString.obj
 0001:0000d0c8       _AsciiStrnLenS             0001e0c8 f   BaseLib:SafeString.obj
 0001:0000d0ef       _AsciiStrCpyS              0001e0ef f   BaseLib:SafeString.obj
 0001:0000d1b0       _InternalBaseLibIsListValid 0001e1b0 f   BaseLib:LinkedList.obj
 0001:0000d214       _InitializeListHead        0001e214 f   BaseLib:LinkedList.obj
 0001:0000d239       _InsertHeadList            0001e239 f   BaseLib:LinkedList.obj
 0001:0000d270       _InsertTailList            0001e270 f   BaseLib:LinkedList.obj
 0001:0000d2a8       _GetFirstNode              0001e2a8 f   BaseLib:LinkedList.obj
 0001:0000d2cd       _GetNextNode               0001e2cd f   BaseLib:LinkedList.obj
 0001:0000d2f8       _GetPreviousNode           0001e2f8 f   BaseLib:LinkedList.obj
 0001:0000d322       _IsListEmpty               0001e322 f   BaseLib:LinkedList.obj
 0001:0000d34a       _IsNull                    0001e34a f   BaseLib:LinkedList.obj
 0001:0000d378       _SwapListEntries           0001e378 f   BaseLib:LinkedList.obj
 0001:0000d3e2       _RemoveEntryList           0001e3e2 f   BaseLib:LinkedList.obj
 0001:0000d416       _PathRemoveLastItem        0001e416 f   BaseLib:FilePaths.obj
 0001:0000d469       _PathCleanUpDirectories    0001e469 f   BaseLib:FilePaths.obj
 0001:0000d574       _ReadUnaligned16           0001e574 f   BaseLib:Unaligned.obj
 0001:0000d593       _WriteUnaligned16          0001e593 f   BaseLib:Unaligned.obj
 0001:0000d5ba       _ReadUnaligned32           0001e5ba f   BaseLib:Unaligned.obj
 0001:0000d5da       _WriteUnaligned32          0001e5da f   BaseLib:Unaligned.obj
 0001:0000d600       _ReadUnaligned64           0001e600 f   BaseLib:Unaligned.obj
 0001:0000d623       _WriteUnaligned64          0001e623 f   BaseLib:Unaligned.obj
 0001:0000d64e       _SwapBytes32               0001e64e f   BaseLib:SwapBytes32.obj
 0001:0000d667       _InternalAllocatePool      0001e667 f   UefiMemoryAllocationLib:MemoryAllocationLib.obj
 0001:0000d68c       _InternalAllocateZeroPool  0001e68c f   UefiMemoryAllocationLib:MemoryAllocationLib.obj
 0001:0000d6a4       _InternalAllocateCopyPool  0001e6a4 f   UefiMemoryAllocationLib:MemoryAllocationLib.obj
 0001:0000d6fd       _InternalReallocatePool    0001e6fd f   UefiMemoryAllocationLib:MemoryAllocationLib.obj
 0001:0000d73a       _FreePool                  0001e73a f   UefiMemoryAllocationLib:MemoryAllocationLib.obj
 0001:0000d770       _DxePrintLibPrint2ProtocolVaListToBaseList 0001e770 f   DxePrintLibPrint2Protocol:PrintLib.obj
 0001:0000d981       _UnicodeVSPrint            0001e981 f   DxePrintLibPrint2Protocol:PrintLib.obj
 0001:0000da01       _UnicodeBSPrint            0001ea01 f   DxePrintLibPrint2Protocol:PrintLib.obj
 0001:0000da55       _UnicodeSPrint             0001ea55 f   DxePrintLibPrint2Protocol:PrintLib.obj
 0001:0000da6e       _UnicodeValueToStringS     0001ea6e f   DxePrintLibPrint2Protocol:PrintLib.obj
 0001:0000da89       _AsciiVSPrint              0001ea89 f   DxePrintLibPrint2Protocol:PrintLib.obj
 0001:0000dad5       _AsciiSPrint               0001ead5 f   DxePrintLibPrint2Protocol:PrintLib.obj
 0001:0000daee       _InternalPrintLibSPrint    0001eaee f   DxePrintLibPrint2Protocol:PrintLib.obj
 0001:0000db0d       _InternalPrintLibFillBuffer 0001eb0d f   DxePrintLibPrint2Protocol:PrintLib.obj
 0001:0000db41       _InternalPrintLibSPrintMarker 0001eb41 f   DxePrintLibPrint2Protocol:PrintLib.obj
 0001:0000e778       _DevicePathType            0001f778 f   UefiDevicePathLibDevicePathProtocol:UefiDevicePathLib.obj
 0001:0000e798       _DevicePathSubType         0001f798 f   UefiDevicePathLibDevicePathProtocol:UefiDevicePathLib.obj
 0001:0000e7b9       _DevicePathNodeLength      0001f7b9 f   UefiDevicePathLibDevicePathProtocol:UefiDevicePathLib.obj
 0001:0000e7e2       _NextDevicePathNode        0001f7e2 f   UefiDevicePathLibDevicePathProtocol:UefiDevicePathLib.obj
 0001:0000e809       _IsDevicePathEndType       0001f809 f   UefiDevicePathLibDevicePathProtocol:UefiDevicePathLib.obj
 0001:0000e833       _IsDevicePathEnd           0001f833 f   UefiDevicePathLibDevicePathProtocol:UefiDevicePathLib.obj
 0001:0000e86d       _SetDevicePathNodeLength   0001f86d f   UefiDevicePathLibDevicePathProtocol:UefiDevicePathLib.obj
 0001:0000e8bb       _SetDevicePathEndNode      0001f8bb f   UefiDevicePathLibDevicePathProtocol:UefiDevicePathLib.obj
 0001:0000e8e8       _GetNextDevicePathInstance 0001f8e8 f   UefiDevicePathLibDevicePathProtocol:UefiDevicePathLib.obj
 0001:0000e916       _DevicePathFromHandle      0001f916 f   UefiDevicePathLibDevicePathProtocol:UefiDevicePathLib.obj
 0001:0000e93e       _FileDevicePath            0001f93e f   UefiDevicePathLibDevicePathProtocol:UefiDevicePathLib.obj
 0001:0000e9b9       _UefiDevicePathLibLocateProtocol 0001f9b9 f   UefiDevicePathLibDevicePathProtocol:UefiDevicePathLib.obj
 0001:0000e9e1       _ConvertDevicePathToText   0001f9e1 f   UefiDevicePathLibDevicePathProtocol:UefiDevicePathLib.obj
 0001:0000ea12       _EfiGetSystemConfigurationTable 0001fa12 f   UefiLib:UefiLib.obj
 0001:0000ea9c       _GetVariable2              0001fa9c f   UefiLib:UefiLib.obj
 0001:0000eb5f       _GetBestLanguage           0001fb5f f   UefiLib:UefiLib.obj
 0001:0000ec6a       _GetHobList                0001fc6a f   DxeHobLib:HobLib.obj
 0001:0000ecce       _GetNextHob                0001fcce f   DxeHobLib:HobLib.obj
 0001:0000ed0b       _GetFirstGuidHob           0001fd0b f   DxeHobLib:HobLib.obj
 0001:0000ed45       _GetDebugPrintErrorLevel   0001fd45 f   DxeDebugPrintErrorLevelLib:DxeDebugPrintErrorLevelLib.obj
 0001:0000edff       _GetDebugMask              0001fdff f   DxeDebugPrintErrorLevelLib:DxeDebugPrintErrorLevelLib.obj
 0001:0000ee17       _SetDebugMask              0001fe17 f   DxeDebugPrintErrorLevelLib:DxeDebugPrintErrorLevelLib.obj
 0001:0000ee23       _UefiHiiServicesLibConstructor 0001fe23 f   UefiHiiServicesLib:UefiHiiServicesLib.obj
 0001:0000ef10       _QuickSortWorker           0001ff10 f   UefiSortLib:UefiSortLib.obj
 0001:0000f067       _PerformQuickSort          00020067 f   UefiSortLib:UefiSortLib.obj
 0001:0000f0e7       _DevicePathCompare         000200e7 f   UefiSortLib:UefiSortLib.obj
 0001:0000f1b5       _StringNoCaseCompare       000201b5 f   UefiSortLib:UefiSortLib.obj
 0001:0000f21a       _HiiAddPackages            0002021a f   UefiHiiLib:HiiLib.obj
 0001:0000f2ff       _HiiRemovePackages         000202ff f   UefiHiiLib:HiiLib.obj
 0001:0000f355       _HiiSetString              00020355 f   UefiHiiLib:HiiString.obj
 0001:0000f45b       _HiiGetString              0002045b f   UefiHiiLib:HiiString.obj
 0001:0000f586       _HiiGetSupportedLanguages  00020586 f   UefiHiiLib:HiiLanguage.obj
 0001:0000f5ff       _FileHandleGetInfo         000205ff f   UefiFileHandleLib:UefiFileHandleLib.obj
 0001:0000f65e       _FileHandleSetInfo         0002065e f   UefiFileHandleLib:UefiFileHandleLib.obj
 0001:0000f684       _FileHandleRead            00020684 f   UefiFileHandleLib:UefiFileHandleLib.obj
 0001:0000f6a2       _FileHandleWrite           000206a2 f   UefiFileHandleLib:UefiFileHandleLib.obj
 0001:0000f6c0       _FileHandleClose           000206c0 f   UefiFileHandleLib:UefiFileHandleLib.obj
 0001:0000f6d4       _FileHandleDelete          000206d4 f   UefiFileHandleLib:UefiFileHandleLib.obj
 0001:0000f6e8       _FileHandleSetPosition     000206e8 f   UefiFileHandleLib:UefiFileHandleLib.obj
 0001:0000f706       _FileHandleGetPosition     00020706 f   UefiFileHandleLib:UefiFileHandleLib.obj
 0001:0000f726       _FileHandleFlush           00020726 f   UefiFileHandleLib:UefiFileHandleLib.obj
 0001:0000f73a       _FileHandleIsDirectory     0002073a f   UefiFileHandleLib:UefiFileHandleLib.obj
 0001:0000f76d       _FileHandleFindFirstFile   0002076d f   UefiFileHandleLib:UefiFileHandleLib.obj
 0001:0000f839       _FileHandleFindNextFile    00020839 f   UefiFileHandleLib:UefiFileHandleLib.obj
 0001:0000f8ae       _FileHandleGetSize         000208ae f   UefiFileHandleLib:UefiFileHandleLib.obj
 0001:0000f8f0       _FileHandleSetSize         000208f0 f   UefiFileHandleLib:UefiFileHandleLib.obj
 0001:0000f93a       _StrnCatGrowLeft           0002093a f   UefiFileHandleLib:UefiFileHandleLib.obj
 0001:0000fa10       _FileHandleGetFileName     00020a10 f   UefiFileHandleLib:UefiFileHandleLib.obj
 0001:0000fc26       _ShellIsHexaDecimalDigitCharacter 00020c26 f   UefiShellLib:UefiShellLib.obj
 0001:0000fc4d       _ShellFindSE2              00020c4d f   UefiShellLib:UefiShellLib.obj
 0001:0000fd73       _ShellLibConstructorWorker 00020d73 f   UefiShellLib:UefiShellLib.obj
 0001:0000ff42       _ShellLibDestructor        00020f42 f   UefiShellLib:UefiShellLib.obj
 0001:0000fffe       _ShellInitialize           00020ffe f   UefiShellLib:UefiShellLib.obj
 0001:00010043       _ShellOpenFileByDevicePath 00021043 f   UefiShellLib:UefiShellLib.obj
 0001:000101ff       _ShellOpenFileByName       000211ff f   UefiShellLib:UefiShellLib.obj
 0001:000103f6       _ShellCreateDirectory      000213f6 f   UefiShellLib:UefiShellLib.obj
 0001:0001041e       _ShellGetExecutionBreakFlag 0002141e f   UefiShellLib:UefiShellLib.obj
 0001:0001044c       _ShellGetEnvironmentVariable 0002144c f   UefiShellLib:UefiShellLib.obj
 0001:00010465       _ShellGetCurrentDir        00021465 f   UefiShellLib:UefiShellLib.obj
 0001:00010486       _InternalShellConvertFileListType 00021486 f   UefiShellLib:UefiShellLib.obj
 0001:00010632       _ShellOpenFileMetaArg      00021632 f   UefiShellLib:UefiShellLib.obj
 0001:000107e9       _ShellCloseFileMetaArg     000217e9 f   UefiShellLib:UefiShellLib.obj
 0001:00010890       _ShellFindFilePath         00021890 f   UefiShellLib:UefiShellLib.obj
 0001:00010ade       _ShellFindFilePathEx       00021ade f   UefiShellLib:UefiShellLib.obj
 0001:00010bae       _InternalIsOnCheckList     00021bae f   UefiShellLib:UefiShellLib.obj
 0001:00010cc4       _InternalIsFlag            00021cc4 f   UefiShellLib:UefiShellLib.obj
 0001:00010d2f       _InternalCommandLineParse  00021d2f f   UefiShellLib:UefiShellLib.obj
 0001:000110a0       _ShellCommandLineParseEx   000220a0 f   UefiShellLib:UefiShellLib.obj
 0001:0001112d       _ShellCommandLineFreeVarList 0002212d f   UefiShellLib:UefiShellLib.obj
 0001:0001117d       _ShellCommandLineGetFlag   0002217d f   UefiShellLib:UefiShellLib.obj
 0001:0001124d       _ShellCommandLineGetValue  0002224d f   UefiShellLib:UefiShellLib.obj
 0001:0001132d       _ShellCommandLineGetRawValue 0002232d f   UefiShellLib:UefiShellLib.obj
 0001:00011367       _ShellCommandLineGetCount  00022367 f   UefiShellLib:UefiShellLib.obj
 0001:000113a2       _ShellCommandLineCheckDuplicate 000223a2 f   UefiShellLib:UefiShellLib.obj
 0001:0001143f       _ShellCopySearchAndReplace 0002243f f   UefiShellLib:UefiShellLib.obj
 0001:00011592       _InternalPrintTo           00022592 f   UefiShellLib:UefiShellLib.obj
 0001:0001160a       _InternalShellPrintWorker  0002260a f   UefiShellLib:UefiShellLib.obj
 0001:0001195a       _ShellPrintEx              0002295a f   UefiShellLib:UefiShellLib.obj
 0001:00011982       _ShellPrintHiiEx           00022982 f   UefiShellLib:UefiShellLib.obj
 0001:000119c4       _ShellIsDirectory          000229c4 f   UefiShellLib:UefiShellLib.obj
 0001:00011ac6       _ShellIsFile               00022ac6 f   UefiShellLib:UefiShellLib.obj
 0001:00011b26       _ShellStrToUintn           00022b26 f   UefiShellLib:UefiShellLib.obj
 0001:00011b69       _StrnCatGrow               00022b69 f   UefiShellLib:UefiShellLib.obj
 0001:00011c56       _ShellPromptForResponse    00022c56 f   UefiShellLib:UefiShellLib.obj
 0001:000121ab       _ShellPromptForResponseHii 000231ab f   UefiShellLib:UefiShellLib.obj
 0001:000121db       _InternalShellIsHexOrDecimalNumber 000231db f   UefiShellLib:UefiShellLib.obj
 0001:00012268       _ShellFileExists           00023268 f   UefiShellLib:UefiShellLib.obj
 0001:000122af       _InternalShellStrHexToUint64 000232af f   UefiShellLib:UefiShellLib.obj
 0001:000123cf       _InternalShellStrDecimalToUint64 000233cf f   UefiShellLib:UefiShellLib.obj
 0001:000124fa       _ShellConvertStringToUint64 000234fa f   UefiShellLib:UefiShellLib.obj
 0001:000125f4       _ShellIsHexOrDecimalNumber 000235f4 f   UefiShellLib:UefiShellLib.obj
 0001:00012609       _ShellFileHandleReturnLine 00023609 f   UefiShellLib:UefiShellLib.obj
 0001:0001267f       _ShellFileHandleReadLine   0002367f f   UefiShellLib:UefiShellLib.obj
 0001:00012899       _ShellPrintHelp            00023899 f   UefiShellLib:UefiShellLib.obj
 0001:0001295f       _ShellDeleteFileByName     0002395f f   UefiShellLib:UefiShellLib.obj
 0001:00012998       _FindLoadedImageFileName   00023998 f   UefiHandleParsingLib:UefiHandleParsingLib.obj
 0001:00012a03       _ConvertMemoryType         00023a03 f   UefiHandleParsingLib:UefiHandleParsingLib.obj
 0001:00012aff       _ConvertPixelFormat        00023aff f   UefiHandleParsingLib:UefiHandleParsingLib.obj
 0001:00012b68       _HandleParsingHiiInit      00023b68 f   UefiHandleParsingLib:UefiHandleParsingLib.obj
 0001:00012bac       _LoadedImageProtocolDumpInformation 00023bac f   UefiHandleParsingLib:UefiHandleParsingLib.obj
 0001:00012d25       _GraphicsOutputProtocolDumpInformation 00023d25 f   UefiHandleParsingLib:UefiHandleParsingLib.obj
 0001:00012f23       _EdidDiscoveredProtocolDumpInformation 00023f23 f   UefiHandleParsingLib:UefiHandleParsingLib.obj
 0001:00012ff8       _EdidActiveProtocolDumpInformation 00023ff8 f   UefiHandleParsingLib:UefiHandleParsingLib.obj
 0001:000130cd       _PciRootBridgeIoDumpInformation 000240cd f   UefiHandleParsingLib:UefiHandleParsingLib.obj
 0001:00013363       _TxtOutProtocolDumpInformation 00024363 f   UefiHandleParsingLib:UefiHandleParsingLib.obj
 0001:000134ef       _DriverEfiVersionProtocolDumpInformation 000244ef f   UefiHandleParsingLib:UefiHandleParsingLib.obj
 0001:00013561       _ConvertDevicePathToShortText 00024561 f   UefiHandleParsingLib:UefiHandleParsingLib.obj
 0001:00013686       _DevicePathProtocolDumpInformation 00024686 f   UefiHandleParsingLib:UefiHandleParsingLib.obj
 0001:0001369a       _LoadedImageDevicePathProtocolDumpInformation 0002469a f   UefiHandleParsingLib:UefiHandleParsingLib.obj
 0001:000136ae       _BusSpecificDriverOverrideProtocolDumpInformation 000246ae f   UefiHandleParsingLib:UefiHandleParsingLib.obj
 0001:0001379a       _BlockIoProtocolDumpInformation 0002479a f   UefiHandleParsingLib:UefiHandleParsingLib.obj
 0001:000138d5       _DebugSupportProtocolDumpInformation 000248d5 f   UefiHandleParsingLib:UefiHandleParsingLib.obj
 0001:000139a2       _PciIoProtocolDumpInformation 000249a2 f   UefiHandleParsingLib:UefiHandleParsingLib.obj
 0001:00013acd       _UsbIoProtocolDumpInformation 00024acd f   UefiHandleParsingLib:UefiHandleParsingLib.obj
 0001:00013b68       _AdapterInformationDumpInformation 00024b68 f   UefiHandleParsingLib:UefiHandleParsingLib.obj
 0001:00013fef       _FirmwareManagementDumpInformation 00024fef f   UefiHandleParsingLib:UefiHandleParsingLib.obj
 0001:000147b0       _PartitionInfoProtocolDumpInformation 000257b0 f   UefiHandleParsingLib:UefiHandleParsingLib.obj
 0001:00014878       _InternalShellGetNodeFromGuid 00025878 f   UefiHandleParsingLib:UefiHandleParsingLib.obj
 0001:00014911       _InsertNewGuidNameMapping  00025911 f   UefiHandleParsingLib:UefiHandleParsingLib.obj
 0001:000149bb       _GetStringNameFromGuid     000259bb f   UefiHandleParsingLib:UefiHandleParsingLib.obj
 0001:000149e6       _GetProtocolInformationDump 000259e6 f   UefiHandleParsingLib:UefiHandleParsingLib.obj
 0001:00014a49       _GetGuidFromStringName     00025a49 f   UefiHandleParsingLib:UefiHandleParsingLib.obj
 0001:00014bbd       _GetBestLanguageForDriver  00025bbd f   UefiHandleParsingLib:UefiHandleParsingLib.obj
 0001:00014c1c       _GetStringNameFromHandle   00025c1c f   UefiHandleParsingLib:UefiHandleParsingLib.obj
 0001:00014ceb       _InternalShellInitHandleList 00025ceb f   UefiHandleParsingLib:UefiHandleParsingLib.obj
 0001:00014dbd       _ConvertHandleToHandleIndex 00025dbd f   UefiHandleParsingLib:UefiHandleParsingLib.obj
 0001:00014e86       _ConvertHandleIndexToHandle 00025e86 f   UefiHandleParsingLib:UefiHandleParsingLib.obj
 0001:00014f08       _ParseHandleDatabaseByRelationshipWithType 00025f08 f   UefiHandleParsingLib:UefiHandleParsingLib.obj
 0001:00015480       _ParseHandleDatabaseByRelationship 00026480 f   UefiHandleParsingLib:UefiHandleParsingLib.obj
 0001:00015606       _ParseHandleDatabaseForChildControllers 00026606 f   UefiHandleParsingLib:UefiHandleParsingLib.obj
 0001:00015736       _ParseHandleDatabaseForChildDevices 00026736 f   UefiHandleParsingLib:UefiHandleParsingLib.obj
 0001:000157e8       _GetHandleListByProtocol   000267e8 f   UefiHandleParsingLib:UefiHandleParsingLib.obj
 0001:00015895       _GetHandleListByProtocolList 00026895 f   UefiHandleParsingLib:UefiHandleParsingLib.obj
 0001:000159c8       _GetAllMappingGuids        000269c8 f   UefiHandleParsingLib:UefiHandleParsingLib.obj
 0001:00015a6a       _CommandInit               00026a6a f   UefiShellCommandLib:UefiShellCommandLib.obj
 0001:00015a9a       _ShellCommandLibConstructor 00026a9a f   UefiShellCommandLib:UefiShellCommandLib.obj
 0001:00015b17       _FreeFileHandleList        00026b17 f   UefiShellCommandLib:UefiShellCommandLib.obj
 0001:00015b86       _ShellCommandLibDestructor 00026b86 f   UefiShellCommandLib:UefiShellCommandLib.obj
 0001:00015cf0       _ShellCommandFindDynamicCommand 00026cf0 f   UefiShellCommandLib:UefiShellCommandLib.obj
 0001:00015d61       _ShellCommandIsCommandOnInternalList 00026d61 f   UefiShellCommandLib:UefiShellCommandLib.obj
 0001:00015de0       _ShellCommandIsCommandOnList 00026de0 f   UefiShellCommandLib:UefiShellCommandLib.obj
 0001:00015dfe       _ShellCommandGetInternalCommandHelp 00026dfe f   UefiShellCommandLib:UefiShellCommandLib.obj
 0001:00015e8c       _ShellCommandRegisterCommandName 00026e8c f   UefiShellCommandLib:UefiShellCommandLib.obj
 0001:00016076       _ShellCommandRunCommandHandler 00027076 f   UefiShellCommandLib:UefiShellCommandLib.obj
 0001:00016163       _ShellCommandGetManFileNameHandler 00027163 f   UefiShellCommandLib:UefiShellCommandLib.obj
 0001:000161e3       _ShellCommandRegisterAlias 000271e3 f   UefiShellCommandLib:UefiShellCommandLib.obj
 0001:000162d8       _ShellCommandIsOnAliasList 000272d8 f   UefiShellCommandLib:UefiShellCommandLib.obj
 0001:00016380       _ShellCommandRegisterExit  00027380 f   UefiShellCommandLib:UefiShellCommandLib.obj
 0001:000163b0       _DeleteScriptFileStruct    000273b0 f   UefiShellCommandLib:UefiShellCommandLib.obj
 0001:00016474       _ShellCommandGetCurrentScriptFile 00027474 f   UefiShellCommandLib:UefiShellCommandLib.obj
 0001:00016495       _ShellCommandSetNewScript  00027495 f   UefiShellCommandLib:UefiShellCommandLib.obj
 0001:000164f2       _ShellCommandCreateNewMappingName 000274f2 f   UefiShellCommandLib:UefiShellCommandLib.obj
 0001:0001655a       _ShellCommandAddMapItemAndUpdatePath 0002755a f   UefiShellCommandLib:UefiShellCommandLib.obj
 0001:000166e4       _ShellCommandCreateInitialMappingsAndPaths 000276e4 f   UefiShellCommandLib:UefiShellCommandLib.obj
 0001:00016a70       _ShellCommandUpdateMapping 00027a70 f   UefiShellCommandLib:UefiShellCommandLib.obj
 0001:00016ba2       _ConvertEfiFileProtocolToShellHandle 00027ba2 f   UefiShellCommandLib:UefiShellCommandLib.obj
 0001:00016c11       _ShellFileHandleGetPath    00027c11 f   UefiShellCommandLib:UefiShellCommandLib.obj
 0001:00016c52       _ShellFileHandleRemove     00027c52 f   UefiShellCommandLib:UefiShellCommandLib.obj
 0001:00016cc6       _ShellFileHandleEof        00027cc6 f   UefiShellCommandLib:UefiShellCommandLib.obj
 0001:00016d49       _FreeBufferList            00027d49 f   UefiShellCommandLib:UefiShellCommandLib.obj
 0001:00016d86       _DumpHex                   00027d86 f   UefiShellCommandLib:UefiShellCommandLib.obj
 0001:00016e6f       _CatSDumpHex               00027e6f f   UefiShellCommandLib:UefiShellCommandLib.obj
 0001:00016f6d       _CatPrint                  00027f6d f   UefiShellCommandLib:ConsistMapping.obj
 0001:0001701d       _AppendCSDNum2             0002801d f   UefiShellCommandLib:ConsistMapping.obj
 0001:00017090       _AppendCSDNum              00028090 f   UefiShellCommandLib:ConsistMapping.obj
 0001:000170eb       _AppendCSDStr              000280eb f   UefiShellCommandLib:ConsistMapping.obj
 0001:00017233       _DevPathCompareAcpi        00028233 f   UefiShellCommandLib:ConsistMapping.obj
 0001:00017273       _DevPathComparePci         00028273 f   UefiShellCommandLib:ConsistMapping.obj
 0001:000172dc       _DevPathCompareDefault     000282dc f   UefiShellCommandLib:ConsistMapping.obj
 0001:0001734f       _DevPathSerialHardDrive    0002834f f   UefiShellCommandLib:ConsistMapping.obj
 0001:000173b2       _DevPathSerialAtapi        000283b2 f   UefiShellCommandLib:ConsistMapping.obj
 0001:0001740e       _DevPathSerialCdRom        0002840e f   UefiShellCommandLib:ConsistMapping.obj
 0001:0001746b       _DevPathSerialFibre        0002846b f   UefiShellCommandLib:ConsistMapping.obj
 0001:000174d3       _DevPathSerialUart         000284d3 f   UefiShellCommandLib:ConsistMapping.obj
 0001:00017566       _DevPathSerialUsb          00028566 f   UefiShellCommandLib:ConsistMapping.obj
 0001:0001769e       _DevPathSerialVendor       0002869e f   UefiShellCommandLib:ConsistMapping.obj
 0001:000177a0       _DevPathSerialLun          000287a0 f   UefiShellCommandLib:ConsistMapping.obj
 0001:000177f5       _DevPathSerialSata         000287f5 f   UefiShellCommandLib:ConsistMapping.obj
 0001:00017875       _DevPathSerialIScsi        00028875 f   UefiShellCommandLib:ConsistMapping.obj
 0001:000178b9       _DevPathSerialI2O          000288b9 f   UefiShellCommandLib:ConsistMapping.obj
 0001:0001790c       _DevPathSerialMacAddr      0002890c f   UefiShellCommandLib:ConsistMapping.obj
 0001:000179a8       _DevPathSerialInfiniBand   000289a8 f   UefiShellCommandLib:ConsistMapping.obj
 0001:00017a61       _DevPathSerialIPv4         00028a61 f   UefiShellCommandLib:ConsistMapping.obj
 0001:00017b3a       _DevPathSerialIPv6         00028b3a f   UefiShellCommandLib:ConsistMapping.obj
 0001:00017c19       _DevPathSerialScsi         00028c19 f   UefiShellCommandLib:ConsistMapping.obj
 0001:00017c83       _DevPathSerial1394         00028c83 f   UefiShellCommandLib:ConsistMapping.obj
 0001:00017cf0       _DevPathSerialAcpi         00028cf0 f   UefiShellCommandLib:ConsistMapping.obj
 0001:00017d69       _GetHIDevicePath           00028d69 f   UefiShellCommandLib:ConsistMapping.obj
 0001:00017e5a       _GetDeviceConsistMappingInfo 00028e5a f   UefiShellCommandLib:ConsistMapping.obj
 0001:00017f46       _ShellCommandConsistMappingInitialize 00028f46 f   UefiShellCommandLib:ConsistMapping.obj
 0001:000180b3       _ShellCommandConsistMappingUnInitialize 000290b3 f   UefiShellCommandLib:ConsistMapping.obj
 0001:000180f3       _ShellCommandConsistMappingGenMappingName 000290f3 f   UefiShellCommandLib:ConsistMapping.obj
 0001:00018272       _ShellCommandFindMapItem   00029272 f   UefiShellCommandLib:ConsistMapping.obj
 0001:000182ba       _ShellCommandGetManFileNameLevel2 000292ba f   UefiShellLevel2CommandsLib:UefiShellLevel2CommandsLib.obj
 0001:000182c0       _ShellLevel2CommandsLibConstructor 000292c0 f   UefiShellLevel2CommandsLib:UefiShellLevel2CommandsLib.obj
 0001:000185a9       _GetFullyQualifiedPath     000295a9 f   UefiShellLevel2CommandsLib:UefiShellLevel2CommandsLib.obj
 0001:0001864d       _VerifyIntermediateDirectories 0002964d f   UefiShellLevel2CommandsLib:UefiShellLevel2CommandsLib.obj
 0001:00018722       _StrniCmp                  00029722 f   UefiShellLevel2CommandsLib:UefiShellLevel2CommandsLib.obj
 0001:00018796       _ShellLevel2StripQuotes    00029796 f   UefiShellLevel2CommandsLib:UefiShellLevel2CommandsLib.obj
 0001:000187f6       _IsDirectoryEmpty          000297f6 f   UefiShellLevel2CommandsLib:Rm.obj
 0001:00018860       _CascadeDelete             00029860 f   UefiShellLevel2CommandsLib:Rm.obj
 0001:00018ba3       _IsValidDeleteTarget       00029ba3 f   UefiShellLevel2CommandsLib:Rm.obj
 0001:00018cab       _ShellCommandRunRm         00029cab f   UefiShellLevel2CommandsLib:Rm.obj
 0001:00018efa       _PrintAllShellEnvVars      00029efa f   UefiShellLevel2CommandsLib:Set.obj
 0001:00018f47       _ShellCommandRunSet        00029f47 f   UefiShellLevel2CommandsLib:Set.obj
 0001:000191fc       _HandleVol                 0002a1fc f   UefiShellLevel2CommandsLib:Vol.obj
 0001:000195c8       _ShellCommandRunVol        0002a5c8 f   UefiShellLevel2CommandsLib:Vol.obj
 0001:00019865       _ShellCommandRunReset      0002a865 f   UefiShellLevel2CommandsLib:Reset.obj
 0001:00019b42       _IsNumberLetterOnly        0002ab42 f   UefiShellLevel2CommandsLib:Map.obj
 0001:00019b83       _SearchList                0002ab83 f   UefiShellLevel2CommandsLib:Map.obj
 0001:00019c8c       _GetDeviceMediaType        0002ac8c f   UefiShellLevel2CommandsLib:Map.obj
 0001:00019d00       _IsRemoveableDevice        0002ad00 f   UefiShellLevel2CommandsLib:Map.obj
 0001:00019d41       _MappingListHasType        0002ad41 f   UefiShellLevel2CommandsLib:Map.obj
 0001:00019ea7       _PerformSingleMappingDisplay 0002aea7 f   UefiShellLevel2CommandsLib:Map.obj
 0001:0001a1b9       _PerformSingleMappingDelete 0002b1b9 f   UefiShellLevel2CommandsLib:Map.obj
 0001:0001a214       _PerformMappingDisplay     0002b214 f   UefiShellLevel2CommandsLib:Map.obj
 0001:0001a4e2       _PerformMappingDisplay2    0002b4e2 f   UefiShellLevel2CommandsLib:Map.obj
 0001:0001a5e1       _PerformMappingDelete      0002b5e1 f   UefiShellLevel2CommandsLib:Map.obj
 0001:0001a765       _AddMappingFromMapping     0002b765 f   UefiShellLevel2CommandsLib:Map.obj
 0001:0001a82a       _AddMappingFromHandle      0002b82a f   UefiShellLevel2CommandsLib:Map.obj
 0001:0001a914       _ProbeForMediaChange       0002b914 f   UefiShellLevel2CommandsLib:Map.obj
 0001:0001a985       _ShellCommandRunMap        0002b985 f   UefiShellLevel2CommandsLib:Map.obj
 0001:0001ae54       _ReplaceDriveWithCwd       0002be54 f   UefiShellLevel2CommandsLib:Cd.obj
 0001:0001af0c       _IsCurrentFileSystem       0002bf0c f   UefiShellLevel2CommandsLib:Cd.obj
 0001:0001af70       _ExtractDriveAndPath       0002bf70 f   UefiShellLevel2CommandsLib:Cd.obj
 0001:0001b035       _ShellCommandRunCd         0002c035 f   UefiShellLevel2CommandsLib:Cd.obj
 0001:0001b3ee       _CopySingleFile            0002c3ee f   UefiShellLevel2CommandsLib:Cp.obj
 0001:0001b7c3       _ValidateAndCopyFiles      0002c7c3 f   UefiShellLevel2CommandsLib:Cp.obj
 0001:0001bf11       _ProcessValidateAndCopyFiles 0002cf11 f   UefiShellLevel2CommandsLib:Cp.obj
 0001:0001c072       _ShellCommandRunCp         0002d072 f   UefiShellLevel2CommandsLib:Cp.obj
 0001:0001c404       _InternalIsTimeLikeString  0002d404 f   UefiShellLevel2CommandsLib:TimeDate.obj
 0001:0001c455       _CheckAndSetDate           0002d455 f   UefiShellLevel2CommandsLib:TimeDate.obj
 0001:0001c5cb       _ShellCommandRunDate       0002d5cb f   UefiShellLevel2CommandsLib:TimeDate.obj
 0001:0001c7d5       _CheckAndSetTime           0002d7d5 f   UefiShellLevel2CommandsLib:TimeDate.obj
 0001:0001c98f       _ShellCommandRunTime       0002d98f f   UefiShellLevel2CommandsLib:TimeDate.obj
 0001:0001ce34       _CheckAndSetTimeZone       0002de34 f   UefiShellLevel2CommandsLib:TimeDate.obj
 0001:0001cff8       _ShellCommandRunTimeZone   0002dff8 f   UefiShellLevel2CommandsLib:TimeDate.obj
 0001:0001d342       _IsBetweenFileSystem       0002e342 f   UefiShellLevel2CommandsLib:Mv.obj
 0001:0001d3c6       _IsSoucePathValid          0002e3c6 f   UefiShellLevel2CommandsLib:Mv.obj
 0001:0001d4c1       _IsValidMove               0002e4c1 f   UefiShellLevel2CommandsLib:Mv.obj
 0001:0001d619       _GetDestinationLocation    0002e619 f   UefiShellLevel2CommandsLib:Mv.obj
 0001:0001d90a       _MoveBetweenFileSystems    0002e90a f   UefiShellLevel2CommandsLib:Mv.obj
 0001:0001d965       _CreateFullDestPath        0002e965 f   UefiShellLevel2CommandsLib:Mv.obj
 0001:0001d9f7       _MoveWithinFileSystems     0002e9f7 f   UefiShellLevel2CommandsLib:Mv.obj
 0001:0001db0f       _ValidateAndMoveFiles      0002eb0f f   UefiShellLevel2CommandsLib:Mv.obj
 0001:0001e07d       _ShellCommandRunMv         0002f07d f   UefiShellLevel2CommandsLib:Mv.obj
 0001:0001e3d8       _PrintSfoVolumeInfoTableEntry 0002f3d8 f   UefiShellLevel2CommandsLib:Ls.obj
 0001:0001e5e9       _PrintFileInformation      0002f5e9 f   UefiShellLevel2CommandsLib:Ls.obj
 0001:0001e881       _FileTimeToLocalTime       0002f881 f   UefiShellLevel2CommandsLib:Ls.obj
 0001:0001e9fc       _PrintLsOutput             0002f9fc f   UefiShellLevel2CommandsLib:Ls.obj
 0001:0001ef1d       _ShellCommandRunLs         0002ff1d f   UefiShellLevel2CommandsLib:Ls.obj
 0001:0001f411       _ShellCommandRunMkDir      00030411 f   UefiShellLevel2CommandsLib:MkDir.obj
 0001:0001f677       _ShellCommandRunAttrib     00030677 f   UefiShellLevel2CommandsLib:Attrib.obj
 0001:0001fc2c       _IsStdInDataAvailable      00030c2c f   UefiShellLevel2CommandsLib:Parse.obj
 0001:0001fcc4       _HandleStringWithEscapeCharForParse 00030cc4 f   UefiShellLevel2CommandsLib:Parse.obj
 0001:0001fd2b       _PerformParsing            00030d2b f   UefiShellLevel2CommandsLib:Parse.obj
 0001:0001ffc7       _ShellCommandRunParse      00030fc7 f   UefiShellLevel2CommandsLib:Parse.obj
 0001:000201a2       _ConnectAllEfi             000311a2 f   UefiShellLevel2CommandsLib:Load.obj
 0001:00020201       _LoadDriver                00031201 f   UefiShellLevel2CommandsLib:Load.obj
 0001:000203aa       _ShellCommandRunLoad       000313aa f   UefiShellLevel2CommandsLib:Load.obj
 0001:000205da       _ShellCommandGetManFileNameLevel1 000315da f   UefiShellLevel1CommandsLib:UefiShellLevel1CommandsLib.obj
 0001:000205e0       _ShellLevel1CommandsLibConstructor 000315e0 f   UefiShellLevel1CommandsLib:UefiShellLevel1CommandsLib.obj
 0001:0002071a       _TestNodeForMove           0003171a f   UefiShellLevel1CommandsLib:UefiShellLevel1CommandsLib.obj
 0001:0002082c       _MoveToTag                 0003182c f   UefiShellLevel1CommandsLib:UefiShellLevel1CommandsLib.obj
 0001:00020908       _IsNextFragment            00031908 f   UefiShellLevel1CommandsLib:If.obj
 0001:00020996       _IsValidProfile            00031996 f   UefiShellLevel1CommandsLib:If.obj
 0001:000209ed       _TestOperation             000319ed f   UefiShellLevel1CommandsLib:If.obj
 0001:00020e01       _ProcessStatement          00031e01 f   UefiShellLevel1CommandsLib:If.obj
 0001:00021830       _BuildNextStatement        00032830 f   UefiShellLevel1CommandsLib:If.obj
 0001:000218dc       _MoveToTagSpecial          000328dc f   UefiShellLevel1CommandsLib:If.obj
 0001:000219f8       _PerformResultOperation    000329f8 f   UefiShellLevel1CommandsLib:If.obj
 0001:00021a16       _ShellCommandRunIf         00032a16 f   UefiShellLevel1CommandsLib:If.obj
 0001:00021dac       _ShellCommandRunElse       00032dac f   UefiShellLevel1CommandsLib:If.obj
 0001:00021ef6       _ShellCommandRunEndIf      00032ef6 f   UefiShellLevel1CommandsLib:If.obj
 0001:00021fe3       _ShellCommandRunGoto       00032fe3 f   UefiShellLevel1CommandsLib:Goto.obj
 0001:000221dc       _ShellCommandRunStall      000331dc f   UefiShellLevel1CommandsLib:Stall.obj
 0001:00022387       _ShellCommandRunExit       00033387 f   UefiShellLevel1CommandsLib:Exit.obj
 0001:0002250b       _ShellCommandRunShift      0003350b f   UefiShellLevel1CommandsLib:Shift.obj
 0001:000225f1       _ShellIsValidForNumber     000335f1 f   UefiShellLevel1CommandsLib:For.obj
 0001:0002266c       _ShellCommandRunEndFor     0003366c f   UefiShellLevel1CommandsLib:For.obj
 0001:00022757       _InternalUpdateAliasOnList 00033757 f   UefiShellLevel1CommandsLib:For.obj
 0001:0002288e       _InternalIsAliasOnList     0003388e f   UefiShellLevel1CommandsLib:For.obj
 0001:0002291d       _InternalRemoveAliasFromList 0003391d f   UefiShellLevel1CommandsLib:For.obj
 0001:000229ca       _ReturnUintn               000339ca f   UefiShellLevel1CommandsLib:For.obj
 0001:000229ed       _ShellCommandRunFor        000339ed f   UefiShellLevel1CommandsLib:For.obj
 0001:000234b3       _ShellCommandGetManFileNameLevel3 000344b3 f   UefiShellLevel3CommandsLib:UefiShellLevel3CommandsLib.obj
 0001:000234b9       _ShellLevel3CommandsLibConstructor 000344b9 f   UefiShellLevel3CommandsLib:UefiShellLevel3CommandsLib.obj
 0001:00023604       _ShellCommandRunEcho       00034604 f   UefiShellLevel3CommandsLib:Echo.obj
 0001:000237e1       _TouchFileByHandle         000347e1 f   UefiShellLevel3CommandsLib:Touch.obj
 0001:00023861       _DoTouchByHandle           00034861 f   UefiShellLevel3CommandsLib:Touch.obj
 0001:00023a0c       _ShellCommandRunTouch      00034a0c f   UefiShellLevel3CommandsLib:Touch.obj
 0001:00023ce2       _ShellCommandRunGetMtc     00034ce2 f   UefiShellLevel3CommandsLib:GetMtc.obj
 0001:00023e3d       _ShellCommandRunVer        00034e3d f   UefiShellLevel3CommandsLib:Ver.obj
 0001:000240b5       _TypeFileByHandle          000350b5 f   UefiShellLevel3CommandsLib:Type.obj
 0001:000242a3       _ShellCommandRunType       000352a3 f   UefiShellLevel3CommandsLib:Type.obj
 0001:0002462e       _ShellCommandRunPause      0003562e f   UefiShellLevel3CommandsLib:Pause.obj
 0001:000247fa       _ShellCommandRunCls        000357fa f   UefiShellLevel3CommandsLib:Cls.obj
 0001:00024bba       _PrintSingleShellAlias     00035bba f   UefiShellLevel3CommandsLib:Alias.obj
 0001:00024c38       _PrintAllShellAlias        00035c38 f   UefiShellLevel3CommandsLib:Alias.obj
 0001:00024cb1       _ShellLevel3CommandsLibSetAlias 00035cb1 f   UefiShellLevel3CommandsLib:Alias.obj
 0001:00024d20       _ShellCommandRunAlias      00035d20 f   UefiShellLevel3CommandsLib:Alias.obj
 0001:00024f92       _LexicalInsertIntoList     00035f92 f   UefiShellLevel3CommandsLib:Help.obj
 0001:00025079       _CopyListOfCommandNames    00036079 f   UefiShellLevel3CommandsLib:Help.obj
 0001:00025148       _PrintDynamicCommandHelp   00036148 f   UefiShellLevel3CommandsLib:Help.obj
 0001:0002528c       _ShellCommandRunHelp       0003628c f   UefiShellLevel3CommandsLib:Help.obj
 0001:0002571f       _ShellCommandGetManFileNameDriver1 0003671f f   UefiShellDriver1CommandsLib:UefiShellDriver1CommandsLib.obj
 0001:00025725       _UefiShellDriver1CommandsLibConstructor 00036725 f   UefiShellDriver1CommandsLib:UefiShellDriver1CommandsLib.obj
 0001:00025898       _DoDiagnostics             00036898 f   UefiShellDriver1CommandsLib:DrvDiag.obj
 0001:00025dd7       _ShellCommandRunDrvDiag    00036dd7 f   UefiShellDriver1CommandsLib:DrvDiag.obj
 0001:00026174       _DisconnectAll             00037174 f   UefiShellDriver1CommandsLib:Disconnect.obj
 0001:000261d1       _ShellCommandRunDisconnect 000371d1 f   UefiShellDriver1CommandsLib:Disconnect.obj
 0001:0002657b       _ConnectAllConsoles        0003757b f   UefiShellDriver1CommandsLib:Reconnect.obj
 0001:000265b7       _ShellCommandRunReconnect  000375b7 f   UefiShellDriver1CommandsLib:Reconnect.obj
 0001:000266cd       _FindHiiHandleViaDevPath   000376cd f   UefiShellDriver1CommandsLib:DrvCfg.obj
 0001:000268c8       _ConvertHandleToHiiHandle  000378c8 f   UefiShellDriver1CommandsLib:DrvCfg.obj
 0001:0002692f       _ConfigToFile              0003792f f   UefiShellDriver1CommandsLib:DrvCfg.obj
 0001:00026add       _ConfigFromFile            00037add f   UefiShellDriver1CommandsLib:DrvCfg.obj
 0001:00026e03       _ShellCmdDriverConfigurationProcessActionRequired 00037e03 f   UefiShellDriver1CommandsLib:DrvCfg.obj
 0001:00026f8e       _PreHiiDrvCfg              00037f8e f   UefiShellDriver1CommandsLib:DrvCfg.obj
 0001:0002770f       _PrintConfigInfoOnAll      0003870f f   UefiShellDriver1CommandsLib:DrvCfg.obj
 0001:000277ab       _ShellCommandRunDrvCfg     000387ab f   UefiShellDriver1CommandsLib:DrvCfg.obj
 0001:00027e4f       _TraverseHandleDatabase    00038e4f f   UefiShellDriver1CommandsLib:OpenInfo.obj
 0001:00028067       _ShellCommandRunOpenInfo   00039067 f   UefiShellDriver1CommandsLib:OpenInfo.obj
 0001:0002823b       _ShellCommandRunUnload     0003923b f   UefiShellDriver1CommandsLib:Unload.obj
 0001:000284c6       _GetDeviceHandleInfo       000394c6 f   UefiShellDriver1CommandsLib:Devices.obj
 0001:0002867a       _ShellCommandRunDevices    0003967a f   UefiShellDriver1CommandsLib:Devices.obj
 0001:000289a7       _GetDevicePathTextForHandle 000399a7 f   UefiShellDriver1CommandsLib:Drivers.obj
 0001:00028a90       _ReturnDriverDiag          00039a90 f   UefiShellDriver1CommandsLib:Drivers.obj
 0001:00028ae3       _GetImageNameFromHandle    00039ae3 f   UefiShellDriver1CommandsLib:Drivers.obj
 0001:00028bdc       _ShellCommandRunDrivers    00039bdc f   UefiShellDriver1CommandsLib:Drivers.obj
 0001:00029074       _IsValidGuidString         0003a074 f   UefiShellDriver1CommandsLib:Dh.obj
 0001:000290dd       _HexCharToDecimal          0003a0dd f   UefiShellDriver1CommandsLib:Dh.obj
 0001:00029101       _ConvertStrToGuid          0003a101 f   UefiShellDriver1CommandsLib:Dh.obj
 0001:000291b0       _GetDriverName             0003a1b0 f   UefiShellDriver1CommandsLib:Dh.obj
 0001:0002925b       _GetProtocolInfoString     0003a25b f   UefiShellDriver1CommandsLib:Dh.obj
 0001:000294fb       _GetDriverImageName        0003a4fb f   UefiShellDriver1CommandsLib:Dh.obj
 0001:00029550       _DisplayDriverModelHandle  0003a550 f   UefiShellDriver1CommandsLib:Dh.obj
 0001:00029cc0       _DoDhByHandle              0003acc0 f   UefiShellDriver1CommandsLib:Dh.obj
 0001:00029e0d       _DoDhByProtocolGuid        0003ae0d f   UefiShellDriver1CommandsLib:Dh.obj
 0001:00029eb7       _DoDhByProtocol            0003aeb7 f   UefiShellDriver1CommandsLib:Dh.obj
 0001:00029f2a       _DoDecodeByProtocol        0003af2a f   UefiShellDriver1CommandsLib:Dh.obj
 0001:0002a0a5       _ShellCommandRunDh         0003b0a5 f   UefiShellDriver1CommandsLib:Dh.obj
 0001:0002a3c1       _DoDevTreeForHandle        0003b3c1 f   UefiShellDriver1CommandsLib:DevTree.obj
 0001:0002a562       _ShellCommandRunDevTree    0003b562 f   UefiShellDriver1CommandsLib:DevTree.obj
 0001:0002a856       _ShellConnectDevicePath    0003b856 f   UefiShellDriver1CommandsLib:Connect.obj
 0001:0002a8d3       _ShellConnectPciRootBridge 0003b8d3 f   UefiShellDriver1CommandsLib:Connect.obj
 0001:0002a935       _ConnectControllers        0003b935 f   UefiShellDriver1CommandsLib:Connect.obj
 0001:0002aa69       _ShellConnectFromDevPaths  0003ba69 f   UefiShellDriver1CommandsLib:Connect.obj
 0001:0002ac5c       _ConvertAndConnectControllers 0003bc5c f   UefiShellDriver1CommandsLib:Connect.obj
 0001:0002ace4       _ShellCommandRunConnect    0003bce4 f   UefiShellDriver1CommandsLib:Connect.obj
 0001:0002b0ac       _ShellCommandGetManFileNameDebug1 0003c0ac f   UefiShellDebug1CommandsLib:UefiShellDebug1CommandsLib.obj
 0001:0002b0b2       _UefiShellDebug1CommandsLibConstructor 0003c0b2 f   UefiShellDebug1CommandsLib:UefiShellDebug1CommandsLib.obj
 0001:0002b346       _GetSystemConfigurationTable 0003c346 f   UefiShellDebug1CommandsLib:UefiShellDebug1CommandsLib.obj
 0001:0002b3b6       _EditorClearLine           0003c3b6 f   UefiShellDebug1CommandsLib:UefiShellDebug1CommandsLib.obj
 0001:0002b44a       _IsValidFileName           0003c44a f   UefiShellDebug1CommandsLib:UefiShellDebug1CommandsLib.obj
 0001:0002b4d0       _EditGetDefaultFileName    0003c4d0 f   UefiShellDebug1CommandsLib:UefiShellDebug1CommandsLib.obj
 0001:0002b51d       _ReadFileIntoBuffer        0003c51d f   UefiShellDebug1CommandsLib:UefiShellDebug1CommandsLib.obj
 0001:0002b657       _PciGetClassStrings        0003c657 f   UefiShellDebug1CommandsLib:Pci.obj
 0001:0002b6fd       _PciPrintClassCode         0003c6fd f   UefiShellDebug1CommandsLib:Pci.obj
 0001:0002b761       _ShellCommandRunPci        0003c761 f   UefiShellDebug1CommandsLib:Pci.obj
 0001:0002bf9b       _PciFindProtocolInterface  0003cf9b f   UefiShellDebug1CommandsLib:Pci.obj
 0001:0002c03a       _PciGetProtocolAndResource 0003d03a f   UefiShellDebug1CommandsLib:Pci.obj
 0001:0002c06e       _PciGetNextBusRange        0003d06e f   UefiShellDebug1CommandsLib:Pci.obj
 0001:0002c0ce       _PciExplainPci             0003d0ce f   UefiShellDebug1CommandsLib:Pci.obj
 0001:0002c2bd       _PciExplainStatus          0003d2bd f   UefiShellDebug1CommandsLib:Pci.obj
 0001:0002c471       _PciExplainCommand         0003d471 f   UefiShellDebug1CommandsLib:Pci.obj
 0001:0002c5c9       _LocatePciCapability       0003d5c9 f   UefiShellDebug1CommandsLib:Pci.obj
 0001:0002c609       _ExplainPcieCapReg         0003d609 f   UefiShellDebug1CommandsLib:Pci.obj
 0001:0002c6ad       _ExplainPcieDeviceCap      0003d6ad f   UefiShellDebug1CommandsLib:Pci.obj
 0001:0002c889       _ExplainPcieDeviceControl  0003d889 f   UefiShellDebug1CommandsLib:Pci.obj
 0001:0002ca23       _ExplainPcieDeviceStatus   0003da23 f   UefiShellDebug1CommandsLib:Pci.obj
 0001:0002cabc       _ExplainPcieLinkCap        0003dabc f   UefiShellDebug1CommandsLib:Pci.obj
 0001:0002cc05       _ExplainPcieLinkControl    0003dc05 f   UefiShellDebug1CommandsLib:Pci.obj
 0001:0002cd22       _ExplainPcieLinkStatus     0003dd22 f   UefiShellDebug1CommandsLib:Pci.obj
 0001:0002cdf4       _ExplainPcieSlotCap        0003ddf4 f   UefiShellDebug1CommandsLib:Pci.obj
 0001:0002cf10       _ExplainPcieSlotControl    0003df10 f   UefiShellDebug1CommandsLib:Pci.obj
 0001:0002d03f       _ExplainPcieSlotStatus     0003e03f f   UefiShellDebug1CommandsLib:Pci.obj
 0001:0002d156       _ExplainPcieRootControl    0003e156 f   UefiShellDebug1CommandsLib:Pci.obj
 0001:0002d1d9       _ExplainPcieRootCap        0003e1d9 f   UefiShellDebug1CommandsLib:Pci.obj
 0001:0002d1f9       _ExplainPcieRootStatus     0003e1f9 f   UefiShellDebug1CommandsLib:Pci.obj
 0001:0002d245       _PrintInterpretedExtendedCompatibilityLinkControl 0003e245 f   UefiShellDebug1CommandsLib:Pci.obj
 0001:0002d28b       _PrintInterpretedExtendedCompatibilityPowerBudgeting 0003e28b f   UefiShellDebug1CommandsLib:Pci.obj
 0001:0002d2d3       _PrintInterpretedExtendedCompatibilityAcs 0003e2d3 f   UefiShellDebug1CommandsLib:Pci.obj
 0001:0002d367       _PrintInterpretedExtendedCompatibilityRcrb 0003e367 f   UefiShellDebug1CommandsLib:Pci.obj
 0001:0002d3b2       _PrintInterpretedExtendedCompatibilityVendorSpecific 0003e3b2 f   UefiShellDebug1CommandsLib:Pci.obj
 0001:0002d3f8       _PrintInterpretedExtendedCompatibilityDynamicPowerAllocation 0003e3f8 f   UefiShellDebug1CommandsLib:Pci.obj
 0001:0002d490       _PrintInterpretedExtendedCompatibilityLinkDeclaration 0003e490 f   UefiShellDebug1CommandsLib:Pci.obj
 0001:0002d517       _PrintInterpretedExtendedCompatibilityAer 0003e517 f   UefiShellDebug1CommandsLib:Pci.obj
 0001:0002d58c       _PrintInterpretedExtendedCompatibilityMulticast 0003e58c f   UefiShellDebug1CommandsLib:Pci.obj
 0001:0002d5ed       _PrintInterpretedExtendedCompatibilityVirtualChannel 0003e5ed f   UefiShellDebug1CommandsLib:Pci.obj
 0001:0002d6a7       _PrintInterpretedExtendedCompatibilityResizeableBar 0003e6a7 f   UefiShellDebug1CommandsLib:Pci.obj
 0001:0002d724       _PrintInterpretedExtendedCompatibilityTph 0003e724 f   UefiShellDebug1CommandsLib:Pci.obj
 0001:0002d794       _PrintInterpretedExtendedCompatibilitySecondary 0003e794 f   UefiShellDebug1CommandsLib:Pci.obj
 0001:0002d80b       _PrintPciExtendedCapabilityDetails 0003e80b f   UefiShellDebug1CommandsLib:Pci.obj
 0001:0002d9e7       _PciExplainPciExpress      0003e9e7 f   UefiShellDebug1CommandsLib:Pci.obj
 0001:0002db05       _PrintDifferentPoint       0003eb05 f   UefiShellDebug1CommandsLib:Comp.obj
 0001:0002dbfa       _ShellCommandRunComp       0003ebfa f   UefiShellDebug1CommandsLib:Comp.obj
 0001:0002e535       _ShellCommandRunEdit       0003f535 f   UefiShellDebug1CommandsLib:Edit.obj
 0001:0002e7fc       _DisplayMmioMemory         0003f7fc f   UefiShellDebug1CommandsLib:Dmem.obj
 0001:0002e8c3       _ShellCommandRunDmem       0003f8c3 f   UefiShellDebug1CommandsLib:Dmem.obj
 0001:0002ecdc       _ShellCommandRunLoadPciRom 0003fcdc f   UefiShellDebug1CommandsLib:LoadPciRom.obj
 0001:0002eff8       _LoadEfiDriversFromRomImage 0003fff8 f   UefiShellDebug1CommandsLib:LoadPciRom.obj
 0001:0002f2e7       _AddMemoryLength           000402e7 f   UefiShellDebug1CommandsLib:MemMap.obj
 0001:0002f35d       _ShellCommandRunMemMap     0004035d f   UefiShellDebug1CommandsLib:MemMap.obj
 0001:00030519       _IsStringOfHexNibbles      00041519 f   UefiShellDebug1CommandsLib:SetVar.obj
 0001:0003053f       _TestDataType              0004153f f   UefiShellDebug1CommandsLib:SetVar.obj
 0001:000305e2       _ParseParameterData        000415e2 f   UefiShellDebug1CommandsLib:SetVar.obj
 0001:0003082a       _GetVariableDataFromParameter 0004182a f   UefiShellDebug1CommandsLib:SetVar.obj
 0001:000309bb       _ShellCommandRunSetVar     000419bb f   UefiShellDebug1CommandsLib:SetVar.obj
 0001:00030dab       _GetAttrType               00041dab f   UefiShellDebug1CommandsLib:DmpStore.obj
 0001:00030e94       _BinaryToHexString         00041e94 f   UefiShellDebug1CommandsLib:DmpStore.obj
 0001:00030f16       _LoadVariablesFromFile     00041f16 f   UefiShellDebug1CommandsLib:DmpStore.obj
 0001:000312fa       _AppendSingleVariableToFile 000422fa f   UefiShellDebug1CommandsLib:DmpStore.obj
 0001:000313c8       _CascadeProcessVariables   000423c8 f   UefiShellDebug1CommandsLib:DmpStore.obj
 0001:000317de       _ProcessVariables          000427de f   UefiShellDebug1CommandsLib:DmpStore.obj
 0001:00031964       _ShellCommandRunDmpStore   00042964 f   UefiShellDebug1CommandsLib:DmpStore.obj
 0001:00031e67       _ShellCommandRunSmbiosView 00042e67 f   UefiShellDebug1CommandsLib:SmbiosView.obj
 0001:0003222a       _SMBiosView                0004322a f   UefiShellDebug1CommandsLib:SmbiosView.obj
 0001:000324b4       _SMBios64View              000434b4 f   UefiShellDebug1CommandsLib:SmbiosView.obj
 0001:0003273d       _InitSmbiosTableStatistics 0004373d f   UefiShellDebug1CommandsLib:SmbiosView.obj
 0001:00032871       _CalculateSmbios64BitStructureCountAndLength 00043871 f   UefiShellDebug1CommandsLib:SmbiosView.obj
 0001:000328eb       _InitSmbios64BitTableStatistics 000438eb f   UefiShellDebug1CommandsLib:SmbiosView.obj
 0001:00032a4e       _DisplayStatisticsTable    00043a4e f   UefiShellDebug1CommandsLib:SmbiosView.obj
 0001:00032b8d       _DisplaySmbios64BitStatisticsTable 00043b8d f   UefiShellDebug1CommandsLib:SmbiosView.obj
 0001:00032cce       _GetShowTypeString         00043cce f   UefiShellDebug1CommandsLib:SmbiosView.obj
 0001:00032d0a       _ShellCommandRunEfiCompress 00043d0a f   UefiShellDebug1CommandsLib:EfiCompress.obj
 0001:0003319f       _DisplaySettings           0004419f f   UefiShellDebug1CommandsLib:SerMode.obj
 0001:00033368       _ShellCommandRunSerMode    00044368 f   UefiShellDebug1CommandsLib:SerMode.obj
 0001:000337c7       _ShellCommandRunHexEdit    000447c7 f   UefiShellDebug1CommandsLib:HexEdit.obj
 0001:00033d76       _ShellCommandRunSetSize    00044d76 f   UefiShellDebug1CommandsLib:SetSize.obj
 0001:00034038       _DisplayTheBlocks          00045038 f   UefiShellDebug1CommandsLib:Dblk.obj
 0001:000341a8       _ShellCommandRunDblk       000451a8 f   UefiShellDebug1CommandsLib:Dblk.obj
 0001:000344b7       _ShellCommandRunEfiDecompress 000454b7 f   UefiShellDebug1CommandsLib:EfiDecompress.obj
 0001:00034a09       _ShellCommandRunMode       00045a09 f   UefiShellDebug1CommandsLib:Mode.obj
 0001:00034d1f       _ShellMmDecodePciAddress   00045d1f f   UefiShellDebug1CommandsLib:Mm.obj
 0001:00034def       _ShellMmAccess             00045def f   UefiShellDebug1CommandsLib:Mm.obj
 0001:0003528e       _ShellMmLocateIoProtocol   0004628e f   UefiShellDebug1CommandsLib:Mm.obj
 0001:0003544e       _ShellCommandRunMm         0004644e f   UefiShellDebug1CommandsLib:Mm.obj
 0001:00035b17       _FileBufferInit            00046b17 f   UefiShellDebug1CommandsLib:FileBuffer.obj
 0001:00035ba1       _FileBufferBackup          00046ba1 f   UefiShellDebug1CommandsLib:FileBuffer.obj
 0001:00035c3b       _InternalEditorMiscLineAdvance 00046c3b f   UefiShellDebug1CommandsLib:FileBuffer.obj
 0001:00035c8d       _InternalEditorMiscLineRetreat 00046c8d f   UefiShellDebug1CommandsLib:FileBuffer.obj
 0001:00035cdf       _MoveLine                  00046cdf f   UefiShellDebug1CommandsLib:FileBuffer.obj
 0001:00035d14       _FileBufferRestoreMousePosition 00046d14 f   UefiShellDebug1CommandsLib:FileBuffer.obj
 0001:00035ef9       _FileBufferFreeLines       00046ef9 f   UefiShellDebug1CommandsLib:FileBuffer.obj
 0001:00035f62       _FileBufferPrintLine       00046f62 f   UefiShellDebug1CommandsLib:FileBuffer.obj
 0001:0003602e       _FileBufferRestorePosition 0004702e f   UefiShellDebug1CommandsLib:FileBuffer.obj
 0001:0003604c       _FileBufferRefresh         0004704c f   UefiShellDebug1CommandsLib:FileBuffer.obj
 0001:000361ca       _FileBufferCreateLine      000471ca f   UefiShellDebug1CommandsLib:FileBuffer.obj
 0001:00036253       _FileBufferSetFileName     00047253 f   UefiShellDebug1CommandsLib:FileBuffer.obj
 0001:000362a1       _FileBufferRead            000472a1 f   UefiShellDebug1CommandsLib:FileBuffer.obj
 0001:000367d3       _GetNewLine                000477d3 f   UefiShellDebug1CommandsLib:FileBuffer.obj
 0001:00036878       _FileBufferSave            00047878 f   UefiShellDebug1CommandsLib:FileBuffer.obj
 0001:00036bf3       _FileBufferScrollLeft      00047bf3 f   UefiShellDebug1CommandsLib:FileBuffer.obj
 0001:00036c50       _LineCat                   00047c50 f   UefiShellDebug1CommandsLib:FileBuffer.obj
 0001:00036ca8       _FileBufferDoBackspace     00047ca8 f   UefiShellDebug1CommandsLib:FileBuffer.obj
 0001:00036d70       _FileBufferDoReturn        00047d70 f   UefiShellDebug1CommandsLib:FileBuffer.obj
 0001:00036e8c       _FileBufferDoDelete        00047e8c f   UefiShellDebug1CommandsLib:FileBuffer.obj
 0001:00036f49       _FileBufferScrollRight     00047f49 f   UefiShellDebug1CommandsLib:FileBuffer.obj
 0001:00036f81       _LineStrInsert             00047f81 f   UefiShellDebug1CommandsLib:FileBuffer.obj
 0001:00036fde       _FileBufferAddChar         00047fde f   UefiShellDebug1CommandsLib:FileBuffer.obj
 0001:00037037       _FileBufferDoCharInput     00048037 f   UefiShellDebug1CommandsLib:FileBuffer.obj
 0001:0003707f       _FileBufferScrollDown      0004807f f   UefiShellDebug1CommandsLib:FileBuffer.obj
 0001:000370e2       _FileBufferScrollUp        000480e2 f   UefiShellDebug1CommandsLib:FileBuffer.obj
 0001:0003713f       _FileBufferHandleInput     0004813f f   UefiShellDebug1CommandsLib:FileBuffer.obj
 0001:00037293       _FileBufferMovePosition    00048293 f   UefiShellDebug1CommandsLib:FileBuffer.obj
 0001:000373c2       _FileBufferCutLine         000483c2 f   UefiShellDebug1CommandsLib:FileBuffer.obj
 0001:000374d0       _FileBufferPasteLine       000484d0 f   UefiShellDebug1CommandsLib:FileBuffer.obj
 0001:00037587       _FileBufferSearch          00048587 f   UefiShellDebug1CommandsLib:FileBuffer.obj
 0001:00037650       _FileBufferReplace         00048650 f   UefiShellDebug1CommandsLib:FileBuffer.obj
 0001:00037859       _FileBufferAdjustMousePosition 00048859 f   UefiShellDebug1CommandsLib:FileBuffer.obj
 0001:000378db       _FileBufferReplaceAll      000488db f   UefiShellDebug1CommandsLib:FileBuffer.obj
 0001:00037aed       _MainCommandOpenFile       00048aed f   UefiShellDebug1CommandsLib:MainTextEditor.obj
 0001:00037c6b       _MainCommandSwitchFileType 00048c6b f   UefiShellDebug1CommandsLib:MainTextEditor.obj
 0001:00037c9c       _MainCommandCutLine        00048c9c f   UefiShellDebug1CommandsLib:MainTextEditor.obj
 0001:00037cc5       _MainCommandPasteLine      00048cc5 f   UefiShellDebug1CommandsLib:MainTextEditor.obj
 0001:00037ce0       _MainCommandSearch         00048ce0 f   UefiShellDebug1CommandsLib:MainTextEditor.obj
 0001:00037e3c       _MainCommandSearchReplace  00048e3c f   UefiShellDebug1CommandsLib:MainTextEditor.obj
 0001:0003811f       _MainCommandExit           0004911f f   UefiShellDebug1CommandsLib:MainTextEditor.obj
 0001:000381c9       _MainCommandGotoLine       000491c9 f   UefiShellDebug1CommandsLib:MainTextEditor.obj
 0001:00038244       _MainCommandSaveFile       00049244 f   UefiShellDebug1CommandsLib:MainTextEditor.obj
 0001:0003844f       _MainCommandDisplayHelp    0004944f f   UefiShellDebug1CommandsLib:MainTextEditor.obj
 0001:000384c3       _MainEditorInit            000494c3 f   UefiShellDebug1CommandsLib:MainTextEditor.obj
 0001:000386ad       _MainEditorCleanup         000496ad f   UefiShellDebug1CommandsLib:MainTextEditor.obj
 0001:0003879b       _MainEditorRefresh         0004979b f   UefiShellDebug1CommandsLib:MainTextEditor.obj
 0001:000388a0       _MainEditorHandleMouseInput 000498a0 f   UefiShellDebug1CommandsLib:MainTextEditor.obj
 0001:000389ba       _MainEditorKeyInput        000499ba f   UefiShellDebug1CommandsLib:MainTextEditor.obj
 0001:00038b20       _StatusBarInit             00049b20 f   UefiShellDebug1CommandsLib:EditStatusBar.obj
 0001:00038b3f       _StatusBarRefresh          00049b3f f   UefiShellDebug1CommandsLib:EditStatusBar.obj
 0001:00038c5a       _StatusBarSetStatusString  00049c5a f   UefiShellDebug1CommandsLib:EditStatusBar.obj
 0001:00038c9f       _SmbiosPrintEPSInfo        00049c9f f   UefiShellDebug1CommandsLib:PrintInfo.obj
 0001:00038e8c       _Smbios64BitPrintEPSInfo   00049e8c f   UefiShellDebug1CommandsLib:PrintInfo.obj
 0001:00038fe7       _SmbiosPrintStructure      00049fe7 f   UefiShellDebug1CommandsLib:PrintInfo.obj
 0001:0003c0fb       _DisplayBiosCharacteristics 0004d0fb f   UefiShellDebug1CommandsLib:PrintInfo.obj
 0001:0003c588       _DisplayBiosCharacteristicsExt1 0004d588 f   UefiShellDebug1CommandsLib:PrintInfo.obj
 0001:0003c6a7       _DisplayBiosCharacteristicsExt2 0004d6a7 f   UefiShellDebug1CommandsLib:PrintInfo.obj
 0001:0003c7c3       _DisplayProcessorFamily    0004d7c3 f   UefiShellDebug1CommandsLib:PrintInfo.obj
 0001:0003d597       _DisplayProcessorFamily2   0004e597 f   UefiShellDebug1CommandsLib:PrintInfo.obj
 0001:0003d693       _DisplayProcessorVoltage   0004e693 f   UefiShellDebug1CommandsLib:PrintInfo.obj
 0001:0003d7be       _DisplayProcessorStatus    0004e7be f   UefiShellDebug1CommandsLib:PrintInfo.obj
 0001:0003d8d3       _DisplayMaxMemoryModuleSize 0004e8d3 f   UefiShellDebug1CommandsLib:PrintInfo.obj
 0001:0003d957       _DisplayMemoryModuleConfigHandles 0004e957 f   UefiShellDebug1CommandsLib:PrintInfo.obj
 0001:0003d9d0       _DisplayMmBankConnections  0004e9d0 f   UefiShellDebug1CommandsLib:PrintInfo.obj
 0001:0003da86       _DisplayMmMemorySize       0004ea86 f   UefiShellDebug1CommandsLib:PrintInfo.obj
 0001:0003db51       _DisplayCacheConfiguration 0004eb51 f   UefiShellDebug1CommandsLib:PrintInfo.obj
 0001:0003dd40       _DisplaySystemSlotId       0004ed40 f   UefiShellDebug1CommandsLib:PrintInfo.obj
 0001:0003de4b       _DisplaySystemBootStatus   0004ee4b f   UefiShellDebug1CommandsLib:PrintInfo.obj
 0001:0003df45       _DisplaySBDSManufactureDate 0004ef45 f   UefiShellDebug1CommandsLib:PrintInfo.obj
 0001:0003dfb9       _DisplaySystemResetCapabilities 0004efb9 f   UefiShellDebug1CommandsLib:PrintInfo.obj
 0001:0003e128       _DisplayHardwareSecuritySettings 0004f128 f   UefiShellDebug1CommandsLib:PrintInfo.obj
 0001:0003e304       _DisplayOBRAConnections    0004f304 f   UefiShellDebug1CommandsLib:PrintInfo.obj
 0001:0003e3a4       _DisplaySPSCharacteristics 0004f3a4 f   UefiShellDebug1CommandsLib:PrintInfo.obj
 0001:0003e61c       _DisplayTpmDeviceCharacteristics 0004f61c f   UefiShellDebug1CommandsLib:PrintInfo.obj
 0001:0003e73a       _LibSmbiosInit             0004f73a f   UefiShellDebug1CommandsLib:LibSmbiosView.obj
 0001:0003e79d       _LibSmbios64BitInit        0004f79d f   UefiShellDebug1CommandsLib:LibSmbiosView.obj
 0001:0003e800       _LibGetSmbiosString        0004f800 f   UefiShellDebug1CommandsLib:LibSmbiosView.obj
 0001:0003e851       _LibGetSmbiosStructure     0004f851 f   UefiShellDebug1CommandsLib:LibSmbiosView.obj
 0001:0003e91b       _LibGetSmbios64BitStructure 0004f91b f   UefiShellDebug1CommandsLib:LibSmbiosView.obj
 0001:0003e9e2       _PutDword                  0004f9e2 f   UefiShellDebug1CommandsLib:Compress.obj
 0001:0003ea32       _AllocateMemory            0004fa32 f   UefiShellDebug1CommandsLib:Compress.obj
 0001:0003eae0       _FreeMemory                0004fae0 f   UefiShellDebug1CommandsLib:Compress.obj
 0001:0003eb8d       _InitSlide                 0004fb8d f   UefiShellDebug1CommandsLib:Compress.obj
 0001:0003ec1c       _Child                     0004fc1c f   UefiShellDebug1CommandsLib:Compress.obj
 0001:0003ec59       _MakeChild                 0004fc59 f   UefiShellDebug1CommandsLib:Compress.obj
 0001:0003ecbc       _Split                     0004fcbc f   UefiShellDebug1CommandsLib:Compress.obj
 0001:0003ed7f       _InsertNode                0004fd7f f   UefiShellDebug1CommandsLib:Compress.obj
 0001:0003efff       _DeleteNode                0004ffff f   UefiShellDebug1CommandsLib:Compress.obj
 0001:0003f1e8       _FreadCrc                  000501e8 f   UefiShellDebug1CommandsLib:Compress.obj
 0001:0003f250       _GetNextMatch              00050250 f   UefiShellDebug1CommandsLib:Compress.obj
 0001:0003f2e7       _DownHeap                  000502e7 f   UefiShellDebug1CommandsLib:Compress.obj
 0001:0003f370       _CountLen                  00050370 f   UefiShellDebug1CommandsLib:Compress.obj
 0001:0003f3ba       _MakeLen                   000503ba f   UefiShellDebug1CommandsLib:Compress.obj
 0001:0003f469       _MakeTree                  00050469 f   UefiShellDebug1CommandsLib:Compress.obj
 0001:0003f606       _PutBits                   00050606 f   UefiShellDebug1CommandsLib:Compress.obj
 0001:0003f690       _CountTFreq                00050690 f   UefiShellDebug1CommandsLib:Compress.obj
 0001:0003f766       _WritePTLen                00050766 f   UefiShellDebug1CommandsLib:Compress.obj
 0001:0003f7df       _WriteCLen                 000507df f   UefiShellDebug1CommandsLib:Compress.obj
 0001:0003f900       _SendBlock                 00050900 f   UefiShellDebug1CommandsLib:Compress.obj
 0001:0003fad5       _HufEncodeStart            00050ad5 f   UefiShellDebug1CommandsLib:Compress.obj
 0001:0003fb16       _CompressOutput            00050b16 f   UefiShellDebug1CommandsLib:Compress.obj
 0001:0003fbd0       _Encode                    00050bd0 f   UefiShellDebug1CommandsLib:Compress.obj
 0001:0003fcfe       _Compress                  00050cfe f   UefiShellDebug1CommandsLib:Compress.obj
 0001:0003fe05       _HMainCommandDisplayHelp   00050e05 f   UefiShellDebug1CommandsLib:MainHexEditor.obj
 0001:0003fe74       _HMainCommandGoToOffset    00050e74 f   UefiShellDebug1CommandsLib:MainHexEditor.obj
 0001:0003ff94       _HMainCommandSaveBuffer    00050f94 f   UefiShellDebug1CommandsLib:MainHexEditor.obj
 0001:00040287       _HMainCommandSelectStart   00051287 f   UefiShellDebug1CommandsLib:MainHexEditor.obj
 0001:000402da       _HMainCommandSelectEnd     000512da f   UefiShellDebug1CommandsLib:MainHexEditor.obj
 0001:00040333       _HMainCommandCut           00051333 f   UefiShellDebug1CommandsLib:MainHexEditor.obj
 0001:000403d5       _HMainCommandPaste         000513d5 f   UefiShellDebug1CommandsLib:MainHexEditor.obj
 0001:00040461       _HMainCommandExit          00051461 f   UefiShellDebug1CommandsLib:MainHexEditor.obj
 0001:00040523       _HMainCommandOpenFile      00051523 f   UefiShellDebug1CommandsLib:MainHexEditor.obj
 0001:0004079f       _HMainCommandOpenDisk      0005179f f   UefiShellDebug1CommandsLib:MainHexEditor.obj
 0001:00040a84       _HMainCommandOpenMemory    00051a84 f   UefiShellDebug1CommandsLib:MainHexEditor.obj
 0001:00040d31       _HMainEditorInit           00051d31 f   UefiShellDebug1CommandsLib:MainHexEditor.obj
 0001:00040f2c       _HMainEditorCleanup        00051f2c f   UefiShellDebug1CommandsLib:MainHexEditor.obj
 0001:00040fec       _HMainEditorRefresh        00051fec f   UefiShellDebug1CommandsLib:MainHexEditor.obj
 0001:000411ce       _HMainEditorHandleMouseInput 000521ce f   UefiShellDebug1CommandsLib:MainHexEditor.obj
 0001:00041395       _HMainEditorKeyInput       00052395 f   UefiShellDebug1CommandsLib:MainHexEditor.obj
 0001:000416b1       _HMainEditorBackup         000526b1 f   UefiShellDebug1CommandsLib:MainHexEditor.obj
 0001:000416cd       _HBufferImageInit          000526cd f   UefiShellDebug1CommandsLib:BufferImage.obj
 0001:000417da       _HBufferImageBackup        000527da f   UefiShellDebug1CommandsLib:BufferImage.obj
 0001:0004185e       _HBufferImageFreeLines     0005285e f   UefiShellDebug1CommandsLib:BufferImage.obj
 0001:000418bf       _HBufferImageCleanup       000528bf f   UefiShellDebug1CommandsLib:BufferImage.obj
 0001:00041938       _HBufferImagePrintLine     00052938 f   UefiShellDebug1CommandsLib:BufferImage.obj
 0001:00041cb9       _HBufferImageIsAtHighBits  00052cb9 f   UefiShellDebug1CommandsLib:BufferImage.obj
 0001:00041ce7       _HBufferImageIsInSelectedArea 00052ce7 f   UefiShellDebug1CommandsLib:BufferImage.obj
 0001:00041d6a       _HBufferImageRestoreMousePosition 00052d6a f   UefiShellDebug1CommandsLib:BufferImage.obj
 0001:00041fc5       _HBufferImageRestorePosition 00052fc5 f   UefiShellDebug1CommandsLib:BufferImage.obj
 0001:00041fe5       _HBufferImageRefresh       00052fe5 f   UefiShellDebug1CommandsLib:BufferImage.obj
 0001:000421df       _HBufferImageRead          000531df f   UefiShellDebug1CommandsLib:BufferImage.obj
 0001:00042242       _HBufferImageSave          00053242 f   UefiShellDebug1CommandsLib:BufferImage.obj
 0001:00042298       _HBufferImageCreateLine    00053298 f   UefiShellDebug1CommandsLib:BufferImage.obj
 0001:00042306       _HBufferImageAddChar       00053306 f   UefiShellDebug1CommandsLib:BufferImage.obj
 0001:000423e9       _HBufferImageDoBackspace   000533e9 f   UefiShellDebug1CommandsLib:BufferImage.obj
 0001:00042464       _HBufferImageDoCharInput   00053464 f   UefiShellDebug1CommandsLib:BufferImage.obj
 0001:000424a6       _HBufferImageMovePosition  000534a6 f   UefiShellDebug1CommandsLib:BufferImage.obj
 0001:00042590       _HBufferImageScrollRight   00053590 f   UefiShellDebug1CommandsLib:BufferImage.obj
 0001:000425d8       _HBufferImageScrollLeft    000535d8 f   UefiShellDebug1CommandsLib:BufferImage.obj
 0001:00042645       _HBufferImageScrollDown    00053645 f   UefiShellDebug1CommandsLib:BufferImage.obj
 0001:000426b9       _HBufferImagePageDown      000536b9 f   UefiShellDebug1CommandsLib:BufferImage.obj
 0001:00042720       _HBufferImageGetTotalSize  00053720 f   UefiShellDebug1CommandsLib:BufferImage.obj
 0001:00042769       _HBufferImageDeleteCharacterFromBuffer 00053769 f   UefiShellDebug1CommandsLib:BufferImage.obj
 0001:000428bd       _HBufferImageAddCharacterToBuffer 000538bd f   UefiShellDebug1CommandsLib:BufferImage.obj
 0001:00042a03       _HBufferImageDoDelete      00053a03 f   UefiShellDebug1CommandsLib:BufferImage.obj
 0001:00042a75       _HBufferImageBufferToList  00053a75 f   UefiShellDebug1CommandsLib:BufferImage.obj
 0001:00042ad6       _HBufferImageListToBuffer  00053ad6 f   UefiShellDebug1CommandsLib:BufferImage.obj
 0001:00042b4b       _HBufferImageAdjustMousePosition 00053b4b f   UefiShellDebug1CommandsLib:BufferImage.obj
 0001:00042bc8       _HBufferImageHandleInput   00053bc8 f   UefiShellDebug1CommandsLib:BufferImage.obj
 0001:00042ce4       _LineDup                   00053ce4 f   UefiShellDebug1CommandsLib:Misc.obj
 0001:00042d42       _LineFree                  00053d42 f   UefiShellDebug1CommandsLib:Misc.obj
 0001:00042d63       _MainTitleBarInit          00053d63 f   UefiShellDebug1CommandsLib:EditTitleBar.obj
 0001:00042db4       _MainTitleBarRefresh       00053db4 f   UefiShellDebug1CommandsLib:EditTitleBar.obj
 0001:00042f47       _MenuBarInit               00053f47 f   UefiShellDebug1CommandsLib:EditMenuBar.obj
 0001:00042fa2       _MenuBarDispatchControlHotKey 00053fa2 f   UefiShellDebug1CommandsLib:EditMenuBar.obj
 0001:00042fc7       _InputBarCleanup           00053fc7 f   UefiShellDebug1CommandsLib:EditInputBar.obj
 0001:00042ffb       _InputBarPrintInput        00053ffb f   UefiShellDebug1CommandsLib:EditInputBar.obj
 0001:000430bd       _InputBarRefresh           000540bd f   UefiShellDebug1CommandsLib:EditInputBar.obj
 0001:00043267       _InputBarSetPrompt         00054267 f   UefiShellDebug1CommandsLib:EditInputBar.obj
 0001:000432a5       _InputBarSetStringSize     000542a5 f   UefiShellDebug1CommandsLib:EditInputBar.obj
 0001:000432e5       _QueryTable                000542e5 f   UefiShellDebug1CommandsLib:QueryTable.obj
 0001:00043366       _PrintBitsInfo             00054366 f   UefiShellDebug1CommandsLib:QueryTable.obj
 0001:0004340f       _DisplaySystemWakeupType   0005440f f   UefiShellDebug1CommandsLib:QueryTable.obj
 0001:00043492       _DisplayBaseBoardFeatureFlags 00054492 f   UefiShellDebug1CommandsLib:QueryTable.obj
 0001:000434da       _DisplayBaseBoardBoardType 000544da f   UefiShellDebug1CommandsLib:QueryTable.obj
 0001:0004355d       _DisplaySystemEnclosureType 0005455d f   UefiShellDebug1CommandsLib:QueryTable.obj
 0001:000435fa       _DisplaySystemEnclosureStatus 000545fa f   UefiShellDebug1CommandsLib:QueryTable.obj
 0001:0004367d       _DisplaySESecurityStatus   0005467d f   UefiShellDebug1CommandsLib:QueryTable.obj
 0001:00043700       _DisplayProcessorType      00054700 f   UefiShellDebug1CommandsLib:QueryTable.obj
 0001:00043783       _DisplayProcessorUpgrade   00054783 f   UefiShellDebug1CommandsLib:QueryTable.obj
 0001:00043806       _DisplayProcessorCharacteristics 00054806 f   UefiShellDebug1CommandsLib:QueryTable.obj
 0001:00043853       _DisplayMcErrorDetectMethod 00054853 f   UefiShellDebug1CommandsLib:QueryTable.obj
 0001:000438d6       _DisplayMcErrorCorrectCapability 000548d6 f   UefiShellDebug1CommandsLib:QueryTable.obj
 0001:0004391e       _DisplayMcInterleaveSupport 0005491e f   UefiShellDebug1CommandsLib:QueryTable.obj
 0001:000439a1       _DisplayMcMemorySpeeds     000549a1 f   UefiShellDebug1CommandsLib:QueryTable.obj
 0001:000439ee       _DisplayMemoryModuleVoltage 000549ee f   UefiShellDebug1CommandsLib:QueryTable.obj
 0001:00043a36       _DisplayMmMemoryType       00054a36 f   UefiShellDebug1CommandsLib:QueryTable.obj
 0001:00043a83       _DisplayMmErrorStatus      00054a83 f   UefiShellDebug1CommandsLib:QueryTable.obj
 0001:00043acb       _DisplayCacheSRAMType      00054acb f   UefiShellDebug1CommandsLib:QueryTable.obj
 0001:00043b1e       _DisplayCacheErrCorrectingType 00054b1e f   UefiShellDebug1CommandsLib:QueryTable.obj
 0001:00043ba1       _DisplayCacheSystemCacheType 00054ba1 f   UefiShellDebug1CommandsLib:QueryTable.obj
 0001:00043c24       _DisplayCacheAssociativity 00054c24 f   UefiShellDebug1CommandsLib:QueryTable.obj
 0001:00043ca7       _DisplayPortConnectorType  00054ca7 f   UefiShellDebug1CommandsLib:QueryTable.obj
 0001:00043d2a       _DisplayPortType           00054d2a f   UefiShellDebug1CommandsLib:QueryTable.obj
 0001:00043dad       _DisplaySystemSlotType     00054dad f   UefiShellDebug1CommandsLib:QueryTable.obj
 0001:00043e30       _DisplaySystemSlotDataBusWidth 00054e30 f   UefiShellDebug1CommandsLib:QueryTable.obj
 0001:00043eb3       _DisplaySystemSlotCurrentUsage 00054eb3 f   UefiShellDebug1CommandsLib:QueryTable.obj
 0001:00043f36       _DisplaySystemSlotLength   00054f36 f   UefiShellDebug1CommandsLib:QueryTable.obj
 0001:00043fb9       _DisplaySlotCharacteristics1 00054fb9 f   UefiShellDebug1CommandsLib:QueryTable.obj
 0001:00044001       _DisplaySlotCharacteristics2 00055001 f   UefiShellDebug1CommandsLib:QueryTable.obj
 0001:00044049       _DisplayOnboardDeviceTypes 00055049 f   UefiShellDebug1CommandsLib:QueryTable.obj
 0001:000440cc       _DisplaySELTypes           000550cc f   UefiShellDebug1CommandsLib:QueryTable.obj
 0001:0004414f       _DisplaySELVarDataFormatType 0005514f f   UefiShellDebug1CommandsLib:QueryTable.obj
 0001:000441d2       _DisplaySELSysManagementTypes 000551d2 f   UefiShellDebug1CommandsLib:QueryTable.obj
 0001:0004428d       _DisplayPMALocation        0005528d f   UefiShellDebug1CommandsLib:QueryTable.obj
 0001:00044310       _DisplayPMAUse             00055310 f   UefiShellDebug1CommandsLib:QueryTable.obj
 0001:00044393       _DisplayPMAErrorCorrectionTypes 00055393 f   UefiShellDebug1CommandsLib:QueryTable.obj
 0001:00044416       _DisplayMemoryDeviceFormFactor 00055416 f   UefiShellDebug1CommandsLib:QueryTable.obj
 0001:00044499       _DisplayMemoryDeviceType   00055499 f   UefiShellDebug1CommandsLib:QueryTable.obj
 0001:0004451c       _DisplayMemoryDeviceTypeDetail 0005551c f   UefiShellDebug1CommandsLib:QueryTable.obj
 0001:00044569       _DisplayMemoryErrorType    00055569 f   UefiShellDebug1CommandsLib:QueryTable.obj
 0001:000445ec       _DisplayMemoryErrorGranularity 000555ec f   UefiShellDebug1CommandsLib:QueryTable.obj
 0001:0004466f       _DisplayMemoryErrorOperation 0005566f f   UefiShellDebug1CommandsLib:QueryTable.obj
 0001:000446f2       _DisplayPointingDeviceType 000556f2 f   UefiShellDebug1CommandsLib:QueryTable.obj
 0001:00044775       _DisplayPointingDeviceInterface 00055775 f   UefiShellDebug1CommandsLib:QueryTable.obj
 0001:000447f8       _DisplayPBDeviceChemistry  000557f8 f   UefiShellDebug1CommandsLib:QueryTable.obj
 0001:0004487b       _DisplayVPLocation         0005587b f   UefiShellDebug1CommandsLib:QueryTable.obj
 0001:000448ff       _DisplayVPStatus           000558ff f   UefiShellDebug1CommandsLib:QueryTable.obj
 0001:00044983       _DisplayCoolingDeviceStatus 00055983 f   UefiShellDebug1CommandsLib:QueryTable.obj
 0001:00044a07       _DisplayCoolingDeviceType  00055a07 f   UefiShellDebug1CommandsLib:QueryTable.obj
 0001:00044a8b       _DisplayTemperatureProbeStatus 00055a8b f   UefiShellDebug1CommandsLib:QueryTable.obj
 0001:00044b0f       _DisplayTemperatureProbeLoc 00055b0f f   UefiShellDebug1CommandsLib:QueryTable.obj
 0001:00044b93       _DisplayECPStatus          00055b93 f   UefiShellDebug1CommandsLib:QueryTable.obj
 0001:00044c17       _DisplayECPLoc             00055c17 f   UefiShellDebug1CommandsLib:QueryTable.obj
 0001:00044c9b       _DisplayMDType             00055c9b f   UefiShellDebug1CommandsLib:QueryTable.obj
 0001:00044d1e       _DisplayMDAddressType      00055d1e f   UefiShellDebug1CommandsLib:QueryTable.obj
 0001:00044da1       _DisplayMemoryChannelType  00055da1 f   UefiShellDebug1CommandsLib:QueryTable.obj
 0001:00044e24       _DisplayIPMIDIBMCInterfaceType 00055e24 f   UefiShellDebug1CommandsLib:QueryTable.obj
 0001:00044ea7       _DisplayMCHostInterfaceType 00055ea7 f   UefiShellDebug1CommandsLib:QueryTable.obj
 0001:00044f2a       _DisplayStructureTypeInfo  00055f2a f   UefiShellDebug1CommandsLib:QueryTable.obj
 0001:00044f8a       _DisplaySELAccessMethod    00055f8a f   UefiShellDebug1CommandsLib:EventLogInfo.obj
 0001:00045008       _DisplaySELLogStatus       00056008 f   UefiShellDebug1CommandsLib:EventLogInfo.obj
 0001:00045096       _DisplaySysEventLogHeaderFormat 00056096 f   UefiShellDebug1CommandsLib:EventLogInfo.obj
 0001:00045101       _DisplaySysEventLogHeaderType1 00056101 f   UefiShellDebug1CommandsLib:EventLogInfo.obj
 0001:00045207       _DisplaySysEventLogHeader  00056207 f   UefiShellDebug1CommandsLib:EventLogInfo.obj
 0001:0004526d       _DisplayElVdfInfo          0005626d f   UefiShellDebug1CommandsLib:EventLogInfo.obj
 0001:000453cd       _DisplaySysEventLogData    000563cd f   UefiShellDebug1CommandsLib:EventLogInfo.obj
 0001:00045528       _HLineAdvance              00056528 f   UefiShellDebug1CommandsLib:Misc.obj
 0001:0004557c       _HLineRetreat              0005657c f   UefiShellDebug1CommandsLib:Misc.obj
 0001:000455d0       _HMoveLine                 000565d0 f   UefiShellDebug1CommandsLib:Misc.obj
 0001:000455ec       _HDiskImageBackup          000565ec f   UefiShellDebug1CommandsLib:DiskImage.obj
 0001:00045640       _HDiskImageSetDiskNameOffsetSize 00056640 f   UefiShellDebug1CommandsLib:DiskImage.obj
 0001:000456ba       _HDiskImageRead            000566ba f   UefiShellDebug1CommandsLib:DiskImage.obj
 0001:0004592b       _HDiskImageSave            0005692b f   UefiShellDebug1CommandsLib:DiskImage.obj
 0001:00045a3f       _HMemImageRead             00056a3f f   UefiShellDebug1CommandsLib:MemImage.obj
 0001:00045ba8       _HMemImageSave             00056ba8 f   UefiShellDebug1CommandsLib:MemImage.obj
 0001:00045c25       _HFileImageBackup          00056c25 f   UefiShellDebug1CommandsLib:FileImage.obj
 0001:00045c66       _HFileImageSetFileName     00056c66 f   UefiShellDebug1CommandsLib:FileImage.obj
 0001:00045ccb       _HFileImageRead            00056ccb f   UefiShellDebug1CommandsLib:FileImage.obj
 0001:00045e66       _HFileImageSave            00056e66 f   UefiShellDebug1CommandsLib:FileImage.obj
 0001:000460c3       _ShellCommandGetManFileNameNetwork1 000570c3 f   UefiShellNetwork1CommandsLib:UefiShellNetwork1CommandsLib.obj
 0001:000460c9       _ShellNetwork1CommandsLibConstructor 000570c9 f   UefiShellNetwork1CommandsLib:UefiShellNetwork1CommandsLib.obj
 0001:0004613b       _NetChecksum               0005713b f   UefiShellNetwork1CommandsLib:Ping.obj
 0001:00046170       _RttTimerTickRoutine       00057170 f   UefiShellNetwork1CommandsLib:Ping.obj
 0001:00046170       _Ping6RttTimerTickRoutine  00057170 f   UefiShellNetwork2CommandsLib:Ping6.obj
 0001:00046177       _Ping6GetTimerPeriod       00057177 f   UefiShellNetwork2CommandsLib:Ping6.obj
 0001:00046177       _GetTimerPeriod            00057177 f   UefiShellNetwork1CommandsLib:Ping.obj
 0001:00046229       _PingInitRttTimer          00057229 f   UefiShellNetwork1CommandsLib:Ping.obj
 0001:00046299       _PingDestroyTxInfo         00057299 f   UefiShellNetwork1CommandsLib:Ping.obj
 0001:0004634d       _Ping6MatchEchoReply       0005734d f   UefiShellNetwork1CommandsLib:Ping.obj
 0001:0004639f       _Ping6OnEchoRequestSent    0005739f f   UefiShellNetwork1CommandsLib:Ping.obj
 0001:0004639f       _Ping6OnEchoRequestSent6   0005739f f   UefiShellNetwork2CommandsLib:Ping6.obj
 0001:000463a0       _Ping6OnEchoReplyReceived  000573a0 f   UefiShellNetwork1CommandsLib:Ping.obj
 0001:0004655b       _PingGenerateToken         0005755b f   UefiShellNetwork1CommandsLib:Ping.obj
 0001:000466c1       _PingSendEchoRequest       000576c1 f   UefiShellNetwork1CommandsLib:Ping.obj
 0001:00046753       _Ping6ReceiveEchoReply     00057753 f   UefiShellNetwork1CommandsLib:Ping.obj
 0001:000467bb       _Ping6OnTimerRoutine       000577bb f   UefiShellNetwork1CommandsLib:Ping.obj
 0001:000468b4       _PingNetIp4IsLinkLocalAddr 000578b4 f   UefiShellNetwork1CommandsLib:Ping.obj
 0001:000468d0       _PingCreateIpInstance      000578d0 f   UefiShellNetwork1CommandsLib:Ping.obj
 0001:00046ded       _Ping6DestroyIp6Instance   00057ded f   UefiShellNetwork1CommandsLib:Ping.obj
 0001:00046e57       _ShellPing                 00057e57 f   UefiShellNetwork1CommandsLib:Ping.obj
 0001:000471b2       _ShellCommandRunPing       000581b2 f   UefiShellNetwork1CommandsLib:Ping.obj
 0001:000473c2       _IfConfig6FreeArgList      000583c2 f   UefiShellNetwork2CommandsLib:Ifconfig6.obj
 0001:000473c2       _FreeArgList               000583c2 f   UefiShellNetwork1CommandsLib:Ifconfig.obj
 0001:000473dc       _SplitStrToList            000583dc f   UefiShellNetwork1CommandsLib:Ifconfig.obj
 0001:00047461       _IfConfigRetriveCheckListByName 00058461 f   UefiShellNetwork1CommandsLib:Ifconfig.obj
 0001:000474e1       _IfConfig6ManualAddressNotify 000584e1 f   UefiShellNetwork2CommandsLib:Ifconfig6.obj
 0001:000474e1       _IfConfigManualAddressNotify 000584e1 f   UefiShellNetwork1CommandsLib:Ifconfig.obj
 0001:000474e9       _IfConfigPrintMacAddr      000584e9 f   UefiShellNetwork1CommandsLib:Ifconfig.obj
 0001:00047569       _IfConfigGetInterfaceInfo  00058569 f   UefiShellNetwork1CommandsLib:Ifconfig.obj
 0001:00047783       _IfConfigShowInterfaceInfo 00058783 f   UefiShellNetwork1CommandsLib:Ifconfig.obj
 0001:00047b0f       _IfConfigClearInterfaceInfo 00058b0f f   UefiShellNetwork1CommandsLib:Ifconfig.obj
 0001:00047bbf       _IfConfigSetInterfaceInfo  00058bbf f   UefiShellNetwork1CommandsLib:Ifconfig.obj
 0001:0004801e       _IfConfig                  0005901e f   UefiShellNetwork1CommandsLib:Ifconfig.obj
 0001:00048062       _IfConfigCleanup           00059062 f   UefiShellNetwork1CommandsLib:Ifconfig.obj
 0001:000480d0       _ShellCommandRunIfconfig   000590d0 f   UefiShellNetwork1CommandsLib:Ifconfig.obj
 0001:00048371       _ShellCommandGetManFileNameNetwork2 00059371 f   UefiShellNetwork2CommandsLib:UefiShellNetwork2CommandsLib.obj
 0001:00048377       _ShellNetwork2CommandsLibConstructor 00059377 f   UefiShellNetwork2CommandsLib:UefiShellNetwork2CommandsLib.obj
 0001:000483e9       _IfConfig6SplitStrToList   000593e9 f   UefiShellNetwork2CommandsLib:Ifconfig6.obj
 0001:0004846e       _IfConfig6RetriveCheckListByName 0005946e f   UefiShellNetwork2CommandsLib:Ifconfig6.obj
 0001:000484ee       _IfConfig6PrintMacAddr     000594ee f   UefiShellNetwork2CommandsLib:Ifconfig6.obj
 0001:0004856e       _IfConfig6PrintIpAddr      0005956e f   UefiShellNetwork2CommandsLib:Ifconfig6.obj
 0001:00048671       _IfConfig6ParseManualAddressList 00059671 f   UefiShellNetwork2CommandsLib:Ifconfig6.obj
 0001:00048782       _IfConfig6ParseGwDnsAddressList 00059782 f   UefiShellNetwork2CommandsLib:Ifconfig6.obj
 0001:0004886e       _IfConfig6ParseInterfaceId 0005986e f   UefiShellNetwork2CommandsLib:Ifconfig6.obj
 0001:00048967       _IfConfig6ParseDadXmits    00059967 f   UefiShellNetwork2CommandsLib:Ifconfig6.obj
 0001:000489b1       _IfConfig6GetInterfaceInfo 000599b1 f   UefiShellNetwork2CommandsLib:Ifconfig6.obj
 0001:00048c7e       _IfConfig6ShowInterfaceInfo 00059c7e f   UefiShellNetwork2CommandsLib:Ifconfig6.obj
 0001:00048e98       _IfConfig6ClearInterfaceInfo 00059e98 f   UefiShellNetwork2CommandsLib:Ifconfig6.obj
 0001:00048f3c       _IfConfig6SetInterfaceInfo 00059f3c f   UefiShellNetwork2CommandsLib:Ifconfig6.obj
 0001:00049536       _IfConfig6                 0005a536 f   UefiShellNetwork2CommandsLib:Ifconfig6.obj
 0001:00049582       _IfConfig6Cleanup          0005a582 f   UefiShellNetwork2CommandsLib:Ifconfig6.obj
 0001:00049601       _ShellCommandRunIfconfig6  0005a601 f   UefiShellNetwork2CommandsLib:Ifconfig6.obj
 0001:000498b6       _Ping6InitRttTimer         0005a8b6 f   UefiShellNetwork2CommandsLib:Ping6.obj
 0001:00049926       _Ping6DestroyTxInfo        0005a926 f   UefiShellNetwork2CommandsLib:Ping6.obj
 0001:000499b3       _Ping6OnMatchEchoReply     0005a9b3 f   UefiShellNetwork2CommandsLib:Ping6.obj
 0001:00049a00       _Ping6OnEchoReplyReceived6 0005aa00 f   UefiShellNetwork2CommandsLib:Ping6.obj
 0001:00049b58       _Ping6GenerateToken        0005ab58 f   UefiShellNetwork2CommandsLib:Ping6.obj
 0001:00049c27       _Ping6SendEchoRequest      0005ac27 f   UefiShellNetwork2CommandsLib:Ping6.obj
 0001:00049c9c       _Ping6OnReceiveEchoReply   0005ac9c f   UefiShellNetwork2CommandsLib:Ping6.obj
 0001:00049cff       _Ping6OnTimerRoutine6      0005acff f   UefiShellNetwork2CommandsLib:Ping6.obj
 0001:00049dd0       _Ping6CreateIpInstance     0005add0 f   UefiShellNetwork2CommandsLib:Ping6.obj
 0001:0004a132       _ShellPing6                0005b132 f   UefiShellNetwork2CommandsLib:Ping6.obj
 0001:0004a4a5       _ShellCommandRunPing6      0005b4a5 f   UefiShellNetwork2CommandsLib:Ping6.obj
 0001:0004a670       _InternalGetReportStatusCode 0005b670 f   DxeReportStatusCodeLib:ReportStatusCodeLib.obj
 0001:0004a6a9       _InternalReportStatusCode  0005b6a9 f   DxeReportStatusCodeLib:ReportStatusCodeLib.obj
 0001:0004a6f0       _ReportStatusCodeEx        0005b6f0 f   DxeReportStatusCodeLib:ReportStatusCodeLib.obj
 0001:0004a840       _CompareMem                0005b840 f   BaseMemoryLibOptDxe:CompareMemWrapper.obj
 0001:0004a8cf       _DivU64x32Remainder        0005b8cf f   BaseLib:DivU64x32Remainder.obj
 0001:0004a90d       _MultU64x64                0005b90d f   BaseLib:MultU64x64.obj
 0001:0004a920       _DivU64x64Remainder        0005b920 f   BaseLib:DivU64x64Remainder.obj
 0001:0004a956       _InternalMathDivRemU64x32  0005b956 f   BaseLib:DivU64x32Remainder.obj
 0001:0004a973       _InternalMathMultU64x64    0005b973 f   BaseLib:MultU64x64.obj
 0001:0004a9a1       _InternalPrint             0005b9a1 f   UefiLib:UefiLibPrint.obj
 0001:0004aa4d       _Print                     0005ba4d f   UefiLib:UefiLibPrint.obj
 0001:0004aa66       _CatVSPrint                0005ba66 f   UefiLib:UefiLibPrint.obj
 0001:0004ab23       _CatSPrint                 0005bb23 f   UefiLib:UefiLibPrint.obj
 0001:0004ab39       _EfiGetNameGuidFromFwVolDevicePathNode 0005bb39 f   UefiLib:UefiNotTiano.obj
 0001:0004ab74       _PeCoffLoaderGetPdbPointer 0005bb74 f   BasePeCoffGetEntryPointLib:PeCoffGetEntryPoint.obj
 0001:0004ac94       _UpdateOptionalData        0005bc94 f   UefiShellBcfgCommandLib:UefiShellBcfgCommandLib.obj
 0001:0004addd       _GetBootOptionCrc          0005bddd f   UefiShellBcfgCommandLib:UefiShellBcfgCommandLib.obj
 0001:0004ae78       _GetDevicePathForDriverHandle 0005be78 f   UefiShellBcfgCommandLib:UefiShellBcfgCommandLib.obj
 0001:0004af34       _GetDevicePathByHandle     0005bf34 f   UefiShellBcfgCommandLib:UefiShellBcfgCommandLib.obj
 0001:0004b044       _BcfgMod                   0005c044 f   UefiShellBcfgCommandLib:UefiShellBcfgCommandLib.obj
 0001:0004b300       _BcfgAdd                   0005c300 f   UefiShellBcfgCommandLib:UefiShellBcfgCommandLib.obj
 0001:0004b7c7       _BcfgRemove                0005c7c7 f   UefiShellBcfgCommandLib:UefiShellBcfgCommandLib.obj
 0001:0004b8f9       _BcfgMove                  0005c8f9 f   UefiShellBcfgCommandLib:UefiShellBcfgCommandLib.obj
 0001:0004b9fb       _BcfgAddOpt                0005c9fb f   UefiShellBcfgCommandLib:UefiShellBcfgCommandLib.obj
 0001:0004c0e8       _BcfgDisplayDump           0005d0e8 f   UefiShellBcfgCommandLib:UefiShellBcfgCommandLib.obj
 0001:0004c2c2       _ShellCommandRunBcfg       0005d2c2 f   UefiShellBcfgCommandLib:UefiShellBcfgCommandLib.obj
 0001:0004cfc4       _ShellCommandGetManFileNameBcfg 0005dfc4 f   UefiShellBcfgCommandLib:UefiShellBcfgCommandLib.obj
 0001:0004cfca       _BcfgLibraryRegisterBcfgCommand 0005dfca f   UefiShellBcfgCommandLib:UefiShellBcfgCommandLib.obj
 0001:0004d01a       _NetIp4IsUnicast           0005e01a f   DxeNetLib:DxeNetLib.obj
 0001:0004d06f       _NetIp6IsUnspecifiedAddr   0005e06f f   DxeNetLib:DxeNetLib.obj
 0001:0004d087       _NetIp6IsLinkLocalAddr     0005e087 f   DxeNetLib:DxeNetLib.obj
 0001:0004d0c8       _NetLibGetSnpHandle        0005e0c8 f   DxeNetLib:DxeNetLib.obj
 0001:0004d158       _NetLibDetectMedia         0005e158 f   DxeNetLib:DxeNetLib.obj
 0001:0004d316       _NetLibStrToIp4            0005e316 f   DxeNetLib:DxeNetLib.obj
 0001:0004d341       _NetLibStrToIp6            0005e341 f   DxeNetLib:DxeNetLib.obj
 0001:0004d36e       _NetLibStrToIp6andPrefix   0005e36e f   DxeNetLib:DxeNetLib.obj
 0001:0004d39a       _EfiBootManagerLoadOptionToVariable 0005e39a f   UefiBootManagerLib:BmLoadOption.obj
 0001:0004d536       _EfiBootManagerInitializeLoadOption 0005e536 f   UefiBootManagerLib:BmLoadOption.obj
 0001:0004d5cb       _BmGetDevicePathSizeEx     0005e5cb f   UefiBootManagerLib:BmLoadOption.obj
 0001:0004d616       _BmStrSizeEx               0005e616 f   UefiBootManagerLib:BmLoadOption.obj
 0001:0004d67f       _BmValidateOption          0005e67f f   UefiBootManagerLib:BmLoadOption.obj
 0001:0004d6cc       _EfiBootManagerIsValidLoadOptionVariableName 0005e6cc f   UefiBootManagerLib:BmLoadOption.obj
 0001:0004d790       _EfiBootManagerVariableToLoadOptionEx 0005e790 f   UefiBootManagerLib:BmLoadOption.obj
 0001:0004d89e       _EfiBootManagerFreeLoadOption 0005e89e f   UefiBootManagerLib:BmLoadOption.obj
 0001:0004d8d4       _BmCharToUint              0005e8d4 f   UefiBootManagerLib:BmMisc.obj
 0002:00000038       ??_C@_05OJBIAJFH@Shell?$AA@ 0005f038     Shell:AutoGen.obj
 0002:00000040       ??_C@_0CB@DMEJJJHA@?6ASSERT_EFI_ERROR?5?$CIStatus?5?$DN?5?$CFr?$CJ?6@ 0005f040     Shell:AutoGen.obj
 0002:00000064       ??_C@_0BE@DCHLEIGN@?$CBEFI_ERROR?5?$CIStatus?$CJ?$AA@ 0005f064     Shell:AutoGen.obj
 0002:00000078       ??_C@_0FN@EILNMIEE@c?3?2edk2?2Build?2NT32IA32?2DEBUG_VS2@ 0005f078     Shell:AutoGen.obj
 0002:000000d8       __gPcd_FixedAtBuild_PcdShellSupplier 0005f0d8     Shell:AutoGen.obj
 0002:000000e8       ??_C@_0BH@MAAHKCPC@String?5?$CB?$DN?5?$CI?$CIvoid?5?$CK?$CJ?50?$CJ?$AA@ 0005f0e8     Shell:Shell.obj
 0002:00000100       ??_C@_0CL@NMLLNCAA@c?3?2edk2?2ShellPkg?2Application?2She@ 0005f100     Shell:Shell.obj
 0002:0000012c       ??_C@_0BH@FLLGILOF@?$CKString?$CB?$DN?5?$CI?$CIvoid?5?$CK?$CJ?50?$CJ?$AA@ 0005f12c     Shell:Shell.obj
 0002:00000144       ??_C@_0BN@CKKOOFHH@BeginPercent?5?$CB?$DN?5?$CI?$CIvoid?5?$CK?$CJ?50?$CJ?$AA@ 0005f144     Shell:Shell.obj
 0002:00000164       ??_C@_0BL@NCMDLNBA@EndPercent?5?$CB?$DN?5?$CI?$CIvoid?5?$CK?$CJ?50?$CJ?$AA@ 0005f164     Shell:Shell.obj
 0002:00000180       ??_C@_0BK@LACMFILE@BeginPercent?5?$DM?5EndPercent?$AA@ 0005f180     Shell:Shell.obj
 0002:0000019c       ??_C@_13NEIAEHFG@?$AA?$CC?$AA?$AA@ 0005f19c     Shell:Shell.obj
 0002:000001a0       ??_C@_13PPFCDPMH@?$AA?$HM?$AA?$AA@ 0005f1a0     Shell:Shell.obj
 0002:000001a4       ??_C@_0DL@HPCOOOPC@ShellInfoObject?4NewShellParamete@ 0005f1a4     Shell:Shell.obj
 0002:000001e0       ??_C@_0DE@NALNPBBL@ShellInfoObject?4NewEfiShellProto@ 0005f1e0     Shell:Shell.obj
 0002:00000214       ??_C@_1M@GDFLIJGE@?$AAF?$AAa?$AAl?$AAs?$AAe?$AA?$AA@ 0005f214     Shell:Shell.obj
 0002:00000220       ??_C@_17HJKEOJJP@?$AAm?$AAa?$AAp?$AA?$AA@ 0005f220     Shell:Shell.obj
 0002:00000228       ??_C@_1BC@JPGJMLGC@?$AAp?$AAr?$AAo?$AAf?$AAi?$AAl?$AAe?$AAs?$AA?$AA@ 0005f228     Shell:Shell.obj
 0002:0000023c       ??_C@_15KNBIKKIN@?$AA?$CF?$AAd?$AA?$AA@ 0005f23c     Shell:Shell.obj
 0002:00000244       ??_C@_1CC@OOEJBCHO@?$AAu?$AAe?$AAf?$AAi?$AAs?$AAh?$AAe?$AAl?$AAl?$AAs?$AAu?$AAp?$AAp?$AAo?$AAr?$AAt?$AA?$AA@ 0005f244     Shell:Shell.obj
 0002:00000268       ??_C@_1M@NDGNLFMH@?$AA?$CF?$AAd?$AA?4?$AA?$CF?$AAd?$AA?$AA@ 0005f268     Shell:Shell.obj
 0002:00000274       ??_C@_1CC@LDCNHJKB@?$AAu?$AAe?$AAf?$AAi?$AAs?$AAh?$AAe?$AAl?$AAl?$AAv?$AAe?$AAr?$AAs?$AAi?$AAo?$AAn?$AA?$AA@ 0005f274     Shell:Shell.obj
 0002:00000298       ??_C@_1BI@BCLCNCIC@?$AAu?$AAe?$AAf?$AAi?$AAv?$AAe?$AAr?$AAs?$AAi?$AAo?$AAn?$AA?$AA@ 0005f298     Shell:Shell.obj
 0002:000002b0       ??_C@_0CM@IAGDMIGD@ShellInfoObject?4ConsoleInfo?5?$CB?$DN?5?$CI@ 0005f2b0     Shell:Shell.obj
 0002:000002dc       ??_C@_17GGNKNKOD@?$AAc?$AAw?$AAd?$AA?$AA@ 0005f2dc     Shell:Shell.obj
 0002:000002e4       ??_C@_0BC@FEDIJHFF@?$CI?$CIBOOLEAN?$CJ?$CI0?$DN?$DN1?$CJ?$CJ?$AA@ 0005f2e4     Shell:Shell.obj
 0002:000002f8       ??_C@_17LEMNFMDC@?$AAf?$AAo?$AAr?$AA?$AA@ 0005f2f8     Shell:Shell.obj
 0002:00000300       ??_C@_1O@BBEFAAME@?$AAe?$AAn?$AAd?$AAf?$AAo?$AAr?$AA?$AA@ 0005f300     Shell:Shell.obj
 0002:00000310       ??_C@_15HPILKIBB@?$AAi?$AAf?$AA?$AA@ 0005f310     Shell:Shell.obj
 0002:00000318       ??_C@_19CNLBJFBH@?$AAe?$AAl?$AAs?$AAe?$AA?$AA@ 0005f318     Shell:Shell.obj
 0002:00000324       ??_C@_1M@JOOCEOEH@?$AAe?$AAn?$AAd?$AAi?$AAf?$AA?$AA@ 0005f324     Shell:Shell.obj
 0002:00000330       ??_C@_19NFHDJCBF@?$AAg?$AAo?$AAt?$AAo?$AA?$AA@ 0005f330     Shell:Shell.obj
 0002:0000033c       ??_C@_0BI@OIEOGPFD@DevPath?5?$CB?$DN?5?$CI?$CIvoid?5?$CK?$CJ?50?$CJ?$AA@ 0005f33c     Shell:Shell.obj
 0002:00000354       ??_C@_0BJ@LNALCLOM@FilePath?5?$CB?$DN?5?$CI?$CIvoid?5?$CK?$CJ?50?$CJ?$AA@ 0005f354     Shell:Shell.obj
 0002:00000370       ??_C@_1BC@GKOFKKJK@?$AA?9?$AAs?$AAt?$AAa?$AAr?$AAt?$AAu?$AAp?$AA?$AA@ 0005f370     Shell:Shell.obj
 0002:00000384       ??_C@_1BG@FGCHDHKN@?$AA?9?$AAn?$AAo?$AAs?$AAt?$AAa?$AAr?$AAt?$AAu?$AAp?$AA?$AA@ 0005f384     Shell:Shell.obj
 0002:0000039c       ??_C@_1BM@PMGGPCI@?$AA?9?$AAn?$AAo?$AAc?$AAo?$AAn?$AAs?$AAo?$AAl?$AAe?$AAo?$AAu?$AAt?$AA?$AA@ 0005f39c     Shell:Shell.obj
 0002:000003b8       ??_C@_1BK@IANHHEEL@?$AA?9?$AAn?$AAo?$AAc?$AAo?$AAn?$AAs?$AAo?$AAl?$AAe?$AAi?$AAn?$AA?$AA@ 0005f3b8     Shell:Shell.obj
 0002:000003d4       ??_C@_1BK@HIGCBJDG@?$AA?9?$AAn?$AAo?$AAi?$AAn?$AAt?$AAe?$AAr?$AAr?$AAu?$AAp?$AAt?$AA?$AA@ 0005f3d4     Shell:Shell.obj
 0002:000003f0       ??_C@_1O@FGCMKHFJ@?$AA?9?$AAn?$AAo?$AAm?$AAa?$AAp?$AA?$AA@ 0005f3f0     Shell:Shell.obj
 0002:00000400       ??_C@_1BG@LGLCEGDI@?$AA?9?$AAn?$AAo?$AAv?$AAe?$AAr?$AAs?$AAi?$AAo?$AAn?$AA?$AA@ 0005f400     Shell:Shell.obj
 0002:00000418       ??_C@_1BA@COHPHGOG@?$AA?9?$AAn?$AAo?$AAn?$AAe?$AAs?$AAt?$AA?$AA@ 0005f418     Shell:Shell.obj
 0002:00000428       ??_C@_1O@BKJLJAOF@?$AA?9?$AAd?$AAe?$AAl?$AAa?$AAy?$AA?$AA@ 0005f428     Shell:Shell.obj
 0002:00000438       ??_C@_1M@IBGJMPMO@?$AA?9?$AAe?$AAx?$AAi?$AAt?$AA?$AA@ 0005f438     Shell:Shell.obj
 0002:00000444       ??_C@_13IMODFHAA@?$AA?9?$AA?$AA@ 0005f444     Shell:Shell.obj
 0002:00000448       ??_C@_13HOIJIPNN@?$AA?5?$AA?$AA@ 0005f448     Shell:Shell.obj
 0002:00000450       ??_C@_0JA@FNLKFKGO@?$CIShellInfoObject?4ShellInitSettin@ 0005f450     Shell:Shell.obj
 0002:000004e0       ??_C@_13PJJBFPED@?$AA?$DL?$AA?$AA@ 0005f4e0     Shell:Shell.obj
 0002:000004e4       ??_C@_11LOCGONAA@?$AA?$AA@ 0005f4e4     Shell:Shell.obj
 0002:000004e8       ??_C@_13EJFHHPOP@?$AA?$CF?$AA?$AA@ 0005f4e8     Shell:Shell.obj
 0002:000004ec       ??_C@_0CE@LJCHIGCM@OriginalCommandLine?5?$CB?$DN?5?$CI?$CIvoid?5?$CK?$CJ@ 0005f4ec     Shell:Shell.obj
 0002:00000510       ??_C@_15OPFFGINH@?$AA?$FO?$AA?$CF?$AA?$AA@ 0005f510     Shell:Shell.obj
 0002:00000518       ??_C@_0BH@NPJELEAM@StdOut?5?$DN?$DN?5?$CI?$CIvoid?5?$CK?$CJ?50?$CJ?$AA@ 0005f518     Shell:Shell.obj
 0002:00000530       ??_C@_0CG@MGHOIGIE@StrStr?$CICmdLine?0?5L?$CC?$HM?$CC?$CJ?5?$CB?$DN?5?$CI?$CIvoid?5@ 0005f530     Shell:Shell.obj
 0002:00000558       ??_C@_0CD@IEFOICLO@Split?9?$DOSplitStdOut?5?$CB?$DN?5?$CI?$CIvoid?5?$CK?$CJ?5@ 0005f558     Shell:Shell.obj
 0002:00000580       ??_C@_0EE@PCEEBCEL@?$CISPLIT_LIST?$CK?$CJGetFirstNode?$CI?$CGShell@ 0005f580     Shell:Shell.obj
 0002:000005c4       ??_C@_0BI@CCIALOMF@CmdLine?5?$CB?$DN?5?$CI?$CIvoid?5?$CK?$CJ?50?$CJ?$AA@ 0005f5c4     Shell:Shell.obj
 0002:000005dc       ??_C@_0BI@HFBCEBHA@?$CKCmdLine?$CB?$DN?5?$CI?$CIvoid?5?$CK?$CJ?50?$CJ?$AA@ 0005f5dc     Shell:Shell.obj
 0002:000005f4       ??_C@_13EBCNDICG@?$AA?3?$AA?$AA@ 0005f5f4     Shell:Shell.obj
 0002:000005f8       ??_C@_0EO@OBCEBMK@CmdLine?$FL?$CIStrLen?$CICmdLine?$CJ?91?$CJ?$FN?5?$DN?$DN?5@ 0005f5f8     Shell:Shell.obj
 0002:00000648       ??_C@_15FNEHKAED@?$AA?9?$AA?$DP?$AA?$AA@ 0005f648     Shell:Shell.obj
 0002:00000650       ??_C@_1M@LBOOPLFJ@?$AAh?$AAe?$AAl?$AAp?$AA?5?$AA?$AA@ 0005f650     Shell:Shell.obj
 0002:0000065c       ??_C@_1M@BCBKOEKO@?$AA0?$AAx?$AA?$CF?$AAL?$AAx?$AA?$AA@ 0005f65c     Shell:Shell.obj
 0002:00000668       ??_C@_19PCNJIDGC@?$AA0?$AAx?$AA?$CF?$AAx?$AA?$AA@ 0005f668     Shell:Shell.obj
 0002:00000674       ??_C@_1BO@PIKGDIKH@?$AAd?$AAe?$AAb?$AAu?$AAg?$AAl?$AAa?$AAs?$AAt?$AAe?$AAr?$AAr?$AAo?$AAr?$AA?$AA@ 0005f674     Shell:Shell.obj
 0002:00000694       ??_C@_1BE@JFEAOBEI@?$AAl?$AAa?$AAs?$AAt?$AAe?$AAr?$AAr?$AAo?$AAr?$AA?$AA@ 0005f694     Shell:Shell.obj
 0002:000006a8       ??_C@_13HGPDMIBE@?$AA?$DP?$AA?$AA@ 0005f6a8     Shell:Shell.obj
 0002:000006ac       ??_C@_0CA@MFCCBFOP@CommandWithPath?5?$CB?$DN?5?$CI?$CIvoid?5?$CK?$CJ?50?$CJ?$AA@ 0005f6ac     Shell:Shell.obj
 0002:000006cc       ??_C@_0BN@DHLFOKKI@?$CBShellCommandGetScriptExit?$CI?$CJ?$AA@ 0005f6cc     Shell:Shell.obj
 0002:000006ec       ??_C@_0CK@GPOFFFON@NewScriptFile?9?$DOScriptName?5?$DN?$DN?5?$CI?$CIv@ 0005f6ec     Shell:Shell.obj
 0002:00000718       ??_C@_0CN@MDCLIFIC@NewScriptFile?9?$DOArgv?$FLLoopVar?$FN?5?$DN?$DN?5@ 0005f718     Shell:Shell.obj
 0002:00000748       ??_C@_15JEHPHNPC@?$AA?$CF?$AA9?$AA?$AA@ 0005f748     Shell:Shell.obj
 0002:00000750       ??_C@_15CMMDBKJH@?$AA?$CF?$AA8?$AA?$AA@ 0005f750     Shell:Shell.obj
 0002:00000758       ??_C@_15HEKAAKMB@?$AA?$CF?$AA7?$AA?$AA@ 0005f758     Shell:Shell.obj
 0002:00000760       ??_C@_15MMBMGNKE@?$AA?$CF?$AA6?$AA?$AA@ 0005f760     Shell:Shell.obj
 0002:00000768       ??_C@_15NOKJMCEK@?$AA?$CF?$AA5?$AA?$AA@ 0005f768     Shell:Shell.obj
 0002:00000770       ??_C@_15GGBFKFCP@?$AA?$CF?$AA4?$AA?$AA@ 0005f770     Shell:Shell.obj
 0002:00000778       ??_C@_15PLMCJNJG@?$AA?$CF?$AA3?$AA?$AA@ 0005f778     Shell:Shell.obj
 0002:00000780       ??_C@_15EDHOPKPD@?$AA?$CF?$AA2?$AA?$AA@ 0005f780     Shell:Shell.obj
 0002:00000788       ??_C@_15FBMLFFBN@?$AA?$CF?$AA1?$AA?$AA@ 0005f788     Shell:Shell.obj
 0002:00000790       ??_C@_15OJHHDCHI@?$AA?$CF?$AA0?$AA?$AA@ 0005f790     Shell:Shell.obj
 0002:00000798       ??_C@_15OGCJNNE@?$AA?$CC?$AA?$CC?$AA?$AA@ 0005f798     Shell:Shell.obj
 0002:000007a0       ??_C@_1BG@GPPJNEOI@?$AA?$EA?$AAe?$AAc?$AAh?$AAo?$AA?5?$AA?9?$AAo?$AAf?$AAf?$AA?$AA@ 0005f7a0     Shell:Shell.obj
 0002:000007b8       ??_C@_1BE@DMFNHPCI@?$AA?$EA?$AAe?$AAc?$AAh?$AAo?$AA?5?$AA?9?$AAo?$AAn?$AA?$AA@ 0005f7b8     Shell:Shell.obj
 0002:000007cc       ??_C@_19EEPNDKNE@?$AA?$CF?$AAs?$AA?$AN?$AA?6?$AA?$AA@ 0005f7cc     Shell:Shell.obj
 0002:00000804       _mNoNestingTrue            0005f804     Shell:Shell.obj
 0002:00000810       _mNoNestingEnvVarName      0005f810     Shell:Shell.obj
 0002:00000838       ??_C@_15EDKKDMNP@?$AA?5?$AA?$CC?$AA?$AA@ 0005f838     Shell:ShellParametersProtocol.obj
 0002:00000840       ??_C@_15CPILICPA@?$AA?$CC?$AA?$FO?$AA?$AA@ 0005f840     Shell:ShellParametersProtocol.obj
 0002:00000848       ??_C@_0BF@JGBEECGI@Argc?5?$CB?$DN?5?$CI?$CIvoid?5?$CK?$CJ?50?$CJ?$AA@ 0005f848     Shell:ShellParametersProtocol.obj
 0002:00000860       ??_C@_0DN@IIPBMDOM@c?3?2edk2?2ShellPkg?2Application?2She@ 0005f860     Shell:ShellParametersProtocol.obj
 0002:000008a0       ??_C@_0BF@FMENHPJH@Argv?5?$CB?$DN?5?$CI?$CIvoid?5?$CK?$CJ?50?$CJ?$AA@ 0005f8a0     Shell:ShellParametersProtocol.obj
 0002:000008b8       ??_C@_0BB@FEAIBCKF@Count?5?$DO?$DN?5?$CI?$CKArgc?$CJ?$AA@ 0005f8b8     Shell:ShellParametersProtocol.obj
 0002:000008cc       ??_C@_0CD@FIFEEFHJ@NewShellParameters?5?$CB?$DN?5?$CI?$CIvoid?5?$CK?$CJ?5@ 0005f8cc     Shell:ShellParametersProtocol.obj
 0002:000008f0       ??_C@_0CC@LCFPHEN@RootShellInstance?5?$CB?$DN?5?$CI?$CIvoid?5?$CK?$CJ?50@ 0005f8f0     Shell:ShellParametersProtocol.obj
 0002:00000914       ??_C@_1BC@FNCBBNBI@?$AAS?$AAh?$AAe?$AAl?$AAl?$AAO?$AAp?$AAt?$AA?$AA@ 0005f914     Shell:ShellParametersProtocol.obj
 0002:00000928       ??_C@_0CA@MFNMGLLM@FullCommandLine?5?$DN?$DN?5?$CI?$CIvoid?5?$CK?$CJ?50?$CJ?$AA@ 0005f928     Shell:ShellParametersProtocol.obj
 0002:00000948       ??_C@_0EA@BJKCAJCJ@?$CI?$CI?$CIINTN?$CJ?$CIRETURN_STATUS?$CJ?$CIStatus?$CJ?$CJ@ 0005f948     Shell:ShellParametersProtocol.obj
 0002:00000988       ??_C@_1O@IAAGOEFN@?$AA?5?$AA2?$AA?$DO?$AA?$DO?$AAv?$AA?5?$AA?$AA@ 0005f988     Shell:ShellParametersProtocol.obj
 0002:00000998       ??_C@_1O@PHJIDGKN@?$AA?5?$AA1?$AA?$DO?$AA?$DO?$AAv?$AA?5?$AA?$AA@ 0005f998     Shell:ShellParametersProtocol.obj
 0002:000009a8       ??_C@_1M@HCPFAEO@?$AA?5?$AA?$DO?$AA?$DO?$AAv?$AA?5?$AA?$AA@ 0005f9a8     Shell:ShellParametersProtocol.obj
 0002:000009b4       ??_C@_19LOCGJEPE@?$AA?5?$AA?$DO?$AAv?$AA?5?$AA?$AA@ 0005f9b4     Shell:ShellParametersProtocol.obj
 0002:000009c0       ??_C@_1O@OJELAEIO@?$AA?5?$AA1?$AA?$DO?$AA?$DO?$AAa?$AA?5?$AA?$AA@ 0005f9c0     Shell:ShellParametersProtocol.obj
 0002:000009d0       ??_C@_1M@BFCPIDMC@?$AA?5?$AA1?$AA?$DO?$AA?$DO?$AA?5?$AA?$AA@ 0005f9d0     Shell:ShellParametersProtocol.obj
 0002:000009dc       ??_C@_19FNCNBMPF@?$AA?5?$AA?$DO?$AA?$DO?$AA?5?$AA?$AA@ 0005f9dc     Shell:ShellParametersProtocol.obj
 0002:000009e8       ??_C@_1M@BJPMGCGN@?$AA?5?$AA?$DO?$AA?$DO?$AAa?$AA?5?$AA?$AA@ 0005f9e8     Shell:ShellParametersProtocol.obj
 0002:000009f4       ??_C@_1M@OIPHDJOA@?$AA?5?$AA1?$AA?$DO?$AAa?$AA?5?$AA?$AA@ 0005f9f4     Shell:ShellParametersProtocol.obj
 0002:00000a00       ??_C@_19KAPFKGNH@?$AA?5?$AA?$DO?$AAa?$AA?5?$AA?$AA@ 0005fa00     Shell:ShellParametersProtocol.obj
 0002:00000a0c       ??_C@_1M@POBIDIMB@?$AA?5?$AA2?$AA?$DO?$AA?$DO?$AA?5?$AA?$AA@ 0005fa0c     Shell:ShellParametersProtocol.obj
 0002:00000a18       ??_C@_1M@BNBDLAMA@?$AA?5?$AA2?$AA?$DO?$AAv?$AA?5?$AA?$AA@ 0005fa18     Shell:ShellParametersProtocol.obj
 0002:00000a24       ??_C@_1M@PGCEALMD@?$AA?5?$AA1?$AA?$DO?$AAv?$AA?5?$AA?$AA@ 0005fa24     Shell:ShellParametersProtocol.obj
 0002:00000a30       ??_C@_1M@DMAICOD@?$AA?5?$AA2?$AA?$DO?$AAa?$AA?5?$AA?$AA@ 0005fa30     Shell:ShellParametersProtocol.obj
 0002:00000a3c       ??_C@_19KICAJLK@?$AA?5?$AA2?$AA?$DO?$AA?5?$AA?$AA@ 0005fa3c     Shell:ShellParametersProtocol.obj
 0002:00000a48       ??_C@_19IEANAOFJ@?$AA?5?$AA1?$AA?$DO?$AA?5?$AA?$AA@ 0005fa48     Shell:ShellParametersProtocol.obj
 0002:00000a54       ??_C@_17PNOJILCD@?$AA?5?$AA?$DO?$AA?5?$AA?$AA@ 0005fa54     Shell:ShellParametersProtocol.obj
 0002:00000a5c       ??_C@_17LACBCKCI@?$AA?5?$AA?$DM?$AA?5?$AA?$AA@ 0005fa5c     Shell:ShellParametersProtocol.obj
 0002:00000a64       ??_C@_19OCNAKBKK@?$AA?5?$AA?$DM?$AAa?$AA?5?$AA?$AA@ 0005fa64     Shell:ShellParametersProtocol.obj
 0002:00000a70       ??_C@_19PMADJDIJ@?$AA?5?$AA?$DM?$AAv?$AA?5?$AA?$AA@ 0005fa70     Shell:ShellParametersProtocol.obj
 0002:00000a7c       ??_C@_1BG@LDKDBFGF@?$AAc?$AAo?$AAn?$AAn?$AAe?$AAc?$AAt?$AA?5?$AA?9?$AAr?$AA?$AA@ 0005fa7c     Shell:ShellParametersProtocol.obj
 0002:00000a94       ??_C@_0BL@EDBMIKGG@TempHandle?5?$CB?$DN?5?$CI?$CIvoid?5?$CK?$CJ?50?$CJ?$AA@ 0005fa94     Shell:ShellParametersProtocol.obj
 0002:00000ab0       ??_C@_17CLELIOII@?$AAN?$AAU?$AAL?$AA?$AA@ 0005fab0     Shell:ShellParametersProtocol.obj
 0002:00000ab8       ??_C@_0CA@CBKMDJNI@ShellParameters?5?$CB?$DN?5?$CI?$CIvoid?5?$CK?$CJ?50?$CJ?$AA@ 0005fab8     Shell:ShellParametersProtocol.obj
 0002:00000ad8       ??_C@_0BI@GCPLFEFJ@OldArgv?5?$CB?$DN?5?$CI?$CIvoid?5?$CK?$CJ?50?$CJ?$AA@ 0005fad8     Shell:ShellParametersProtocol.obj
 0002:00000af0       ??_C@_0BI@KIKCGJKG@OldArgc?5?$CB?$DN?5?$CI?$CIvoid?5?$CK?$CJ?50?$CJ?$AA@ 0005faf0     Shell:ShellParametersProtocol.obj
 0002:00000b08       ??_C@_0FE@BCKIOHKK@?$CIPathForReturn?5?$DN?$DN?5?$CI?$CIvoid?5?$CK?$CJ?50?$CJ?5?$CG@ 0005fb08     Shell:ShellProtocol.obj
 0002:00000b5c       ??_C@_0DD@CKKDJLOP@c?3?2edk2?2ShellPkg?2Application?2She@ 0005fb5c     Shell:ShellProtocol.obj
 0002:00000b90       ??_C@_0BP@OFJBBFCN@DevicePathCopy?5?$CB?$DN?5?$CI?$CIvoid?5?$CK?$CJ?50?$CJ?$AA@ 0005fb90     Shell:ShellProtocol.obj
 0002:00000bb0       ??_C@_0BM@DBMGMBPA@MapPathCopy?5?$CB?$DN?5?$CI?$CIvoid?5?$CK?$CJ?50?$CJ?$AA@ 0005fbb0     Shell:ShellProtocol.obj
 0002:00000bcc       ??_C@_13FPGAJAPJ@?$AA?2?$AA?$AA@ 0005fbcc     Shell:ShellProtocol.obj
 0002:00000bd0       ??_C@_15DOBJMHMB@?$AA?$DO?$AAv?$AA?$AA@ 0005fbd0     Shell:ShellProtocol.obj
 0002:00000bd8       ??_C@_15DGGDIAAI@?$AA?$DO?$AAi?$AA?$AA@ 0005fbd8     Shell:ShellProtocol.obj
 0002:00000be0       ??_C@_0BM@CPHPCMLA@?$CKFileHandle?5?$CB?$DN?5?$CI?$CIvoid?5?$CK?$CJ?50?$CJ?$AA@ 0005fbe0     Shell:ShellProtocol.obj
 0002:00000bfc       ??_C@_15BDAINPNE@?$AA?$DO?$AAo?$AA?$AA@ 0005fbfc     Shell:ShellProtocol.obj
 0002:00000c04       ??_C@_19CIJIHAKK@?$AAN?$AAU?$AAL?$AAL?$AA?$AA@ 0005fc04     Shell:ShellProtocol.obj
 0002:00000c10       ??_C@_15HMLFDPLA@?$AA?$DO?$AAe?$AA?$AA@ 0005fc10     Shell:ShellProtocol.obj
 0002:00000c18       ??_C@_0CC@JOLAKDKP@LoadedImage?9?$DOLoadOptionsSize?5?$DN?$DN?5@ 0005fc18     Shell:ShellProtocol.obj
 0002:00000c3c       ??_C@_0BL@IEJNEOPL@?$CBEFI_ERROR?5?$CICleanupStatus?$CJ?$AA@ 0005fc3c     Shell:ShellProtocol.obj
 0002:00000c58       ??_C@_1CC@HKOPKFLN@?$AAS?$AAh?$AAe?$AAl?$AAl?$AA?4?$AAe?$AAf?$AAi?$AA?5?$AA?9?$AAe?$AAx?$AAi?$AAt?$AA?5?$AA?$AA@ 0005fc58     Shell:ShellProtocol.obj
 0002:00000c7c       ??_C@_0BL@CMJHFCBI@TempString?5?$DN?$DN?5?$CI?$CIvoid?5?$CK?$CJ?50?$CJ?$AA@ 0005fc7c     Shell:ShellProtocol.obj
 0002:00000c98       ??_C@_0EK@KCBJNLOB@?$CITempString?5?$DN?$DN?5?$CI?$CIvoid?5?$CK?$CJ?50?$CJ?5?$CG?$CG?5S@ 0005fc98     Shell:ShellProtocol.obj
 0002:00000ce4       ??_C@_0BF@EAIGPLDI@Path?5?$CB?$DN?5?$CI?$CIvoid?5?$CK?$CJ?50?$CJ?$AA@ 0005fce4     Shell:ShellProtocol.obj
 0002:00000d00       ??_C@_0EF@BMFMOKDK@?$CIPath2?5?$DN?$DN?5?$CI?$CIvoid?5?$CK?$CJ?50?$CJ?5?$CG?$CG?5Path2S@ 0005fd00     Shell:ShellProtocol.obj
 0002:00000d48       ??_C@_13JOFGPIOO@?$AA?4?$AA?$AA@ 0005fd48     Shell:ShellProtocol.obj
 0002:00000d4c       ??_C@_15DDHGOCBH@?$AA?4?$AA?4?$AA?$AA@ 0005fd4c     Shell:ShellProtocol.obj
 0002:00000d54       ??_C@_0BO@OAECAICK@Count?5?$DM?$DN?5StrLen?5?$CIPatternCopy?$CJ?$AA@ 0005fd54     Shell:ShellProtocol.obj
 0002:00000d74       ??_C@_0BK@EGBMOPOO@Node?9?$DOKey?5?$CB?$DN?5?$CI?$CIvoid?5?$CK?$CJ?50?$CJ?$AA@ 0005fd74     Shell:ShellProtocol.obj
 0002:00000d90       ??_C@_0M@JADJBBKG@Status?5?$DN?$DN?50?$AA@ 0005fd90     Shell:ShellProtocol.obj
 0002:00000d9c       ??_C@_1BE@IPLMLBED@?$AAL?$AAa?$AAs?$AAt?$AAe?$AAr?$AAr?$AAo?$AAr?$AA?$AA@ 0005fd9c     Shell:ShellProtocol.obj
 0002:00000db0       ??_C@_0BO@PFNEAFPA@DirectoryName?5?$CB?$DN?5?$CI?$CIvoid?5?$CK?$CJ?50?$CJ?$AA@ 0005fdb0     Shell:ShellProtocol.obj
 0002:00000dd0       ??_C@_0HI@CAPEDHNF@?$CIMapListItem?9?$DOCurrentDirectoryPa@ 0005fdd0     Shell:ShellProtocol.obj
 0002:00000e48       ??_C@_0BJ@CNCJBBAK@HelpText?5?$CB?$DN?5?$CI?$CIvoid?5?$CK?$CJ?50?$CJ?$AA@ 0005fe48     Shell:ShellProtocol.obj
 0002:00000e68       ??_C@_0EF@GIBEAODI@?$CIRetVal?5?$DN?$DN?5?$CI?$CIvoid?5?$CK?$CJ?50?$CJ?5?$CG?$CG?5RetSi@ 0005fe68     Shell:ShellProtocol.obj
 0002:00000eb0       ??_C@_0BG@PMINLNNJ@Alias?5?$CB?$DN?5?$CI?$CIvoid?5?$CK?$CJ?50?$CJ?$AA@ 0005feb0     Shell:ShellProtocol.obj
 0002:00000ec8       ??_C@_0DA@BFKPODFN@IsListEmpty?$CI?$CGShellInfoObject?4Old@ 0005fec8     Shell:ShellProtocol.obj
 0002:00000ef8       ??_C@_0BM@JJEJGGGM@ConsoleInfo?5?$CB?$DN?5?$CI?$CIvoid?5?$CK?$CJ?50?$CJ?$AA@ 0005fef8     Shell:ConsoleLogger.obj
 0002:00000f14       ??_C@_0DD@NDPDNELE@c?3?2edk2?2ShellPkg?2Application?2She@ 0005ff14     Shell:ConsoleLogger.obj
 0002:00000f48       ??_C@_0CH@CKEDIBJ@ConsoleInfo?9?$DOOldConOut?5?$CB?$DN?5?$CI?$CIvoid@ 0005ff48     Shell:ConsoleLogger.obj
 0002:00000f70       ??_C@_0BF@NDBIKIKC@CR?5has?5Bad?5Signature?$AA@ 0005ff70     Shell:ConsoleLogger.obj
 0002:00000f88       ??_C@_0GJ@MDFBOPCM@ConsoleInfo?9?$DOHistoryMode?4CursorR@ 0005ff88     Shell:ConsoleLogger.obj
 0002:00000ff4       ??_C@_0CD@DPJJJNIG@CopySize?5?$DM?5ConsoleInfo?9?$DOAttribSi@ 0005fff4     Shell:ConsoleLogger.obj
 0002:00001018       ??_C@_0CD@PHAIKNHA@CopySize?5?$DM?5ConsoleInfo?9?$DOBufferSi@ 00060018     Shell:ConsoleLogger.obj
 0002:0000103c       ??_C@_0DO@NPBKMNEP@ConsoleInfo?9?$DOOriginalStartRow?5?$DN?$DN@ 0006003c     Shell:ConsoleLogger.obj
 0002:00001080       ??_C@_0EK@BCAFEPBD@PrintIndex?5?$CL?5ConsoleInfo?9?$DOHistor@ 00060080     Shell:ConsoleLogger.obj
 0002:000010cc       ??_C@_0CF@EFFGCKGM@PrintIndex?5?$DM?5ConsoleInfo?9?$DOAttrib@ 000600cc     Shell:ConsoleLogger.obj
 0002:000010f4       ??_C@_15JNBOKNOG@?$AA?$AN?$AA?6?$AA?$AA@ 000600f4     Shell:ConsoleLogger.obj
 0002:000010fc       ??_C@_0CB@IPIIKOIN@ShellInfoObject?4PageBreakEnabled@ 000600fc     Shell:ConsoleLogger.obj
 0002:00001120       ??_C@_0BF@JJGDGIED@Resp?5?$CB?$DN?5?$CI?$CIvoid?5?$CK?$CJ?50?$CJ?$AA@ 00060120     Shell:ConsoleLogger.obj
 0002:00001138       ??_C@_0CL@KGMELDIO@ShellInfoObject?4ConsoleInfo?5?$DN?$DN?5C@ 00060138     Shell:ConsoleLogger.obj
 0002:00001164       ??_C@_0BJ@PICCNDGH@Volatile?5?$CB?$DN?5?$CI?$CIvoid?5?$CK?$CJ?50?$CJ?$AA@ 00060164     Shell:ShellEnvVar.obj
 0002:00001180       ??_C@_0DB@LEOOEIMB@c?3?2edk2?2ShellPkg?2Application?2She@ 00060180     Shell:ShellEnvVar.obj
 0002:000011b4       ??_C@_0BF@NJNGJMPC@List?5?$CB?$DN?5?$CI?$CIvoid?5?$CK?$CJ?50?$CJ?$AA@ 000601b4     Shell:ShellEnvVar.obj
 0002:000011cc       ??_C@_0BF@CBLMFKOC@Node?5?$CB?$DN?5?$CI?$CIvoid?5?$CK?$CJ?50?$CJ?$AA@ 000601cc     Shell:ShellEnvVar.obj
 0002:000011e4       ??_C@_13NMPKAAJP@?$AA?$DN?$AA?$AA@ 000601e4     Shell:ShellEnvVar.obj
 0002:000011e8       ??_C@_0CM@LKKMENKD@StrStr?$CICurrentString?0?5L?$CC?$DN?$CC?$CJ?5?$CB?$DN?5?$CI@ 000601e8     Shell:ShellEnvVar.obj
 0002:00001214       ??_C@_13BBDEGPLJ@?$AA?$CK?$AA?$AA@ 00060214     Shell:FileHandleWrappers.obj
 0002:00001218       ??_C@_17HBKEMHNM@?$AA?$CF?$AAN?$AA?6?$AA?$AA@ 00060218     Shell:FileHandleWrappers.obj
 0002:00001220       ??_C@_0CA@EPIHLNMK@TabCompleteList?5?$CB?$DN?5?$CI?$CIvoid?5?$CK?$CJ?50?$CJ?$AA@ 00060220     Shell:FileHandleWrappers.obj
 0002:00001240       ??_C@_0DI@MKKDKAFO@c?3?2edk2?2ShellPkg?2Application?2She@ 00060240     Shell:FileHandleWrappers.obj
 0002:00001278       ??_C@_1O@KOGCFCFL@?$AA?$CF?$AAs?$AA?$CF?$AA?4?$AA?$CK?$AAs?$AA?$AA@ 00060278     Shell:FileHandleWrappers.obj
 0002:00001288       ??_C@_0CA@OICFAJM@TabCompleteList?5?$DN?$DN?5?$CI?$CIvoid?5?$CK?$CJ?50?$CJ?$AA@ 00060288     Shell:FileHandleWrappers.obj
 0002:000012a8       ??_C@_13LBAGMAIH@?$AA?6?$AA?$AA@ 000602a8     Shell:FileHandleWrappers.obj
 0002:000012ac       ??_C@_1BC@CPFBHBNI@?$AA?$CF?$AA2?$AAd?$AA?4?$AA?5?$AA?$CF?$AAs?$AA?6?$AA?$AA@ 000602ac     Shell:FileHandleWrappers.obj
 0002:000012c0       ??_C@_02KPKOKMHB@?$CFS?$AA@ 000602c0     Shell:FileHandleWrappers.obj
 0002:000012c4       ??_C@_0CG@LGHBJIPJ@FileInterface?9?$DOBuffer?5?$DN?$DN?5?$CI?$CIvoid?5@ 000602c4     Shell:FileHandleWrappers.obj
 0002:000012ec       ??_C@_0BP@HJLEIBOC@FileInterface?9?$DOBufferSize?5?$DN?$DN?50?$AA@ 000602ec     Shell:FileHandleWrappers.obj
 0002:0000130c       ??_C@_0BN@IGDFKHEM@FileInterface?9?$DOPosition?5?$DN?$DN?50?$AA@ 0006030c     Shell:FileHandleWrappers.obj
 0002:0000132c       ??_C@_15JKMGFKLP@?$AA?$CF?$AAa?$AA?$AA@ 0006032c     Shell:FileHandleWrappers.obj
 0002:00001334       ??_C@_19ENGJFOPL@?$AA?4?$AAe?$AAf?$AAi?$AA?$AA@ 00060334     Shell:ShellManParser.obj
 0002:00001340       ??_C@_19BOFOENEP@?$AA?4?$AAm?$AAa?$AAn?$AA?$AA@ 00060340     Shell:ShellManParser.obj
 0002:0000134c       ??_C@_17LPJOGKMB@?$AA?4?$AAT?$AAH?$AA?$AA@ 0006034c     Shell:ShellManParser.obj
 0002:00001354       ??_C@_19NFHBHHPA@?$AA?4?$AAS?$AAH?$AA?5?$AA?$AA@ 00060354     Shell:ShellManParser.obj
 0002:00001360       ??_C@_13CMNBPIDO@?$AA?$AN?$AA?$AA@ 00060360     Shell:ShellManParser.obj
 0002:00001364       ??_C@_0DE@LPINBJAP@c?3?2edk2?2ShellPkg?2Application?2She@ 00060364     Shell:ShellManParser.obj
 0002:00001398       ??_C@_0EN@MKJGMOL@?$CI?$CKHelpText?5?$DN?$DN?5?$CI?$CIvoid?5?$CK?$CJ?50?$CJ?5?$CG?$CG?5?$CKH@ 00060398     Shell:ShellManParser.obj
 0002:000013e8       ??_C@_17KCJLFKHJ@?$AA?4?$AAS?$AAH?$AA?$AA@ 000603e8     Shell:ShellManParser.obj
 0002:000013f0       ??_C@_19NPLEHOOJ@?$AA?4?$AAT?$AAH?$AA?5?$AA?$AA@ 000603f0     Shell:ShellManParser.obj
 0002:000013fc       ??_C@_17MHODOKFD@?$AA?5?$AA0?$AA?5?$AA?$AA@ 000603fc     Shell:ShellManParser.obj
 0002:00001404       ??_C@_19CIOJOFN@?$AA?4?$AAT?$AAH?$AA?7?$AA?$AA@ 00060404     Shell:ShellManParser.obj
 0002:00001410       ??_C@_0DI@PHOMHDKH@?$CILength?5?9?51?$CJ?5?$DM?$DN?5?$CI0xFFFFFFFF?5?9?5?$CIU@ 00060410     BaseMemoryLibOptDxe:CopyMemWrapper.obj
 0002:00001448       ??_C@_0DM@DBGKHDAI@c?3?2edk2?2MdePkg?2Library?2BaseMemor@ 00060448     BaseMemoryLibOptDxe:CopyMemWrapper.obj
 0002:00001484       ??_C@_0DD@DCDOHCDJ@?$CILength?5?9?51?$CJ?5?$DM?$DN?5?$CI0xFFFFFFFF?5?9?5?$CIU@ 00060484     BaseMemoryLibOptDxe:CopyMemWrapper.obj
 0002:000014b8       ??_C@_0BH@IACGKAP@Buffer?5?$CB?$DN?5?$CI?$CIvoid?5?$CK?$CJ?50?$CJ?$AA@ 000604b8     BaseMemoryLibOptDxe:ScanMem16Wrapper.obj
 0002:000014d0       ??_C@_0CN@BPIPMCPJ@?$CILength?5?9?51?$CJ?5?$DM?$DN?5?$CI0xFFFFFFFF?5?9?5?$CIU@ 000604d0     BaseMemoryLibOptDxe:ScanMem16Wrapper.obj
 0002:00001500       ??_C@_0CF@LEICOABD@?$CILength?5?$CG?5?$CIsizeof?5?$CIValue?$CJ?5?9?51?$CJ?$CJ?5@ 00060500     BaseMemoryLibOptDxe:ScanMem16Wrapper.obj
 0002:00001528       ??_C@_0DN@DGCAMLAB@c?3?2edk2?2MdePkg?2Library?2BaseMemor@ 00060528     BaseMemoryLibOptDxe:SetMem16Wrapper.obj
 0002:00001568       ??_C@_0CO@LECKNDNC@?$CI?$CI?$CIUINTN?$CJBuffer?$CJ?5?$CG?5?$CIsizeof?5?$CIValu@ 00060568     BaseMemoryLibOptDxe:SetMem16Wrapper.obj
 0002:00001598       ??_C@_0CL@OBMFBPED@Length?5?$DM?$DN?5?$CI0xFFFFFFFF?5?9?5?$CIUINTN?$CJB@ 00060598     BaseMemoryLibOptDxe:MemLibGuid.obj
 0002:000015c4       ??_C@_0DM@IFMIBCMP@c?3?2edk2?2MdePkg?2Library?2BaseMemor@ 000605c4     BaseMemoryLibOptDxe:ZeroMemWrapper.obj
 0002:00001600       ??_C@_0DL@OKGJDFMC@c?3?2edk2?2MdePkg?2Library?2BaseMemor@ 00060600     BaseMemoryLibOptDxe:SetMemWrapper.obj
 0002:0000163c       ??_C@_0BH@LKMBFCBF@Format?5?$CB?$DN?5?$CI?$CIvoid?5?$CK?$CJ?50?$CJ?$AA@ 0006063c     PeiDxeDebugLibReportStatusCode:DebugLib.obj
 0002:00001658       ??_C@_0EH@EMGPELNE@c?3?2edk2?2MdeModulePkg?2Library?2Pei@ 00060658     PeiDxeDebugLibReportStatusCode:DebugLib.obj
 0002:000016a0       ??_C@_0CI@HIINONDG@?$CICHAR8?5?$CK?$CJBaseListMarker?5?$DM?$DN?5Forma@ 000606a0     PeiDxeDebugLibReportStatusCode:DebugLib.obj
 0002:000016c8       ??_C@_01OHGJGJJP@?$FL?$AA@ 000606c8     PeiDxeDebugLibReportStatusCode:DebugLib.obj
 0002:000016cc       ??_C@_02PBFOLPKM@?$FN?5?$AA@ 000606cc     PeiDxeDebugLibReportStatusCode:DebugLib.obj
 0002:000016d0       ??_C@_0BM@NLNKOJGD@Destination?5?$CB?$DN?5?$CI?$CIvoid?5?$CK?$CJ?50?$CJ?$AA@ 000606d0     BaseLib:String.obj
 0002:000016ec       ??_C@_0CI@BEFOLLLE@c?3?2edk2?2MdePkg?2Library?2BaseLib?2S@ 000606ec     BaseLib:String.obj
 0002:00001714       ??_C@_0CI@LLKACKFD@?$CI?$CIUINTN?$CJ?5Destination?5?$CG?50x0000000@ 00060714     BaseLib:String.obj
 0002:0000173c       ??_C@_0DL@LFIMEMJP@Length?5?$DM?$DN?5_gPcd_FixedAtBuild_Pcd@ 0006073c     BaseLib:String.obj
 0002:00001778       ??_C@_0CD@BDCLIGHD@?$CI?$CIUINTN?$CJ?5String?5?$CG?50x00000001?$CJ?5?$DN?$DN@ 00060778     BaseLib:String.obj
 0002:0000179c       ??_C@_0DK@EOJCOAME@Length?5?$DM?5_gPcd_FixedAtBuild_PcdM@ 0006079c     BaseLib:String.obj
 0002:000017d8       ??_C@_0BL@JAAMOCAJ@StrSize?5?$CIFirstString?$CJ?5?$CB?$DN?50?$AA@ 000607d8     BaseLib:String.obj
 0002:000017f4       ??_C@_0BM@DALBOILC@StrSize?5?$CISecondString?$CJ?5?$CB?$DN?50?$AA@ 000607f4     BaseLib:String.obj
 0002:00001810       ??_C@_0BG@KBNOLIGE@StrSize?5?$CIString?$CJ?5?$CB?$DN?50?$AA@ 00060810     BaseLib:String.obj
 0002:00001828       ??_C@_0BM@NNBLOHJD@StrSize?5?$CISearchString?$CJ?5?$CB?$DN?50?$AA@ 00060828     BaseLib:String.obj
 0002:00001844       ??_C@_0DJ@JJHGIFMP@Length?5?$DM?$DN?5_gPcd_FixedAtBuild_Pcd@ 00060844     BaseLib:String.obj
 0002:00001880       ??_C@_0DI@MDIKFADO@Length?5?$DM?5_gPcd_FixedAtBuild_PcdM@ 00060880     BaseLib:String.obj
 0002:000018b8       ??_C@_0BL@IKFBNFIL@AsciiStrSize?5?$CIFirstString?$CJ?$AA@ 000608b8     BaseLib:String.obj
 0002:000018d4       ??_C@_0BM@EDNOKLLE@AsciiStrSize?5?$CISecondString?$CJ?$AA@ 000608d4     BaseLib:String.obj
 0002:000018f0       ??_C@_0CM@GBAFEFEA@c?3?2edk2?2MdePkg?2Library?2BaseLib?2S@ 000608f0     BaseLib:SafeString.obj
 0002:0000191c       ??_C@_0CD@COCJPGE@?$CI?$CIUINTN?$CJ?5Source?5?$CG?50x00000001?$CJ?5?$DN?$DN@ 0006091c     BaseLib:SafeString.obj
 0002:00001940       ??_C@_0BO@ECNIOIHG@?$CIDestination?5?$CB?$DN?5?$CI?$CIvoid?5?$CK?$CJ?50?$CJ?$CJ?$AA@ 00060940     BaseLib:SafeString.obj
 0002:00001960       ??_C@_0BJ@EAEEJIP@?$CISource?5?$CB?$DN?5?$CI?$CIvoid?5?$CK?$CJ?50?$CJ?$CJ?$AA@ 00060960     BaseLib:SafeString.obj
 0002:00001980       ??_C@_0EA@BBALOHPI@?$CIDestMax?5?$DM?$DN?5?$CI_gPcd_FixedAtBuild_@ 00060980     BaseLib:SafeString.obj
 0002:000019c0       ??_C@_0P@PMIMLIHM@?$CIDestMax?5?$CB?$DN?50?$CJ?$AA@ 000609c0     BaseLib:SafeString.obj
 0002:000019d0       ??_C@_0BG@EEGIIOKH@?$CIDestMax?5?$DO?5SourceLen?$CJ?$AA@ 000609d0     BaseLib:SafeString.obj
 0002:000019e8       ??_C@_0FH@PPBLBDBJ@InternalSafeStringNoStrOverlap?5?$CI@ 000609e8     BaseLib:SafeString.obj
 0002:00001a40       ??_C@_0DP@PBOJGJC@?$CILength?5?$DM?$DN?5?$CI_gPcd_FixedAtBuild_P@ 00060a40     BaseLib:SafeString.obj
 0002:00001a80       ??_C@_0P@BHOOOJPD@?$CICopyLen?5?$CB?$DN?50?$CJ?$AA@ 00060a80     BaseLib:SafeString.obj
 0002:00001a90       ??_C@_0BG@BPGICNPK@?$CICopyLen?5?$DO?5SourceLen?$CJ?$AA@ 00060a90     BaseLib:SafeString.obj
 0002:00001aa8       ??_C@_0BJ@MBBOBCLN@?$CIString?5?$CB?$DN?5?$CI?$CIvoid?5?$CK?$CJ?50?$CJ?$CJ?$AA@ 00060aa8     BaseLib:SafeString.obj
 0002:00001ac4       ??_C@_0BH@JPMEDPAI@?$CIData?5?$CB?$DN?5?$CI?$CIvoid?5?$CK?$CJ?50?$CJ?$CJ?$AA@ 00060ac4     BaseLib:SafeString.obj
 0002:00001ae0       ??_C@_0IC@CFBPEAPC@?$CIStrnLenS?5?$CIString?0?5?$CI_gPcd_FixedA@ 00060ae0     BaseLib:SafeString.obj
 0002:00001b64       ??_C@_0BK@PFCDEPEA@?$CIAddress?5?$CB?$DN?5?$CI?$CIvoid?5?$CK?$CJ?50?$CJ?$CJ?$AA@ 00060b64     BaseLib:SafeString.obj
 0002:00001b80       ??_C@_0EK@OFPBBCEA@AddressIndex?5?$CL?51?5?$DM?5?$CIsizeof?5?$CIAddr@ 00060b80     BaseLib:SafeString.obj
 0002:00001bcc       ??_C@_0BH@JHLMKECN@?$CIGuid?5?$CB?$DN?5?$CI?$CIvoid?5?$CK?$CJ?50?$CJ?$CJ?$AA@ 00060bcc     BaseLib:SafeString.obj
 0002:00001be4       ??_C@_0BJ@CNKJJNE@?$CIBuffer?5?$CB?$DN?5?$CI?$CIvoid?5?$CK?$CJ?50?$CJ?$CJ?$AA@ 00060be4     BaseLib:SafeString.obj
 0002:00001c00       ??_C@_0BN@ECMFIFKJ@?$CI?$CILength?5?$CG?50x00000001?$CJ?5?$DN?$DN?50?$CJ?$AA@ 00060c00     BaseLib:SafeString.obj
 0002:00001c20       ??_C@_0BO@HHMNFJIK@?$CIMaxBufferSize?5?$DO?$DN?5Length?5?1?52?$CJ?$AA@ 00060c20     BaseLib:SafeString.obj
 0002:00001c40       ??_C@_0FL@CDANCHFO@InternalSafeStringNoAsciiStrOver@ 00060c40     BaseLib:SafeString.obj
 0002:00001c9c       ??_C@_0CM@FDGEGMJJ@c?3?2edk2?2MdePkg?2Library?2BaseLib?2L@ 00060c9c     BaseLib:LinkedList.obj
 0002:00001cc8       ??_C@_0CC@KDLPLAED@List?9?$DOForwardLink?5?$CB?$DN?5?$CI?$CIvoid?5?$CK?$CJ?50@ 00060cc8     BaseLib:LinkedList.obj
 0002:00001cec       ??_C@_0BP@IJJCCMAK@List?9?$DOBackLink?5?$CB?$DN?5?$CI?$CIvoid?5?$CK?$CJ?50?$CJ?$AA@ 00060cec     BaseLib:LinkedList.obj
 0002:00001d0c       ??_C@_0CI@BMHOPIIO@InternalBaseLibIsListValid?5?$CIFirs@ 00060d0c     BaseLib:LinkedList.obj
 0002:00001d34       ??_C@_0BJ@NJABNCDK@ListHead?5?$CB?$DN?5?$CI?$CIvoid?5?$CK?$CJ?50?$CJ?$AA@ 00060d34     BaseLib:LinkedList.obj
 0002:00001d50       ??_C@_0CG@LGIALJFK@InternalBaseLibIsListValid?5?$CIList@ 00060d50     BaseLib:LinkedList.obj
 0002:00001d78       ??_C@_0CC@JLDICICM@InternalBaseLibIsListValid?5?$CIList@ 00060d78     BaseLib:LinkedList.obj
 0002:00001d9c       ??_C@_0BF@NMBJJECB@?$CBIsListEmpty?5?$CIEntry?$CJ?$AA@ 00060d9c     BaseLib:LinkedList.obj
 0002:00001db4       ??_C@_17CECJBCED@?$AA?2?$AA?4?$AA?2?$AA?$AA@ 00060db4     BaseLib:FilePaths.obj
 0002:00001dbc       ??_C@_15HFJMEONN@?$AA?2?$AA?4?$AA?$AA@ 00060dbc     BaseLib:FilePaths.obj
 0002:00001dc4       ??_C@_17OFBPHKFE@?$AA?2?$AA?4?$AA?4?$AA?$AA@ 00060dc4     BaseLib:FilePaths.obj
 0002:00001dcc       ??_C@_15LEKKCGMK@?$AA?2?$AA?2?$AA?$AA@ 00060dcc     BaseLib:FilePaths.obj
 0002:00001dd4       ??_C@_0CL@COEFNOFM@c?3?2edk2?2MdePkg?2Library?2BaseLib?2U@ 00060dd4     BaseLib:Unaligned.obj
 0002:00001e00       ??_C@_0N@KGHEHMDL@Divisor?5?$CB?$DN?50?$AA@ 00060e00     BaseLib:DivU64x32.obj
 0002:00001e10       ??_C@_0BN@COECPDCC@gImageHandle?5?$CB?$DN?5?$CI?$CIvoid?5?$CK?$CJ?50?$CJ?$AA@ 00060e10     UefiBootServicesTableLib:UefiBootServicesTableLib.obj
 0002:00001e30       ??_C@_0EL@ODFJBOBF@c?3?2edk2?2MdePkg?2Library?2UefiBootS@ 00060e30     UefiBootServicesTableLib:UefiBootServicesTableLib.obj
 0002:00001e7c       ??_C@_0BE@DGNHAHIL@gST?5?$CB?$DN?5?$CI?$CIvoid?5?$CK?$CJ?50?$CJ?$AA@ 00060e7c     UefiBootServicesTableLib:UefiBootServicesTableLib.obj
 0002:00001e90       ??_C@_0BE@BDFJLGLN@gBS?5?$CB?$DN?5?$CI?$CIvoid?5?$CK?$CJ?50?$CJ?$AA@ 00060e90     UefiBootServicesTableLib:UefiBootServicesTableLib.obj
 0002:00001ea8       ??_C@_0EF@NBCCMJKB@c?3?2edk2?2MdePkg?2Library?2UefiMemor@ 00060ea8     UefiMemoryAllocationLib:MemoryAllocationLib.obj
 0002:00001ef0       ??_C@_0DE@FCAJAHCJ@AllocationSize?5?$DM?$DN?5?$CI0xFFFFFFFF?5?9?5@ 00060ef0     UefiMemoryAllocationLib:MemoryAllocationLib.obj
 0002:00001f28       ??_C@_0EC@JPHJMIIC@c?3?2edk2?2MdeModulePkg?2Library?2Dxe@ 00060f28     DxePrintLibPrint2Protocol:PrintLib.obj
 0002:00001f6c       ??_C@_0CB@OEMAHDCL@mPrint2SProtocol?5?$CB?$DN?5?$CI?$CIvoid?5?$CK?$CJ?50?$CJ@ 00060f6c     DxePrintLibPrint2Protocol:PrintLib.obj
 0002:00001f90       ??_C@_0BP@CHOJLGEH@BaseListMarker?5?$CB?$DN?5?$CI?$CIvoid?5?$CK?$CJ?50?$CJ?$AA@ 00060f90     DxePrintLibPrint2Protocol:PrintLib.obj
 0002:00001fb0       ??_C@_0BJ@PPAKKDJG@?$CIFormat?5?$CB?$DN?5?$CI?$CIvoid?5?$CK?$CJ?50?$CJ?$CJ?$AA@ 00060fb0     DxePrintLibPrint2Protocol:PrintLib.obj
 0002:00001fd0       ??_C@_0ID@PLGJGION@?$CIAsciiStrnLenS?5?$CIFormat?0?5?$CI_gPcd_F@ 00060fd0     DxePrintLibPrint2Protocol:PrintLib.obj
 0002:00002058       ??_C@_0IM@BFJJFLGB@?$CIStrnLenS?5?$CI?$CICHAR16?5?$CK?$CJFormat?0?5?$CI_g@ 00061058     DxePrintLibPrint2Protocol:PrintLib.obj
 0002:000020e8       ??_C@_0GD@NPBBENH@The?5input?5variable?5argument?5list@ 000610e8     DxePrintLibPrint2Protocol:PrintLib.obj
 0002:0000214c       ??_C@_0CI@BGLNHBLM@?$CI?$CI?$CIUINTN?$CJ?5?$CIStartOfBuffer?$CJ?$CJ?5?$CG?50x0@ 0006114c     DxePrintLibPrint2Protocol:PrintLib.obj
 0002:00002174       ??_C@_0CH@KJLBGOBB@?$CI?$CI?$CIUINTN?$CJ?5?$CIFormatString?$CJ?$CJ?5?$CG?50x01@ 00061174     DxePrintLibPrint2Protocol:PrintLib.obj
 0002:0000219c       ??_C@_07PBILKAFL@Success?$AA@ 0006119c     DxePrintLibPrint2Protocol:PrintLib.obj
 0002:000021a4       ??_C@_0BG@CFJMNNJK@Warning?5Unknown?5Glyph?$AA@ 000611a4     DxePrintLibPrint2Protocol:PrintLib.obj
 0002:000021bc       ??_C@_0BH@GKKCJEPJ@Warning?5Delete?5Failure?$AA@ 000611bc     DxePrintLibPrint2Protocol:PrintLib.obj
 0002:000021d4       ??_C@_0BG@ECIJMOED@Warning?5Write?5Failure?$AA@ 000611d4     DxePrintLibPrint2Protocol:PrintLib.obj
 0002:000021ec       ??_C@_0BJ@ODIPDGHB@Warning?5Buffer?5Too?5Small?$AA@ 000611ec     DxePrintLibPrint2Protocol:PrintLib.obj
 0002:00002208       ??_C@_0BD@IFJNJCCO@Warning?5Stale?5Data?$AA@ 00061208     DxePrintLibPrint2Protocol:PrintLib.obj
 0002:0000221c       ??_C@_0L@PLPBEPPC@Load?5Error?$AA@ 0006121c     DxePrintLibPrint2Protocol:PrintLib.obj
 0002:00002228       ??_C@_0BC@HOFHKGJN@Invalid?5Parameter?$AA@ 00061228     DxePrintLibPrint2Protocol:PrintLib.obj
 0002:0000223c       ??_C@_0M@BEECMOIL@Unsupported?$AA@ 0006123c     DxePrintLibPrint2Protocol:PrintLib.obj
 0002:00002248       ??_C@_0BA@FLNMPMCF@Bad?5Buffer?5Size?$AA@ 00061248     DxePrintLibPrint2Protocol:PrintLib.obj
 0002:00002258       ??_C@_0BB@EGELJFOB@Buffer?5Too?5Small?$AA@ 00061258     DxePrintLibPrint2Protocol:PrintLib.obj
 0002:0000226c       ??_C@_09NKFGCIPN@Not?5Ready?$AA@ 0006126c     DxePrintLibPrint2Protocol:PrintLib.obj
 0002:00002278       ??_C@_0N@HHEABDHO@Device?5Error?$AA@ 00061278     DxePrintLibPrint2Protocol:PrintLib.obj
 0002:00002288       ??_C@_0BA@LNEDDFNB@Write?5Protected?$AA@ 00061288     DxePrintLibPrint2Protocol:PrintLib.obj
 0002:00002298       ??_C@_0BB@GOILNEAA@Out?5of?5Resources?$AA@ 00061298     DxePrintLibPrint2Protocol:PrintLib.obj
 0002:000022ac       ??_C@_0P@EIOJGIF@Volume?5Corrupt?$AA@ 000612ac     DxePrintLibPrint2Protocol:PrintLib.obj
 0002:000022bc       ??_C@_0M@HDLEPOFA@Volume?5Full?$AA@ 000612bc     DxePrintLibPrint2Protocol:PrintLib.obj
 0002:000022c8       ??_C@_08KEGAJDNN@No?5Media?$AA@ 000612c8     DxePrintLibPrint2Protocol:PrintLib.obj
 0002:000022d4       ??_C@_0O@JNCJKCCD@Media?5changed?$AA@ 000612d4     DxePrintLibPrint2Protocol:PrintLib.obj
 0002:000022e4       ??_C@_09CFCBFJND@Not?5Found?$AA@ 000612e4     DxePrintLibPrint2Protocol:PrintLib.obj
 0002:000022f0       ??_C@_0O@NFHOBIDO@Access?5Denied?$AA@ 000612f0     DxePrintLibPrint2Protocol:PrintLib.obj
 0002:00002300       ??_C@_0M@ENKCBFEP@No?5Response?$AA@ 00061300     DxePrintLibPrint2Protocol:PrintLib.obj
 0002:0000230c       ??_C@_0L@IFPBNFC@No?5mapping?$AA@ 0006130c     DxePrintLibPrint2Protocol:PrintLib.obj
 0002:00002318       ??_C@_08PAFJCNGP@Time?5out?$AA@ 00061318     DxePrintLibPrint2Protocol:PrintLib.obj
 0002:00002324       ??_C@_0M@DCJFAFHJ@Not?5started?$AA@ 00061324     DxePrintLibPrint2Protocol:PrintLib.obj
 0002:00002330       ??_C@_0BA@IGIBFFPH@Already?5started?$AA@ 00061330     DxePrintLibPrint2Protocol:PrintLib.obj
 0002:00002340       ??_C@_07LCKDCBKK@Aborted?$AA@ 00061340     DxePrintLibPrint2Protocol:PrintLib.obj
 0002:00002348       ??_C@_0L@LKIFCMNO@ICMP?5Error?$AA@ 00061348     DxePrintLibPrint2Protocol:PrintLib.obj
 0002:00002354       ??_C@_0L@DJKNJKHM@TFTP?5Error?$AA@ 00061354     DxePrintLibPrint2Protocol:PrintLib.obj
 0002:00002360       ??_C@_0P@NCJHBCLM@Protocol?5Error?$AA@ 00061360     DxePrintLibPrint2Protocol:PrintLib.obj
 0002:00002370       ??_C@_0BF@EHOBGFMI@Incompatible?5Version?$AA@ 00061370     DxePrintLibPrint2Protocol:PrintLib.obj
 0002:00002388       ??_C@_0BD@KHMPCIOG@Security?5Violation?$AA@ 00061388     DxePrintLibPrint2Protocol:PrintLib.obj
 0002:0000239c       ??_C@_09BOMAGJEG@CRC?5Error?$AA@ 0006139c     DxePrintLibPrint2Protocol:PrintLib.obj
 0002:000023a8       ??_C@_0N@JEJDHPO@End?5of?5Media?$AA@ 000613a8     DxePrintLibPrint2Protocol:PrintLib.obj
 0002:000023b8       ??_C@_0O@NMJOLAMF@Reserved?5?$CI29?$CJ?$AA@ 000613b8     DxePrintLibPrint2Protocol:PrintLib.obj
 0002:000023c8       ??_C@_0O@GLPDOMCP@Reserved?5?$CI30?$CJ?$AA@ 000613c8     DxePrintLibPrint2Protocol:PrintLib.obj
 0002:000023d8       ??_C@_0M@FKGOBENP@End?5of?5File?$AA@ 000613d8     DxePrintLibPrint2Protocol:PrintLib.obj
 0002:000023e4       ??_C@_0BB@KFJAMCOC@Invalid?5Language?$AA@ 000613e4     DxePrintLibPrint2Protocol:PrintLib.obj
 0002:000023f8       ??_C@_0BB@MFGDFIJM@Compromised?5Data?$AA@ 000613f8     DxePrintLibPrint2Protocol:PrintLib.obj
 0002:00002410       ??_C@_0ED@LPDDCECB@?$CIBufferSize?5?$DM?$DN?5?$CI_gPcd_FixedAtBui@ 00061410     DxePrintLibPrint2Protocol:PrintLib.obj
 0002:00002458       ??_C@_0EB@HDGIDCIO@?$CIBufferSize?5?$DM?$DN?5?$CI_gPcd_FixedAtBui@ 00061458     DxePrintLibPrint2Protocol:PrintLib.obj
 0002:0000249c       ??_C@_0O@MLOLIMFM@?$DMnull?5string?$DO?$AA@ 0006149c     DxePrintLibPrint2Protocol:PrintLib.obj
 0002:000024ac       ??_C@_0M@BJJDNPHK@?$DMnull?5guid?$DO?$AA@ 000614ac     DxePrintLibPrint2Protocol:PrintLib.obj
 0002:000024b8       ??_C@_0DB@PMLHLBMO@?$CF08x?9?$CF04x?9?$CF04x?9?$CF02x?$CF02x?9?$CF02x?$CF02x@ 000614b8     DxePrintLibPrint2Protocol:PrintLib.obj
 0002:000024ec       ??_C@_0M@LHGBCIKM@?$DMnull?5time?$DO?$AA@ 000614ec     DxePrintLibPrint2Protocol:PrintLib.obj
 0002:000024f8       ??_C@_0BK@FCPKCIDD@?$CF02d?1?$CF02d?1?$CF04d?5?5?$CF02d?3?$CF02d?$AA@ 000614f8     DxePrintLibPrint2Protocol:PrintLib.obj
 0002:00002514       ??_C@_04JIMNDDED@?$CF08X?$AA@ 00061514     DxePrintLibPrint2Protocol:PrintLib.obj
 0002:0000251c       ??_C@_02PCIJFNDE@?$AN?6?$AA@ 0006151c     DxePrintLibPrint2Protocol:PrintLib.obj
 0002:00002520       ??_C@_01LIIJDEN@?$AN?$AA@  00061520     DxePrintLibPrint2Protocol:PrintLib.obj
 0002:00002530       _mStatusString             00061530     DxePrintLibPrint2Protocol:PrintLib.obj
 0002:000025d0       ??_C@_0EP@BCAOHHL@c?3?2edk2?2MdePkg?2Library?2UefiDevic@ 000615d0     UefiDevicePathLibDevicePathProtocol:UefiDevicePathLib.obj
 0002:00002620       ??_C@_0DC@CNNBPJA@mDevicePathLibDevicePathUtilitie@ 00061620     UefiDevicePathLibDevicePathProtocol:UefiDevicePathLib.obj
 0002:00002654       ??_C@_0BL@JFODOCGB@DevicePath?5?$CB?$DN?5?$CI?$CIvoid?5?$CK?$CJ?50?$CJ?$AA@ 00061654     UefiDevicePathLibDevicePathProtocol:UefiDevicePathLib.obj
 0002:00002670       ??_C@_0EH@ENCEEKKL@?$CILength?5?$DO?$DN?5sizeof?5?$CIEFI_DEVICE_PA@ 00061670     UefiDevicePathLibDevicePathProtocol:UefiDevicePathLib.obj
 0002:000026b8       ??_C@_0BF@MBJFHGBE@Size?5?$CB?$DN?5?$CI?$CIvoid?5?$CK?$CJ?50?$CJ?$AA@ 000616b8     UefiDevicePathLibDevicePathProtocol:UefiDevicePathLib.obj
 0002:000026d0       _mUefiDevicePathLibEndDevicePath 000616d0     UefiDevicePathLibDevicePathProtocol:UefiDevicePathLib.obj
 0002:000026d4       ??_C@_0BE@OBDFIHND@gRT?5?$CB?$DN?5?$CI?$CIvoid?5?$CK?$CJ?50?$CJ?$AA@ 000616d4     UefiRuntimeServicesTableLib:UefiRuntimeServicesTableLib.obj
 0002:000026e8       ??_C@_0FB@NIMBGODD@c?3?2edk2?2MdePkg?2Library?2UefiRunti@ 000616e8     UefiRuntimeServicesTableLib:UefiRuntimeServicesTableLib.obj
 0002:0000273c       ??_C@_0BK@PPOBBAMB@TableGuid?5?$CB?$DN?5?$CI?$CIvoid?5?$CK?$CJ?50?$CJ?$AA@ 0006173c     UefiLib:UefiLib.obj
 0002:00002758       ??_C@_0CJ@PFEGNAHL@c?3?2edk2?2MdePkg?2Library?2UefiLib?2U@ 00061758     UefiLib:UefiLib.obj
 0002:00002784       ??_C@_0BG@JDKEGFNB@Table?5?$CB?$DN?5?$CI?$CIvoid?5?$CK?$CJ?50?$CJ?$AA@ 00061784     UefiLib:UefiLib.obj
 0002:0000279c       ??_C@_0BF@OGAHIMFI@Name?5?$CB?$DN?5?$CI?$CIvoid?5?$CK?$CJ?50?$CJ?$AA@ 0006179c     UefiLib:UefiLib.obj
 0002:000027b4       ??_C@_0BF@PEDOPNMP@Guid?5?$CB?$DN?5?$CI?$CIvoid?5?$CK?$CJ?50?$CJ?$AA@ 000617b4     UefiLib:UefiLib.obj
 0002:000027d0       ??_C@_0EG@GOBFPEEP@Name?5?$CB?$DN?5?$CI?$CIvoid?5?$CK?$CJ?50?$CJ?5?$CG?$CG?5Guid?5?$CB?$DN?5@ 000617d0     UefiLib:UefiLib.obj
 0002:00002818       ??_C@_0BH@FMEOEIBC@?$CKValue?5?$CB?$DN?5?$CI?$CIvoid?5?$CK?$CJ?50?$CJ?$AA@ 00061818     UefiLib:UefiLib.obj
 0002:00002830       ??_C@_0CD@OLFKAJF@SupportedLanguages?5?$CB?$DN?5?$CI?$CIvoid?5?$CK?$CJ?5@ 00061830     UefiLib:UefiLib.obj
 0002:00002854       ??_C@_0CK@GGFNJPAK@c?3?2edk2?2MdePkg?2Library?2DxeHobLib@ 00061854     DxeHobLib:HobLib.obj
 0002:00002880       ??_C@_0BJ@OBFMLLDO@mHobList?5?$CB?$DN?5?$CI?$CIvoid?5?$CK?$CJ?50?$CJ?$AA@ 00061880     DxeHobLib:HobLib.obj
 0002:0000289c       ??_C@_0BJ@NOLLDKJB@HobStart?5?$CB?$DN?5?$CI?$CIvoid?5?$CK?$CJ?50?$CJ?$AA@ 0006189c     DxeHobLib:HobLib.obj
 0002:000028b8       ??_C@_1BC@DPOIABCP@?$AAE?$AAF?$AAI?$AAD?$AAe?$AAb?$AAu?$AAg?$AA?$AA@ 000618b8     DxeDebugPrintErrorLevelLib:DxeDebugPrintErrorLevelLib.obj
 0002:000028d0       ??_C@_0EF@LIFNJAGA@c?3?2edk2?2MdeModulePkg?2Library?2Uef@ 000618d0     UefiHiiServicesLib:UefiHiiServicesLib.obj
 0002:00002918       ??_C@_0BN@FHPHCJAL@BufferToSort?5?$CB?$DN?5?$CI?$CIvoid?5?$CK?$CJ?50?$CJ?$AA@ 00061918     UefiSortLib:UefiSortLib.obj
 0002:00002938       ??_C@_0DH@BILCGOBJ@c?3?2edk2?2MdeModulePkg?2Library?2Uef@ 00061938     UefiSortLib:UefiSortLib.obj
 0002:00002970       ??_C@_0CA@DJEMEKLN@CompareFunction?5?$CB?$DN?5?$CI?$CIvoid?5?$CK?$CJ?50?$CJ?$AA@ 00061970     UefiSortLib:UefiSortLib.obj
 0002:00002990       ??_C@_0DB@CPEBINLM@c?3?2edk2?2MdeModulePkg?2Library?2Uef@ 00061990     UefiHiiLib:HiiLib.obj
 0002:000029c4       ??_C@_0BH@OOIJJHNK@Handle?5?$CB?$DN?5?$CI?$CIvoid?5?$CK?$CJ?50?$CJ?$AA@ 000619c4     UefiHiiLib:HiiLib.obj
 0002:000029dc       ??_C@_0CA@OEKIMLLB@PackageListGuid?5?$CB?$DN?5?$CI?$CIvoid?5?$CK?$CJ?50?$CJ?$AA@ 000619dc     UefiHiiLib:HiiLib.obj
 0002:000029fc       ??_C@_0BK@KLJHMMPJ@HiiHandle?5?$CB?$DN?5?$CI?$CIvoid?5?$CK?$CJ?50?$CJ?$AA@ 000619fc     UefiHiiLib:HiiLib.obj
 0002:00002a18       ??_C@_19LJDFFCJJ@?$AA?$CF?$AAs?$AA?$CF?$AAs?$AA?$AA@ 00061a18     UefiHiiLib:HiiLib.obj
 0002:00002a24       _mEndOfPakageList          00061a24     UefiHiiLib:HiiLib.obj
 0002:00002a28       ??_C@_0DE@IAJEMHJO@c?3?2edk2?2MdeModulePkg?2Library?2Uef@ 00061a28     UefiHiiLib:HiiString.obj
 0002:00002a5c       ??_C@_06PLDEFKP@x?9UEFI?$AA@ 00061a5c     UefiHiiLib:HiiString.obj
 0002:00002a64       ??_C@_0O@EMMLPDMJ@StringId?5?$CB?$DN?50?$AA@ 00061a64     UefiHiiLib:HiiString.obj
 0002:00002a74       ??_C@_1BK@GGGENMOA@?$AAP?$AAl?$AAa?$AAt?$AAf?$AAo?$AAr?$AAm?$AAL?$AAa?$AAn?$AAg?$AA?$AA@ 00061a74     UefiHiiLib:HiiString.obj
 0002:00002a8e       ??_C@_00CNPNBAHC@?$AA@     00061a8e     UefiHiiLib:HiiString.obj
 0002:00002a90       ??_C@_0DG@PGDOLEKG@c?3?2edk2?2MdeModulePkg?2Library?2Uef@ 00061a90     UefiHiiLib:HiiLanguage.obj
 0002:00002ac8       _gUnicodeFileTag           00061ac8     UefiFileHandleLib:UefiFileHandleLib.obj
 0002:00002acc       ??_C@_0CO@EPMBEMEN@Status?5?$CB?$DN?5?$CI?$CIRETURN_STATUS?$CJ?$CI0x800@ 00061acc     UefiFileHandleLib:UefiFileHandleLib.obj
 0002:00002afc       ??_C@_0DN@ILHGCMBE@c?3?2edk2?2MdePkg?2Library?2UefiFileH@ 00061afc     UefiFileHandleLib:UefiFileHandleLib.obj
 0002:00002b3c       ??_C@_0BB@PMNGACIB@CurrentSize?5?$CB?$DN?50?$AA@ 00061b3c     UefiFileHandleLib:UefiFileHandleLib.obj
 0002:00002b50       ??_C@_0CF@PEEFMLCB@DestinationStartSize?5?$DM?$DN?5?$CKCurrent@ 00061b50     UefiFileHandleLib:UefiFileHandleLib.obj
 0002:00002b78       ??_C@_0FA@DCHCMINO@?$CI?$CKFullFileName?5?$DN?$DN?5?$CI?$CIvoid?5?$CK?$CJ?50?$CJ?5?$CG@ 00061b78     UefiFileHandleLib:UefiFileHandleLib.obj
 0002:00002bc8       ??_C@_0EB@CMNLLCIC@c?3?2edk2?2MdePkg?2Library?2DxeServic@ 00061bc8     DxeServicesTableLib:DxeServicesTableLib.obj
 0002:00002c0c       ??_C@_0BE@IOIFLNKO@gDS?5?$CB?$DN?5?$CI?$CIvoid?5?$CK?$CJ?50?$CJ?$AA@ 00061c0c     DxeServicesTableLib:DxeServicesTableLib.obj
 0002:00002c20       ??_C@_19DJOBICII@?$AA?9?$AAs?$AAf?$AAo?$AA?$AA@ 00061c20     UefiShellLib:UefiShellLib.obj
 0002:00002c2c       ??_C@_0BB@FIMNCDND@Status?3?50x?$CF08x?$AN?6?$AA@ 00061c2c     UefiShellLib:UefiShellLib.obj
 0002:00002c40       ??_C@_0DF@EGBKJCKJ@c?3?2edk2?2ShellPkg?2Library?2UefiShe@ 00061c40     UefiShellLib:UefiShellLib.obj
 0002:00002c78       ??_C@_0BJ@BLIKFMIM@FileName?5?$CB?$DN?5?$CI?$CIvoid?5?$CK?$CJ?50?$CJ?$AA@ 00061c78     UefiShellLib:UefiShellLib.obj
 0002:00002c94       ??_C@_0BJ@LGIAPEFG@FileInfo?5?$CB?$DN?5?$CI?$CIvoid?5?$CK?$CJ?50?$CJ?$AA@ 00061c94     UefiShellLib:UefiShellLib.obj
 0002:00002cb0       ??_C@_0CG@HOBDBICG@mEfiShellEnvironment2?5?$CB?$DN?5?$CI?$CIvoid?5@ 00061cb0     UefiShellLib:UefiShellLib.obj
 0002:00002cd8       ??_C@_0BJ@CEFLEMCG@FileList?5?$CB?$DN?5?$CI?$CIvoid?5?$CK?$CJ?50?$CJ?$AA@ 00061cd8     UefiShellLib:UefiShellLib.obj
 0002:00002cf4       ??_C@_0BI@HFLLAPEM@OldInfo?5?$CB?$DN?5?$CI?$CIvoid?5?$CK?$CJ?50?$CJ?$AA@ 00061cf4     UefiShellLib:UefiShellLib.obj
 0002:00002d0c       ??_C@_0BO@JMFHFMII@OldInfo?9?$DOInfo?5?$CB?$DN?5?$CI?$CIvoid?5?$CK?$CJ?50?$CJ?$AA@ 00061d0c     UefiShellLib:UefiShellLib.obj
 0002:00002d2c       ??_C@_0CC@BMDNOILF@OldInfo?9?$DOFullName?5?$CB?$DN?5?$CI?$CIvoid?5?$CK?$CJ?50@ 00061d2c     UefiShellLib:UefiShellLib.obj
 0002:00002d50       ??_C@_0CC@HGDGHHKJ@OldInfo?9?$DOFileName?5?$CB?$DN?5?$CI?$CIvoid?5?$CK?$CJ?50@ 00061d50     UefiShellLib:UefiShellLib.obj
 0002:00002d74       ??_C@_0BE@MAANAFFD@Arg?5?$CB?$DN?5?$CI?$CIvoid?5?$CK?$CJ?50?$CJ?$AA@ 00061d74     UefiShellLib:UefiShellLib.obj
 0002:00002d88       ??_C@_19JIFMCCAP@?$AAp?$AAa?$AAt?$AAh?$AA?$AA@ 00061d88     UefiShellLib:UefiShellLib.obj
 0002:00002d94       ??_C@_0CA@PJEKBINO@ExtensionWalker?5?$CB?$DN?5?$CI?$CIvoid?5?$CK?$CJ?50?$CJ?$AA@ 00061d94     UefiShellLib:UefiShellLib.obj
 0002:00002db4       ??_C@_0BK@KFLCMCGE@CheckList?5?$CB?$DN?5?$CI?$CIvoid?5?$CK?$CJ?50?$CJ?$AA@ 00061db4     UefiShellLib:UefiShellLib.obj
 0002:00002dd0       ??_C@_0BF@DFKBEABN@Type?5?$CB?$DN?5?$CI?$CIvoid?5?$CK?$CJ?50?$CJ?$AA@ 00061dd0     UefiShellLib:UefiShellLib.obj
 0002:00002de8       ??_C@_15GECAHHDM@?$AA?9?$AAb?$AA?$AA@ 00061de8     UefiShellLib:UefiShellLib.obj
 0002:00002df0       ??_C@_0BC@DHCAIFAM@GetItemValue?5?$DN?$DN?50?$AA@ 00061df0     UefiShellLib:UefiShellLib.obj
 0002:00002e04       ??_C@_0BN@EKAHENGP@CheckPackage?5?$CB?$DN?5?$CI?$CIvoid?5?$CK?$CJ?50?$CJ?$AA@ 00061e04     UefiShellLib:UefiShellLib.obj
 0002:00002e24       ??_C@_0CD@OLNJGJNE@mEfiShellInterface?5?$CB?$DN?5?$CI?$CIvoid?5?$CK?$CJ?5@ 00061e24     UefiShellLib:UefiShellLib.obj
 0002:00002e48       ??_C@_17HOBPHCP@?$AA?$CF?$AA?$CF?$AAN?$AA?$AA@ 00061e48     UefiShellLib:UefiShellLib.obj
 0002:00002e50       ??_C@_15GCJHOFNH@?$AA?$CF?$AAN?$AA?$AA@ 00061e50     UefiShellLib:UefiShellLib.obj
 0002:00002e58       ??_C@_17NAOAHACO@?$AA?$CF?$AA?$CF?$AAE?$AA?$AA@ 00061e58     UefiShellLib:UefiShellLib.obj
 0002:00002e60       ??_C@_15LFJGGCNG@?$AA?$CF?$AAE?$AA?$AA@ 00061e60     UefiShellLib:UefiShellLib.obj
 0002:00002e68       ??_C@_17CCIKKIPD@?$AA?$CF?$AA?$CF?$AAH?$AA?$AA@ 00061e68     UefiShellLib:UefiShellLib.obj
 0002:00002e70       ??_C@_15EHPMLKAL@?$AA?$CF?$AAH?$AA?$AA@ 00061e70     UefiShellLib:UefiShellLib.obj
 0002:00002e78       ??_C@_17ENDHEIJH@?$AA?$CF?$AA?$CF?$AAB?$AA?$AA@ 00061e78     UefiShellLib:UefiShellLib.obj
 0002:00002e80       ??_C@_15CIEBFKGP@?$AA?$CF?$AAB?$AA?$AA@ 00061e80     UefiShellLib:UefiShellLib.obj
 0002:00002e88       ??_C@_17JCEMIIFP@?$AA?$CF?$AA?$CF?$AAV?$AA?$AA@ 00061e88     UefiShellLib:UefiShellLib.obj
 0002:00002e90       ??_C@_15PHDKJKKH@?$AA?$CF?$AAV?$AA?$AA@ 00061e90     UefiShellLib:UefiShellLib.obj
 0002:00002e98       ??_C@_0BI@BCILGJIG@DirName?5?$CB?$DN?5?$CI?$CIvoid?5?$CK?$CJ?50?$CJ?$AA@ 00061e98     UefiShellLib:UefiShellLib.obj
 0002:00002eb0       ??_C@_15GANGMFKL@?$AA?$CF?$AAs?$AA?$AA@ 00061eb0     UefiShellLib:UefiShellLib.obj
 0002:00002eb8       ??_C@_15DAMPJCDE@?$AA?$CF?$AAc?$AA?$AA@ 00061eb8     UefiShellLib:UefiShellLib.obj
 0002:00002ec0       ??_C@_0EC@NPOOM@?$CIBuffer?5?$DN?$DN?5?$CI?$CIvoid?5?$CK?$CJ?50?$CJ?5?$CG?$CG?5Size?5@ 00061ec0     UefiShellLib:UefiShellLib.obj
 0002:00002f04       ??_C@_15OEMMNBIC@?$AA0?$AAx?$AA?$AA@ 00061f04     UefiShellLib:UefiShellLib.obj
 0002:00002f0c       ??_C@_15EEPOHOLM@?$AA0?$AAX?$AA?$AA@ 00061f0c     UefiShellLib:UefiShellLib.obj
 0002:00002f14       ??_C@_0L@NOBFEIA@?$CKSize?5?$DN?$DN?50?$AA@ 00061f14     UefiShellLib:UefiShellLib.obj
 0002:00002f20       ??_C@_0DC@PFNNBEEF@The?5line?5was?5truncated?5in?5ShellF@ 00061f20     UefiShellLib:UefiShellLib.obj
 0002:00002f54       ??_C@_1CA@MKFFJJHF@?$AA?$CF?$AAH?$AA?$CF?$AA?9?$AA1?$AA4?$AAs?$AA?$CF?$AAN?$AA?9?$AA?5?$AA?$CF?$AAs?$AA?$AN?$AA?6?$AA?$AA@ 00061f54     UefiShellLib:UefiShellLib.obj
 0002:00002f74       ??_C@_1O@OGFJFJDO@?$AA?$CF?$AAN?$AA?$CF?$AAs?$AA?$AN?$AA?6?$AA?$AA@ 00061f74     UefiShellLib:UefiShellLib.obj
 0002:00002f84       ??_C@_1CM@FFPOKMDE@?$AAE?$AAf?$AAi?$AAR?$AAe?$AAs?$AAe?$AAr?$AAv?$AAe?$AAd?$AAM?$AAe?$AAm?$AAo?$AAr?$AAy?$AAT?$AAy?$AAp?$AAe?$AA?$AA@ 00061f84     UefiHandleParsingLib:UefiHandleParsingLib.obj
 0002:00002fb0       ??_C@_1BM@FAGLICOG@?$AAE?$AAf?$AAi?$AAL?$AAo?$AAa?$AAd?$AAe?$AAr?$AAC?$AAo?$AAd?$AAe?$AA?$AA@ 00061fb0     UefiHandleParsingLib:UefiHandleParsingLib.obj
 0002:00002fcc       ??_C@_1BM@CLIJBOGB@?$AAE?$AAf?$AAi?$AAL?$AAo?$AAa?$AAd?$AAe?$AAr?$AAD?$AAa?$AAt?$AAa?$AA?$AA@ 00061fcc     UefiHandleParsingLib:UefiHandleParsingLib.obj
 0002:00002fe8       ??_C@_1CI@DPCOKMCE@?$AAE?$AAf?$AAi?$AAB?$AAo?$AAo?$AAt?$AAS?$AAe?$AAr?$AAv?$AAi?$AAc?$AAe?$AAs?$AAC?$AAo?$AAd?$AAe?$AA?$AA@ 00061fe8     UefiHandleParsingLib:UefiHandleParsingLib.obj
 0002:00003010       ??_C@_1CI@EEMMDAKD@?$AAE?$AAf?$AAi?$AAB?$AAo?$AAo?$AAt?$AAS?$AAe?$AAr?$AAv?$AAi?$AAc?$AAe?$AAs?$AAD?$AAa?$AAt?$AAa?$AA?$AA@ 00062010     UefiHandleParsingLib:UefiHandleParsingLib.obj
 0002:00003038       ??_C@_1CO@GDFCIHHC@?$AAE?$AAf?$AAi?$AAR?$AAu?$AAn?$AAt?$AAi?$AAm?$AAe?$AAS?$AAe?$AAr?$AAv?$AAi?$AAc?$AAe?$AAs?$AAC?$AAo?$AAd?$AAe?$AA?$AA@ 00062038     UefiHandleParsingLib:UefiHandleParsingLib.obj
 0002:00003068       ??_C@_1CO@BILABLPF@?$AAE?$AAf?$AAi?$AAR?$AAu?$AAn?$AAt?$AAi?$AAm?$AAe?$AAS?$AAe?$AAr?$AAv?$AAi?$AAc?$AAe?$AAs?$AAD?$AAa?$AAt?$AAa?$AA?$AA@ 00062068     UefiHandleParsingLib:UefiHandleParsingLib.obj
 0002:00003098       ??_C@_1CM@NMFKEKLB@?$AAE?$AAf?$AAi?$AAC?$AAo?$AAn?$AAv?$AAe?$AAn?$AAt?$AAi?$AAo?$AAn?$AAa?$AAl?$AAM?$AAe?$AAm?$AAo?$AAr?$AAy?$AA?$AA@ 00062098     UefiHandleParsingLib:UefiHandleParsingLib.obj
 0002:000030c4       ??_C@_1CE@EGDMDJFH@?$AAE?$AAf?$AAi?$AAU?$AAn?$AAu?$AAs?$AAa?$AAb?$AAl?$AAe?$AAM?$AAe?$AAm?$AAo?$AAr?$AAy?$AA?$AA@ 000620c4     UefiHandleParsingLib:UefiHandleParsingLib.obj
 0002:000030e8       ??_C@_1CK@IPMNKCMJ@?$AAE?$AAf?$AAi?$AAA?$AAC?$AAP?$AAI?$AAR?$AAe?$AAc?$AAl?$AAa?$AAi?$AAm?$AAM?$AAe?$AAm?$AAo?$AAr?$AAy?$AA?$AA@ 000620e8     UefiHandleParsingLib:UefiHandleParsingLib.obj
 0002:00003114       ??_C@_1CC@JFBAOHPO@?$AAE?$AAf?$AAi?$AAA?$AAC?$AAP?$AAI?$AAM?$AAe?$AAm?$AAo?$AAr?$AAy?$AAN?$AAV?$AAS?$AA?$AA@ 00062114     UefiHandleParsingLib:UefiHandleParsingLib.obj
 0002:00003138       ??_C@_1CE@GDAFGIDL@?$AAE?$AAf?$AAi?$AAM?$AAe?$AAm?$AAo?$AAr?$AAy?$AAM?$AAa?$AAp?$AAp?$AAe?$AAd?$AAI?$AAO?$AA?$AA@ 00062138     UefiHandleParsingLib:UefiHandleParsingLib.obj
 0002:0000315c       ??_C@_1DG@HOCHGHPB@?$AAE?$AAf?$AAi?$AAM?$AAe?$AAm?$AAo?$AAr?$AAy?$AAM?$AAa?$AAp?$AAp?$AAe?$AAd?$AAI?$AAO?$AAP?$AAo?$AAr?$AAt?$AAS?$AAp?$AAa?$AAc?$AAe?$AA?$AA@ 0006215c     UefiHandleParsingLib:UefiHandleParsingLib.obj
 0002:00003194       ??_C@_1BG@HFPGOEBG@?$AAE?$AAf?$AAi?$AAP?$AAa?$AAl?$AAC?$AAo?$AAd?$AAe?$AA?$AA@ 00062194     UefiHandleParsingLib:UefiHandleParsingLib.obj
 0002:000031ac       ??_C@_1CC@PCJPCHMF@?$AAE?$AAf?$AAi?$AAM?$AAa?$AAx?$AAM?$AAe?$AAm?$AAo?$AAr?$AAy?$AAT?$AAy?$AAp?$AAe?$AA?$AA@ 000621ac     UefiHandleParsingLib:UefiHandleParsingLib.obj
 0002:000031d0       ??_C@_0EF@JMJKJFEK@c?3?2edk2?2ShellPkg?2Library?2UefiHan@ 000621d0     UefiHandleParsingLib:UefiHandleParsingLib.obj
 0002:00003218       ??_C@_1EM@PFGNLEFJ@?$AAP?$AAi?$AAx?$AAe?$AAl?$AAR?$AAe?$AAd?$AAG?$AAr?$AAe?$AAe?$AAn?$AAB?$AAl?$AAu?$AAe?$AAR?$AAe?$AAs?$AAe?$AAr?$AAv?$AAe?$AAd?$AA8?$AAB?$AAi?$AAt?$AAP?$AAe?$AAr@ 00062218     UefiHandleParsingLib:UefiHandleParsingLib.obj
 0002:00003268       ??_C@_1EM@LHEAPBOF@?$AAP?$AAi?$AAx?$AAe?$AAl?$AAB?$AAl?$AAu?$AAe?$AAG?$AAr?$AAe?$AAe?$AAn?$AAR?$AAe?$AAd?$AAR?$AAe?$AAs?$AAe?$AAr?$AAv?$AAe?$AAd?$AA8?$AAB?$AAi?$AAt?$AAP?$AAe?$AAr@ 00062268     UefiHandleParsingLib:UefiHandleParsingLib.obj
 0002:000032b4       ??_C@_1BK@KCONFGPO@?$AAP?$AAi?$AAx?$AAe?$AAl?$AAB?$AAi?$AAt?$AAM?$AAa?$AAs?$AAk?$AA?$AA@ 000622b4     UefiHandleParsingLib:UefiHandleParsingLib.obj
 0002:000032d0       ??_C@_1BK@PDALNFFI@?$AAP?$AAi?$AAx?$AAe?$AAl?$AAB?$AAl?$AAt?$AAO?$AAn?$AAl?$AAy?$AA?$AA@ 000622d0     UefiHandleParsingLib:UefiHandleParsingLib.obj
 0002:000032ec       ??_C@_1BO@LDACBODH@?$AAP?$AAi?$AAx?$AAe?$AAl?$AAF?$AAo?$AAr?$AAm?$AAa?$AAt?$AAM?$AAa?$AAx?$AA?$AA@ 000622ec     UefiHandleParsingLib:UefiHandleParsingLib.obj
 0002:0000330c       ??_C@_0CI@CDMOAKJF@mHandleParsingHiiHandle?5?$CB?$DN?5?$CI?$CIvoi@ 0006230c     UefiHandleParsingLib:UefiHandleParsingLib.obj
 0002:00003334       ??_C@_1BO@IKNCGJNK@?$AAG?$AAr?$AAa?$AAp?$AAh?$AAi?$AAc?$AAs?$AAO?$AAu?$AAt?$AAp?$AAu?$AAt?$AA?$AA@ 00062334     UefiHandleParsingLib:UefiHandleParsingLib.obj
 0002:00003354       ??_C@_1BO@COINAGCD@?$AAE?$AAD?$AAI?$AAD?$AAD?$AAi?$AAs?$AAc?$AAo?$AAv?$AAe?$AAr?$AAe?$AAd?$AA?$AA@ 00062354     UefiHandleParsingLib:UefiHandleParsingLib.obj
 0002:00003374       ??_C@_1BG@HHDKNMEH@?$AAE?$AAD?$AAI?$AAD?$AAA?$AAc?$AAt?$AAi?$AAv?$AAe?$AA?$AA@ 00062374     UefiHandleParsingLib:UefiHandleParsingLib.obj
 0002:0000338c       ??_C@_1CA@DFHAODOI@?$AAP?$AAc?$AAi?$AAR?$AAo?$AAo?$AAt?$AAB?$AAr?$AAi?$AAd?$AAg?$AAe?$AAI?$AAo?$AA?$AA@ 0006238c     UefiHandleParsingLib:UefiHandleParsingLib.obj
 0002:000033ac       ??_C@_19FGKAJLAG@?$AA?$AN?$AA?6?$AA?$CF?$AAs?$AA?$AA@ 000623ac     UefiHandleParsingLib:UefiHandleParsingLib.obj
 0002:000033b8       ??_C@_1EG@OKJPEDO@?$AA?$CF?$AA?$CF?$AAH?$AA?$CF?$AA0?$AA2?$AAx?$AA?5?$AA?5?$AA?5?$AA?5?$AA?$CF?$AA0?$AA1?$AA6?$AAl?$AAx?$AA?5?$AA?5?$AA?$CF?$AA0?$AA1?$AA6?$AAl?$AAx?$AA?5?$AA?5?$AA?$CF?$AA0?$AA2?$AAx?$AA?$CF@ 000623b8     UefiHandleParsingLib:UefiHandleParsingLib.obj
 0002:00003400       ??_C@_0DB@FBDJHOFE@Dev?5?$CB?$DN?5?$CI?$CIvoid?5?$CK?$CJ?50?$CJ?5?$CG?$CG?5Dev?9?$DOMode@ 00062400     UefiHandleParsingLib:UefiHandleParsingLib.obj
 0002:00003434       ??_C@_1O@MNMPKDNM@?$AA0?$AAx?$AA?$CF?$AA0?$AA8?$AAx?$AA?$AA@ 00062434     UefiHandleParsingLib:UefiHandleParsingLib.obj
 0002:00003444       ??_C@_15OJKDPEFE@?$AA?5?$AA?5?$AA?$AA@ 00062444     UefiHandleParsingLib:UefiHandleParsingLib.obj
 0002:0000344c       ??_C@_1O@LIKMPGGN@?$AAc?$AAa?$AAc?$AAh?$AAe?$AAd?$AA?$AA@ 0006244c     UefiHandleParsingLib:UefiHandleParsingLib.obj
 0002:0000345c       ??_C@_1BA@DMPLCOBD@?$AA?$CB?$AAc?$AAa?$AAc?$AAh?$AAe?$AAd?$AA?$AA@ 0006245c     UefiHandleParsingLib:UefiHandleParsingLib.obj
 0002:0000346c       ??_C@_15GLJCBFMD@?$AAr?$AAo?$AA?$AA@ 0006246c     UefiHandleParsingLib:UefiHandleParsingLib.obj
 0002:00003474       ??_C@_15PODPGKLD@?$AAr?$AAw?$AA?$AA@ 00062474     UefiHandleParsingLib:UefiHandleParsingLib.obj
 0002:0000347c       ??_C@_1BE@DLNCBOIL@?$AAp?$AAa?$AAr?$AAt?$AAi?$AAt?$AAi?$AAo?$AAn?$AA?$AA@ 0006247c     UefiHandleParsingLib:UefiHandleParsingLib.obj
 0002:00003490       ??_C@_17EBOIPCKB@?$AAr?$AAa?$AAw?$AA?$AA@ 00062490     UefiHandleParsingLib:UefiHandleParsingLib.obj
 0002:00003498       ??_C@_1BK@FJPEHKJB@?$AAn?$AAo?$AAt?$AA?9?$AAp?$AAr?$AAe?$AAs?$AAe?$AAn?$AAt?$AA?5?$AA?$AA@ 00062498     UefiHandleParsingLib:UefiHandleParsingLib.obj
 0002:000034b4       ??_C@_1BG@LGHNKLOH@?$AAR?$AAe?$AAm?$AAo?$AAv?$AAa?$AAb?$AAl?$AAe?$AA?5?$AA?$AA@ 000624b4     UefiHandleParsingLib:UefiHandleParsingLib.obj
 0002:000034cc       ??_C@_1O@GMAGOFCH@?$AAF?$AAi?$AAx?$AAe?$AAd?$AA?5?$AA?$AA@ 000624cc     UefiHandleParsingLib:UefiHandleParsingLib.obj
 0002:000034dc       ??_C@_1M@OCCHOKMB@?$AAI?$AAA?$AA?9?$AA3?$AA2?$AA?$AA@ 000624dc     UefiHandleParsingLib:UefiHandleParsingLib.obj
 0002:000034e8       ??_C@_17BOPOPGEG@?$AAI?$AAP?$AAF?$AA?$AA@ 000624e8     UefiHandleParsingLib:UefiHandleParsingLib.obj
 0002:000034f0       ??_C@_17DAJBLAKL@?$AAE?$AAB?$AAC?$AA?$AA@ 000624f0     UefiHandleParsingLib:UefiHandleParsingLib.obj
 0002:000034f8       ??_C@_1BM@NDIOGKH@?$AA?$AN?$AA?6?$AA?5?$AA?5?$AA?5?$AA?5?$AA?5?$AA?5?$AA?5?$AA?$CF?$AA0?$AA2?$AAx?$AA?$AA@ 000624f8     UefiHandleParsingLib:UefiHandleParsingLib.obj
 0002:00003514       ??_C@_19NHPFCCLF@?$AA?$CF?$AA0?$AA2?$AAx?$AA?$AA@ 00062514     UefiHandleParsingLib:UefiHandleParsingLib.obj
 0002:00003520       ??_C@_1BI@LHMCEDBK@?$AAA?$AAd?$AAa?$AAp?$AAt?$AAe?$AAr?$AAI?$AAn?$AAf?$AAo?$AA?$AA@ 00062520     UefiHandleParsingLib:UefiHandleParsingLib.obj
 0002:00003538       ??_C@_1DM@EKBICOFE@?$AAg?$AAE?$AAf?$AAi?$AAA?$AAd?$AAa?$AAp?$AAt?$AAe?$AAr?$AAI?$AAn?$AAf?$AAo?$AAM?$AAe?$AAd?$AAi?$AAa?$AAS?$AAt?$AAa?$AAt?$AAe?$AAG?$AAu?$AAi?$AAd?$AA?$AA@ 00062538     UefiHandleParsingLib:UefiHandleParsingLib.obj
 0002:00003574       ??_C@_1DO@IEEOKFIB@?$AAg?$AAE?$AAf?$AAi?$AAA?$AAd?$AAa?$AAp?$AAt?$AAe?$AAr?$AAI?$AAn?$AAf?$AAo?$AAN?$AAe?$AAt?$AAw?$AAo?$AAr?$AAk?$AAB?$AAo?$AAo?$AAt?$AAG?$AAu?$AAi?$AAd?$AA?$AA@ 00062574     UefiHandleParsingLib:UefiHandleParsingLib.obj
 0002:000035b8       ??_C@_1EC@HNCAJDGK@?$AAg?$AAE?$AAf?$AAi?$AAA?$AAd?$AAa?$AAp?$AAt?$AAe?$AAr?$AAI?$AAn?$AAf?$AAo?$AAS?$AAa?$AAn?$AAM?$AAa?$AAc?$AAA?$AAd?$AAd?$AAr?$AAe?$AAs?$AAs?$AAG?$AAu?$AAi?$AAd@ 000625b8     UefiHandleParsingLib:UefiHandleParsingLib.obj
 0002:00003600       ??_C@_1EG@HIHCKIMP@?$AAg?$AAE?$AAf?$AAi?$AAA?$AAd?$AAa?$AAp?$AAt?$AAe?$AAr?$AAI?$AAn?$AAf?$AAo?$AAU?$AAn?$AAd?$AAi?$AAI?$AAp?$AAv?$AA6?$AAS?$AAu?$AAp?$AAp?$AAo?$AAr?$AAt?$AAG?$AAu@ 00062600     UefiHandleParsingLib:UefiHandleParsingLib.obj
 0002:00003648       ??_C@_1CA@MBEPGFBE@?$AAU?$AAn?$AAk?$AAn?$AAo?$AAw?$AAn?$AAI?$AAn?$AAf?$AAo?$AAT?$AAy?$AAp?$AAe?$AA?$AA@ 00062648     UefiHandleParsingLib:UefiHandleParsingLib.obj
 0002:00003668       ??_C@_1CG@JPDLKBMG@?$AAF?$AAi?$AAr?$AAm?$AAw?$AAa?$AAr?$AAe?$AAM?$AAa?$AAn?$AAa?$AAg?$AAe?$AAm?$AAe?$AAn?$AAt?$AA?$AA@ 00062668     UefiHandleParsingLib:UefiHandleParsingLib.obj
 0002:00003690       ??_C@_19KLMLHLJG@?$AAN?$AAo?$AAn?$AAe?$AA?$AA@ 00062690     UefiHandleParsingLib:UefiHandleParsingLib.obj
 0002:0000369c       ??_C@_13LLDNKHDC@?$AA?$CI?$AA?$AA@ 0006269c     UefiHandleParsingLib:UefiHandleParsingLib.obj
 0002:000036a0       ??_C@_1EC@DFECDMDI@?$AA?5?$AAI?$AAM?$AAA?$AAG?$AAE?$AA_?$AAA?$AAT?$AAT?$AAR?$AAI?$AAB?$AAU?$AAT?$AAE?$AA_?$AAI?$AAM?$AAA?$AAG?$AAE?$AA_?$AAU?$AAP?$AAD?$AAA?$AAT?$AAA?$AAB?$AAL?$AAE@ 000626a0     UefiHandleParsingLib:UefiHandleParsingLib.obj
 0002:000036e8       ??_C@_1EA@MKHJJKBH@?$AA?5?$AAI?$AAM?$AAA?$AAG?$AAE?$AA_?$AAA?$AAT?$AAT?$AAR?$AAI?$AAB?$AAU?$AAT?$AAE?$AA_?$AAR?$AAE?$AAS?$AAE?$AAT?$AA_?$AAR?$AAE?$AAQ?$AAU?$AAI?$AAR?$AAE?$AAD?$AA?$AA@ 000626e8     UefiHandleParsingLib:UefiHandleParsingLib.obj
 0002:00003728       ??_C@_1FC@DDNKJMEO@?$AA?5?$AAI?$AAM?$AAA?$AAG?$AAE?$AA_?$AAA?$AAT?$AAT?$AAR?$AAI?$AAB?$AAU?$AAT?$AAE?$AA_?$AAA?$AAU?$AAT?$AAH?$AAE?$AAN?$AAT?$AAI?$AAC?$AAA?$AAT?$AAI?$AAO?$AAN?$AA_@ 00062728     UefiHandleParsingLib:UefiHandleParsingLib.obj
 0002:0000377c       ??_C@_1DA@IKPCBJLI@?$AA?5?$AAI?$AAM?$AAA?$AAG?$AAE?$AA_?$AAA?$AAT?$AAT?$AAR?$AAI?$AAB?$AAU?$AAT?$AAE?$AA_?$AAI?$AAN?$AA_?$AAU?$AAS?$AAE?$AA?$AA@ 0006277c     UefiHandleParsingLib:UefiHandleParsingLib.obj
 0002:000037ac       ??_C@_1DI@KCIAMJKA@?$AA?5?$AAI?$AAM?$AAA?$AAG?$AAE?$AA_?$AAA?$AAT?$AAT?$AAR?$AAI?$AAB?$AAU?$AAT?$AAE?$AA_?$AAU?$AAE?$AAF?$AAI?$AA_?$AAI?$AAM?$AAA?$AAG?$AAE?$AA?$AA@ 000627ac     UefiHandleParsingLib:UefiHandleParsingLib.obj
 0002:000037e4       ??_C@_15JEKLLLNO@?$AA?5?$AA?$CJ?$AA?$AA@ 000627e4     UefiHandleParsingLib:UefiHandleParsingLib.obj
 0002:000037ec       ??_C@_1O@HOICMPAG@?$AA?$CF?$AAs?$AA?$AN?$AA?6?$AA?$CF?$AAs?$AA?$AA@ 000627ec     UefiHandleParsingLib:UefiHandleParsingLib.obj
 0002:000037fc       ??_C@_0M@GGBOIEOM@NameID?5?$CB?$DN?50?$AA@ 000627fc     UefiHandleParsingLib:UefiHandleParsingLib.obj
 0002:00003808       ??_C@_0BK@GAPIBOAM@TheHandle?5?$CB?$DN?5?$CI?$CIvoid?5?$CK?$CJ?50?$CJ?$AA@ 00062808     UefiHandleParsingLib:UefiHandleParsingLib.obj
 0002:00003824       ??_C@_0BM@COIKDDAB@HandleCount?5?$CB?$DN?5?$CI?$CIvoid?5?$CK?$CJ?50?$CJ?$AA@ 00062824     UefiHandleParsingLib:UefiHandleParsingLib.obj
 0002:00003840       ??_C@_0BN@BOHIKNIF@HandleBuffer?5?$CB?$DN?5?$CI?$CIvoid?5?$CK?$CJ?50?$CJ?$AA@ 00062840     UefiHandleParsingLib:UefiHandleParsingLib.obj
 0002:00003860       ??_C@_0BL@FBKBNKMC@HandleType?5?$CB?$DN?5?$CI?$CIvoid?5?$CK?$CJ?50?$CJ?$AA@ 00062860     UefiHandleParsingLib:UefiHandleParsingLib.obj
 0002:00003880       ??_C@_0EI@PBLAOGFL@DriverBindingHandle?5?$CB?$DN?5?$CI?$CIvoid?5?$CK?$CJ@ 00062880     UefiHandleParsingLib:UefiHandleParsingLib.obj
 0002:000038c8       ??_C@_0CE@NBHJFFJO@MatchingHandleCount?5?$CB?$DN?5?$CI?$CIvoid?5?$CK?$CJ@ 000628c8     UefiHandleParsingLib:UefiHandleParsingLib.obj
 0002:000038f0       ??_C@_0LH@DLLMLJLM@?$CIMatchingHandleBuffer?5?$DN?$DN?5?$CI?$CIvoid?5@ 000628f0     UefiHandleParsingLib:UefiHandleParsingLib.obj
 0002:000039a8       ??_C@_0CC@JOEHDGKB@DestinationBuffer?5?$CB?$DN?5?$CI?$CIvoid?5?$CK?$CJ?50@ 000629a8     UefiHandleParsingLib:UefiHandleParsingLib.obj
 0002:000039cc       ??_C@_0DN@KPGFHFKF@HandleList?$FL?$CITotalSize?1sizeof?$CIEFI@ 000629cc     UefiHandleParsingLib:UefiHandleParsingLib.obj
 0002:0000487c       _SupportLevel              0006387c     UefiShellCommandLib:UefiShellCommandLib.obj
 0002:0000488c       ??_C@_1BA@DNMMBOC@?$AAM?$AAi?$AAn?$AAi?$AAm?$AAa?$AAl?$AA?$AA@ 0006388c     UefiShellCommandLib:UefiShellCommandLib.obj
 0002:0000489c       ??_C@_1BE@HNPOGPLM@?$AAS?$AAc?$AAr?$AAi?$AAp?$AAt?$AAi?$AAn?$AAg?$AA?$AA@ 0006389c     UefiShellCommandLib:UefiShellCommandLib.obj
 0002:000048b0       ??_C@_1M@ECOAOPLN@?$AAB?$AAa?$AAs?$AAi?$AAc?$AA?$AA@ 000638b0     UefiShellCommandLib:UefiShellCommandLib.obj
 0002:000048bc       ??_C@_1BI@NFOKHDOD@?$AAI?$AAn?$AAt?$AAe?$AAr?$AAa?$AAc?$AAt?$AAi?$AAv?$AAe?$AA?$AA@ 000638bc     UefiShellCommandLib:UefiShellCommandLib.obj
 0002:000048d4       ??_C@_0CI@LPGDMEAP@BufferListEntry?9?$DOBuffer?5?$CB?$DN?5?$CI?$CIvoi@ 000638d4     UefiShellCommandLib:UefiShellCommandLib.obj
 0002:00004900       ??_C@_0ED@LCPMGPLN@c?3?2edk2?2ShellPkg?2Library?2UefiShe@ 00063900     UefiShellCommandLib:UefiShellCommandLib.obj
 0002:00004944       ??_C@_0BI@KIPBGMAD@MapNode?5?$CB?$DN?5?$CI?$CIvoid?5?$CK?$CJ?50?$CJ?$AA@ 00063944     UefiShellCommandLib:UefiShellCommandLib.obj
 0002:0000495c       ??_C@_0BO@MBONBKCA@CommandString?5?$CB?$DN?5?$CI?$CIvoid?5?$CK?$CJ?50?$CJ?$AA@ 0006395c     UefiShellCommandLib:UefiShellCommandLib.obj
 0002:0000497c       ??_C@_0CE@GJHPJEHO@Node?9?$DOCommandString?5?$CB?$DN?5?$CI?$CIvoid?5?$CK?$CJ@ 0006397c     UefiShellCommandLib:UefiShellCommandLib.obj
 0002:000049a0       ??_C@_02LFNMGJAP@en?$AA@   000639a0     UefiShellCommandLib:UefiShellCommandLib.obj
 0002:000049a4       ??_C@_0BP@MPGCBHML@GetManFileName?5?$CB?$DN?5?$CI?$CIvoid?5?$CK?$CJ?50?$CJ?$AA@ 000639a4     UefiShellCommandLib:UefiShellCommandLib.obj
 0002:000049c4       ??_C@_0BP@KLHDEOMH@CommandHandler?5?$CB?$DN?5?$CI?$CIvoid?5?$CK?$CJ?50?$CJ?$AA@ 000639c4     UefiShellCommandLib:UefiShellCommandLib.obj
 0002:000049e4       ??_C@_0BM@OPPIBMMG@ProfileName?5?$CB?$DN?5?$CI?$CIvoid?5?$CK?$CJ?50?$CJ?$AA@ 000639e4     UefiShellCommandLib:UefiShellCommandLib.obj
 0002:00004a00       ??_C@_0FK@HAGBHMMB@?$CImProfileList?5?$DN?$DN?5?$CI?$CIvoid?5?$CK?$CJ?50?$CJ?5?$CG?$CG@ 00063a00     UefiShellCommandLib:UefiShellCommandLib.obj
 0002:00004a5c       ??_C@_0BI@BLOGOJPJ@Command?5?$CB?$DN?5?$CI?$CIvoid?5?$CK?$CJ?50?$CJ?$AA@ 00063a5c     UefiShellCommandLib:UefiShellCommandLib.obj
 0002:00004a74       ??_C@_0BM@KBBHHLCN@Node?9?$DOAlias?5?$CB?$DN?5?$CI?$CIvoid?5?$CK?$CJ?50?$CJ?$AA@ 00063a74     UefiShellCommandLib:UefiShellCommandLib.obj
 0002:00004a90       ??_C@_0BG@NGLBKNON@Type?5?$DM?5MappingTypeMax?$AA@ 00063a90     UefiShellCommandLib:UefiShellCommandLib.obj
 0002:00004aa8       ??_C@_1M@LEDCCPHA@?$AAF?$AAS?$AA?$CF?$AAd?$AA?3?$AA?$AA@ 00063aa8     UefiShellCommandLib:UefiShellCommandLib.obj
 0002:00004ab4       ??_C@_1O@GAMFIKPJ@?$AAB?$AAL?$AAK?$AA?$CF?$AAd?$AA?3?$AA?$AA@ 00063ab4     UefiShellCommandLib:UefiShellCommandLib.obj
 0002:00004ac4       ??_C@_1BK@CAPKGIMF@?$AA?2?$AAe?$AAf?$AAi?$AA?2?$AAt?$AAo?$AAo?$AAl?$AAs?$AA?2?$AA?$DL?$AA?$AA@ 00063ac4     UefiShellCommandLib:UefiShellCommandLib.obj
 0002:00004ae0       ??_C@_1BI@PKLDNON@?$AA?2?$AAe?$AAf?$AAi?$AA?2?$AAb?$AAo?$AAo?$AAt?$AA?2?$AA?$DL?$AA?$AA@ 00063ae0     UefiShellCommandLib:UefiShellCommandLib.obj
 0002:00004af8       ??_C@_0BP@CPABMANL@NewDefaultName?5?$CB?$DN?5?$CI?$CIvoid?5?$CK?$CJ?50?$CJ?$AA@ 00063af8     UefiShellCommandLib:UefiShellCommandLib.obj
 0002:00004b18       ??_C@_1CM@PBLCLIC@?$AA?$CF?$AA?$CK?$AAa?$AA?$CF?$AA0?$AA8?$AAX?$AA?3?$AA?5?$AA?$CF?$AA?9?$AA4?$AA8?$AAa?$AA?5?$AA?$CK?$AA?$CF?$AAa?$AA?$CK?$AA?$AN?$AA?6?$AA?$AA@ 00063b18     UefiShellCommandLib:UefiShellCommandLib.obj
 0002:00004b50       _mHexStr                   00063b50     DxePrintLibPrint2Protocol:PrintLib.obj
 0002:00004b60       ??_C@_13GAMECHAC@?$AAF?$AA?$AA@ 00063b60     UefiShellCommandLib:ConsistMapping.obj
 0002:00004b64       ??_C@_15FMDBLIIP@?$AAF?$AAP?$AA?$AA@ 00063b64     UefiShellCommandLib:ConsistMapping.obj
 0002:00004b6c       ??_C@_15LJEABJDH@?$AAH?$AAD?$AA?$AA@ 00063b6c     UefiShellCommandLib:ConsistMapping.obj
 0002:00004b74       ??_C@_15NDIHOJPE@?$AAC?$AAD?$AA?$AA@ 00063b74     UefiShellCommandLib:ConsistMapping.obj
 0002:00004b7c       ??_C@_0BE@LNIAOOBG@Str?5?$CB?$DN?5?$CI?$CIvoid?5?$CK?$CJ?50?$CJ?$AA@ 00063b7c     UefiShellCommandLib:ConsistMapping.obj
 0002:00004b90       ??_C@_0DO@JPLKEMKF@c?3?2edk2?2ShellPkg?2Library?2UefiShe@ 00063b90     UefiShellCommandLib:ConsistMapping.obj
 0002:00004bd0       ??_C@_0BM@HIGDLIKJ@MappingItem?5?$CB?$DN?5?$CI?$CIvoid?5?$CK?$CJ?50?$CJ?$AA@ 00063bd0     UefiShellCommandLib:ConsistMapping.obj
 0002:00004bec       ??_C@_17OADJODNB@?$AA?$CF?$AAl?$AAd?$AA?$AA@ 00063bec     UefiShellCommandLib:ConsistMapping.obj
 0002:00004bf4       ??_C@_0DD@DMJAEFC@Str?5?$CB?$DN?5?$CI?$CIvoid?5?$CK?$CJ?50?$CJ?5?$CG?$CG?5MappingIt@ 00063bf4     UefiShellCommandLib:ConsistMapping.obj
 0002:00004c28       ??_C@_15FEFLCNCJ@?$AA1?$AA6?$AA?$AA@ 00063c28     UefiShellCommandLib:ConsistMapping.obj
 0002:00004c30       ??_C@_17KNEILPBN@?$AA1?$AA?$CF?$AAc?$AA?$AA@ 00063c30     UefiShellCommandLib:ConsistMapping.obj
 0002:00004c38       ??_C@_0DE@FCJINMCJ@Guid?5?$CB?$DN?5?$CI?$CIvoid?5?$CK?$CJ?50?$CJ?5?$CG?$CG?5MappingI@ 00063c38     UefiShellCommandLib:ConsistMapping.obj
 0002:00004c6c       ??_C@_15LPKNAFGD@?$AA?$CF?$AAg?$AA?$AA@ 00063c6c     UefiShellCommandLib:ConsistMapping.obj
 0002:00004c74       ??_C@_0BM@MPGMLKPE@DevicePath1?5?$CB?$DN?5?$CI?$CIvoid?5?$CK?$CJ?50?$CJ?$AA@ 00063c74     UefiShellCommandLib:ConsistMapping.obj
 0002:00004c90       ??_C@_0BM@CFOKGHJG@DevicePath2?5?$CB?$DN?5?$CI?$CIvoid?5?$CK?$CJ?50?$CJ?$AA@ 00063c90     UefiShellCommandLib:ConsistMapping.obj
 0002:00004cac       ??_C@_0BP@IFDAIIIE@DevicePathNode?5?$CB?$DN?5?$CI?$CIvoid?5?$CK?$CJ?50?$CJ?$AA@ 00063cac     UefiShellCommandLib:ConsistMapping.obj
 0002:00004ccc       ??_C@_0BG@CBCHCMKB@UsbIo?5?$CB?$DN?5?$CI?$CIvoid?5?$CK?$CJ?50?$CJ?$AA@ 00063ccc     UefiShellCommandLib:ConsistMapping.obj
 0002:00004ce4       ??_C@_1CC@LFFNJKKE@?$AA?$CF?$AA0?$AA2?$AAx?$AA?$CF?$AA0?$AA2?$AAx?$AA?$CF?$AA0?$AA2?$AAx?$AA?$CF?$AA0?$AA2?$AAx?$AA?$AA@ 00063ce4     UefiShellCommandLib:ConsistMapping.obj
 0002:00004d08       ??_C@_17PKPGALPG@?$AA?$CF?$AAl?$AAx?$AA?$AA@ 00063d08     UefiShellCommandLib:ConsistMapping.obj
 0002:00004d10       ??_C@_1O@LHNJIAPJ@?$AAa?$AAt?$AAt?$AAr?$AAi?$AAb?$AA?$AA@ 00063d10     UefiShellLevel2CommandsLib:UefiShellLevel2CommandsLib.obj
 0002:00004d20       ??_C@_15HEBJEDPM@?$AAc?$AAd?$AA?$AA@ 00063d20     UefiShellLevel2CommandsLib:UefiShellLevel2CommandsLib.obj
 0002:00004d28       ??_C@_15KLGCIDDE@?$AAc?$AAp?$AA?$AA@ 00063d28     UefiShellLevel2CommandsLib:UefiShellLevel2CommandsLib.obj
 0002:00004d30       ??_C@_19KJIJHNML@?$AAl?$AAo?$AAa?$AAd?$AA?$AA@ 00063d30     UefiShellLevel2CommandsLib:UefiShellLevel2CommandsLib.obj
 0002:00004d3c       ??_C@_1M@KBLMDDDF@?$AAm?$AAk?$AAd?$AAi?$AAr?$AA?$AA@ 00063d3c     UefiShellLevel2CommandsLib:UefiShellLevel2CommandsLib.obj
 0002:00004d48       ??_C@_15LEADLNJI@?$AAm?$AAv?$AA?$AA@ 00063d48     UefiShellLevel2CommandsLib:UefiShellLevel2CommandsLib.obj
 0002:00004d50       ??_C@_1M@PBHODJJJ@?$AAp?$AAa?$AAr?$AAs?$AAe?$AA?$AA@ 00063d50     UefiShellLevel2CommandsLib:UefiShellLevel2CommandsLib.obj
 0002:00004d5c       ??_C@_1M@OFCONGJO@?$AAr?$AAe?$AAs?$AAe?$AAt?$AA?$AA@ 00063d5c     UefiShellLevel2CommandsLib:UefiShellLevel2CommandsLib.obj
 0002:00004d68       ??_C@_17EGGBPMH@?$AAs?$AAe?$AAt?$AA?$AA@ 00063d68     UefiShellLevel2CommandsLib:UefiShellLevel2CommandsLib.obj
 0002:00004d70       ??_C@_15EIIBJOAP@?$AAl?$AAs?$AA?$AA@ 00063d70     UefiShellLevel2CommandsLib:UefiShellLevel2CommandsLib.obj
 0002:00004d78       ??_C@_15MBJLNNEI@?$AAr?$AAm?$AA?$AA@ 00063d78     UefiShellLevel2CommandsLib:UefiShellLevel2CommandsLib.obj
 0002:00004d80       ??_C@_17HILAENLF@?$AAv?$AAo?$AAl?$AA?$AA@ 00063d80     UefiShellLevel2CommandsLib:UefiShellLevel2CommandsLib.obj
 0002:00004d88       ??_C@_17OHLFFIIF@?$AAd?$AAe?$AAl?$AA?$AA@ 00063d88     UefiShellLevel2CommandsLib:UefiShellLevel2CommandsLib.obj
 0002:00004d90       ??_C@_17CALBLIFC@?$AAd?$AAi?$AAr?$AA?$AA@ 00063d90     UefiShellLevel2CommandsLib:UefiShellLevel2CommandsLib.obj
 0002:00004d98       ??_C@_19DCHLHIDK@?$AAc?$AAo?$AAp?$AAy?$AA?$AA@ 00063d98     UefiShellLevel2CommandsLib:UefiShellLevel2CommandsLib.obj
 0002:00004da4       ??_C@_15EOBDCCIM@?$AAm?$AAd?$AA?$AA@ 00063da4     UefiShellLevel2CommandsLib:UefiShellLevel2CommandsLib.obj
 0002:00004dac       ??_C@_19PEPDKPA@?$AAc?$AAd?$AA?4?$AA?4?$AA?$AA@ 00063dac     UefiShellLevel2CommandsLib:UefiShellLevel2CommandsLib.obj
 0002:00004db8       ??_C@_1M@IHNHPNHP@?$AAc?$AAd?$AA?5?$AA?4?$AA?4?$AA?$AA@ 00063db8     UefiShellLevel2CommandsLib:UefiShellLevel2CommandsLib.obj
 0002:00004dc4       ??_C@_17NGAHHKJI@?$AAc?$AAd?$AA?2?$AA?$AA@ 00063dc4     UefiShellLevel2CommandsLib:UefiShellLevel2CommandsLib.obj
 0002:00004dcc       ??_C@_19PEHDDDJH@?$AAc?$AAd?$AA?5?$AA?2?$AA?$AA@ 00063dcc     UefiShellLevel2CommandsLib:UefiShellLevel2CommandsLib.obj
 0002:00004dd8       ??_C@_17PHGIKIKC@?$AAr?$AAe?$AAn?$AA?$AA@ 00063dd8     UefiShellLevel2CommandsLib:UefiShellLevel2CommandsLib.obj
 0002:00004de0       ??_C@_19OACEEDLD@?$AAm?$AAo?$AAv?$AAe?$AA?$AA@ 00063de0     UefiShellLevel2CommandsLib:UefiShellLevel2CommandsLib.obj
 0002:00004dec       ??_C@_1M@CACIMNJO@?$AAm?$AAo?$AAu?$AAn?$AAt?$AA?$AA@ 00063dec     UefiShellLevel2CommandsLib:UefiShellLevel2CommandsLib.obj
 0002:00004df8       ??_C@_19EEHDNLEA@?$AAd?$AAa?$AAt?$AAe?$AA?$AA@ 00063df8     UefiShellLevel2CommandsLib:UefiShellLevel2CommandsLib.obj
 0002:00004e04       ??_C@_19JEOBBCEO@?$AAt?$AAi?$AAm?$AAe?$AA?$AA@ 00063e04     UefiShellLevel2CommandsLib:UefiShellLevel2CommandsLib.obj
 0002:00004e10       ??_C@_1BC@ODGONKJC@?$AAt?$AAi?$AAm?$AAe?$AAz?$AAo?$AAn?$AAe?$AA?$AA@ 00063e10     UefiShellLevel2CommandsLib:UefiShellLevel2CommandsLib.obj
 0002:00004e28       ??_C@_0FB@LCCOGKDO@c?3?2edk2?2ShellPkg?2Library?2UefiShe@ 00063e28     UefiShellLevel2CommandsLib:UefiShellLevel2CommandsLib.obj
 0002:00004e7c       ??_C@_0BH@GAGHCOEK@Source?5?$CB?$DN?5?$CI?$CIvoid?5?$CK?$CJ?50?$CJ?$AA@ 00063e7c     UefiShellLevel2CommandsLib:UefiShellLevel2CommandsLib.obj
 0002:00004e94       ??_C@_0BH@CDOKNGOM@Target?5?$CB?$DN?5?$CI?$CIvoid?5?$CK?$CJ?50?$CJ?$AA@ 00063e94     UefiShellLevel2CommandsLib:UefiShellLevel2CommandsLib.obj
 0002:00004eac       _mFileName                 00063eac     UefiShellLevel2CommandsLib:UefiShellLevel2CommandsLib.obj
 0002:00004ec8       ??_C@_15CGIMIPEN@?$AA?9?$AAq?$AA?$AA@ 00063ec8     UefiShellLevel2CommandsLib:Rm.obj
 0002:00004ed0       ??_C@_0DJ@PGNPFKKL@c?3?2edk2?2ShellPkg?2Library?2UefiShe@ 00063ed0     UefiShellLevel2CommandsLib:Rm.obj
 0002:00004f20       ??_C@_15EBELCIOA@?$AA?9?$AAd?$AA?$AA@ 00063f20     UefiShellLevel2CommandsLib:Set.obj
 0002:00004f28       ??_C@_15LLFLLHPE@?$AA?9?$AAv?$AA?$AA@ 00063f28     UefiShellLevel2CommandsLib:Set.obj
 0002:00004f30       ??_C@_0DK@CIPMPEGP@c?3?2edk2?2ShellPkg?2Library?2UefiShe@ 00063f30     UefiShellLevel2CommandsLib:Set.obj
 0002:00004f88       ??_C@_13PFGJFIHC@?$AA?$FO?$AA?$AA@ 00063f88     UefiShellLevel2CommandsLib:Vol.obj
 0002:00004f8c       ??_C@_13KJIIAINM@?$AA?$CL?$AA?$AA@ 00063f8c     UefiShellLevel2CommandsLib:Vol.obj
 0002:00004f90       ??_C@_13MCLHKIEA@?$AA?$FL?$AA?$AA@ 00063f90     UefiShellLevel2CommandsLib:Vol.obj
 0002:00004f94       ??_C@_13OHNMPHJM@?$AA?$FN?$AA?$AA@ 00063f94     UefiShellLevel2CommandsLib:Vol.obj
 0002:00004f98       ??_C@_13GEEGGHPK@?$AA?$DM?$AA?$AA@ 00063f98     UefiShellLevel2CommandsLib:Vol.obj
 0002:00004f9c       ??_C@_13MOEPKPHB@?$AA?$DO?$AA?$AA@ 00063f9c     UefiShellLevel2CommandsLib:Vol.obj
 0002:00004fa0       ??_C@_13CGOKJPIL@?$AA?1?$AA?$AA@ 00063fa0     UefiShellLevel2CommandsLib:Vol.obj
 0002:00004fa4       ??_C@_0BI@OHKIGLJK@SysInfo?5?$CB?$DN?5?$CI?$CIvoid?5?$CK?$CJ?50?$CJ?$AA@ 00063fa4     UefiShellLevel2CommandsLib:Vol.obj
 0002:00004fbc       ??_C@_0DK@KHCMACAN@c?3?2edk2?2ShellPkg?2Library?2UefiShe@ 00063fbc     UefiShellLevel2CommandsLib:Vol.obj
 0002:00004ff8       ??_C@_13BPINEIPE@?$AAr?$AA?$AA@ 00063ff8     UefiShellLevel2CommandsLib:Vol.obj
 0002:00004ffc       ??_C@_15COPGMIIE@?$AA?9?$AAn?$AA?$AA@ 00063ffc     UefiShellLevel2CommandsLib:Vol.obj
 0002:00005004       ??_C@_15GKAHMKIN@?$AA?3?$AA?2?$AA?$AA@ 00064004     UefiShellLevel2CommandsLib:Vol.obj
 0002:00005028       ??_C@_15DOHNAJB@?$AA?9?$AAw?$AA?$AA@ 00064028     UefiShellLevel2CommandsLib:Reset.obj
 0002:00005030       ??_C@_15IMIFEHMG@?$AA?9?$AAs?$AA?$AA@ 00064030     UefiShellLevel2CommandsLib:Reset.obj
 0002:00005038       ??_C@_15NMJMBAFJ@?$AA?9?$AAc?$AA?$AA@ 00064038     UefiShellLevel2CommandsLib:Reset.obj
 0002:00005040       ??_C@_1M@GFBJCLMD@?$AA?9?$AAf?$AAw?$AAu?$AAi?$AA?$AA@ 00064040     UefiShellLevel2CommandsLib:Reset.obj
 0002:0000504c       ??_C@_0DM@BHPEAMEH@c?3?2edk2?2ShellPkg?2Library?2UefiShe@ 0006404c     UefiShellLevel2CommandsLib:Reset.obj
 0002:00005088       ??_C@_1CO@MENFEBKM@?$AAO?$AAs?$AAI?$AAn?$AAd?$AAi?$AAc?$AAa?$AAt?$AAi?$AAo?$AAn?$AAs?$AAS?$AAu?$AAp?$AAp?$AAo?$AAr?$AAt?$AAe?$AAd?$AA?$AA@ 00064088     UefiShellLevel2CommandsLib:Reset.obj
 0002:000050b8       ??_C@_1BM@MDLAABPK@?$AAO?$AAs?$AAI?$AAn?$AAd?$AAi?$AAc?$AAa?$AAt?$AAi?$AAo?$AAn?$AAs?$AA?$AA@ 000640b8     UefiShellLevel2CommandsLib:Reset.obj
 0002:000050d4       ??_C@_1DC@HCBBIEMO@?$AAR?$AAe?$AAs?$AAe?$AAt?$AA?5?$AAw?$AAi?$AAt?$AAh?$AA?5?$AA?$CF?$AAs?$AA?5?$AA?$CI?$AA?$CF?$AAd?$AA?5?$AAb?$AAy?$AAt?$AAe?$AAs?$AA?$CJ?$AA?$AA@ 000640d4     UefiShellLevel2CommandsLib:Reset.obj
 0002:00005138       ??_C@_0BJ@COCMLIKB@TempList?5?$CB?$DN?5?$CI?$CIvoid?5?$CK?$CJ?50?$CJ?$AA@ 00064138     UefiShellLevel2CommandsLib:Map.obj
 0002:00005154       ??_C@_0DK@GLMCKGBD@c?3?2edk2?2ShellPkg?2Library?2UefiShe@ 00064154     UefiShellLevel2CommandsLib:Map.obj
 0002:00005190       ??_C@_17DLODPOOO@?$AAH?$AAD?$AA?$CK?$AA?$AA@ 00064190     UefiShellLevel2CommandsLib:Map.obj
 0002:00005198       ??_C@_17GGIJOCLI@?$AAC?$AAD?$AA?$CK?$AA?$AA@ 00064198     UefiShellLevel2CommandsLib:Map.obj
 0002:000051a0       ??_C@_15FILDPIHH@?$AAF?$AA?$CK?$AA?$AA@ 000641a0     UefiShellLevel2CommandsLib:Map.obj
 0002:000051a8       ??_C@_17LGCOKMFB@?$AAF?$AAP?$AA?$CK?$AA?$AA@ 000641a8     UefiShellLevel2CommandsLib:Map.obj
 0002:000051b0       ??_C@_15EOIEBHGB@?$AAF?$AAS?$AA?$AA@ 000641b0     UefiShellLevel2CommandsLib:Map.obj
 0002:000051b8       ??_C@_17MFOKPACN@?$AAB?$AAL?$AAK?$AA?$AA@ 000641b8     UefiShellLevel2CommandsLib:Map.obj
 0002:000051c0       ??_C@_17PBAHFJOA@?$AAY?$AAe?$AAs?$AA?$AA@ 000641c0     UefiShellLevel2CommandsLib:Map.obj
 0002:000051c8       ??_C@_15BICKNCBF@?$AAN?$AAo?$AA?$AA@ 000641c8     UefiShellLevel2CommandsLib:Map.obj
 0002:000051d0       ??_C@_13DEFPDAGF@?$AA?0?$AA?$AA@ 000641d0     UefiShellLevel2CommandsLib:Map.obj
 0002:000051d4       ??_C@_15DEDJCAKD@?$AA?9?$AAr?$AA?$AA@ 000641d4     UefiShellLevel2CommandsLib:Map.obj
 0002:000051dc       ??_C@_15OLECOAGL@?$AA?9?$AAf?$AA?$AA@ 000641dc     UefiShellLevel2CommandsLib:Map.obj
 0002:000051e4       ??_C@_15KJOOBIBK@?$AA?9?$AAu?$AA?$AA@ 000641e4     UefiShellLevel2CommandsLib:Map.obj
 0002:000051ec       ??_C@_15BBFCHPHP@?$AA?9?$AAt?$AA?$AA@ 000641ec     UefiShellLevel2CommandsLib:Map.obj
 0002:000051f4       _Cd                        000641f4     UefiShellLevel2CommandsLib:Map.obj
 0002:000051fc       _Hd                        000641fc     UefiShellLevel2CommandsLib:Map.obj
 0002:00005258       _Fp                        00064258     UefiShellLevel2CommandsLib:Map.obj
 0002:00005260       ??_C@_0BG@JMDNBIJO@Splitter?5?$CB?$DN?5?$CKFullPath?$AA@ 00064260     UefiShellLevel2CommandsLib:Cd.obj
 0002:00005278       ??_C@_0DJ@NGFHKLBD@c?3?2edk2?2ShellPkg?2Library?2UefiShe@ 00064278     UefiShellLevel2CommandsLib:Cd.obj
 0002:000052b4       ??_C@_0BJ@NHAALEPA@FullPath?5?$CB?$DN?5?$CI?$CIvoid?5?$CK?$CJ?50?$CJ?$AA@ 000642b4     UefiShellLevel2CommandsLib:Cd.obj
 0002:000052d0       ??_C@_0DJ@JCMGLNL@c?3?2edk2?2ShellPkg?2Library?2UefiShe@ 000642d0     UefiShellLevel2CommandsLib:Cp.obj
 0002:0000530c       ??_C@_15PKPONJIK@?$AA?2?$AA?$CK?$AA?$AA@ 0006430c     UefiShellLevel2CommandsLib:Cp.obj
 0002:00005314       ??_C@_0BI@PMPALEG@DestDir?5?$CB?$DN?5?$CI?$CIvoid?5?$CK?$CJ?50?$CJ?$AA@ 00064314     UefiShellLevel2CommandsLib:Cp.obj
 0002:0000532c       ??_C@_0CB@HHHHOICB@CleanFilePathStr?5?$CB?$DN?5?$CI?$CIvoid?5?$CK?$CJ?50?$CJ@ 0006432c     UefiShellLevel2CommandsLib:Cp.obj
 0002:00005350       ??_C@_0BP@CEDNINEP@Node?9?$DOFileName?5?$CB?$DN?5?$CI?$CIvoid?5?$CK?$CJ?50?$CJ?$AA@ 00064350     UefiShellLevel2CommandsLib:Cp.obj
 0002:00005370       ??_C@_0BP@EODGBCFD@Node?9?$DOFullName?5?$CB?$DN?5?$CI?$CIvoid?5?$CK?$CJ?50?$CJ?$AA@ 00064370     UefiShellLevel2CommandsLib:Cp.obj
 0002:00005390       ??_C@_0EA@HBMPJEPK@?$CI?$CIEFI_SHELL_FILE_INFO?5?$CK?$CJList?9?$DOLi@ 00064390     UefiShellLevel2CommandsLib:Cp.obj
 0002:000053d0       ??_C@_0EK@LEAHEFB@?$CI?$CIEFI_SHELL_FILE_INFO?5?$CK?$CJList?9?$DOLi@ 000643d0     UefiShellLevel2CommandsLib:Cp.obj
 0002:00005438       ??_C@_1BK@IBFCCNCI@?$AAg?$AAR?$AAT?$AA?9?$AA?$DO?$AAG?$AAe?$AAt?$AAT?$AAi?$AAm?$AAe?$AA?$AA@ 00064438     UefiShellLevel2CommandsLib:TimeDate.obj
 0002:00005454       ??_C@_0DP@BGNFDLD@c?3?2edk2?2ShellPkg?2Library?2UefiShe@ 00064454     UefiShellLevel2CommandsLib:TimeDate.obj
 0002:00005494       ??_C@_17GMJPFIDO@?$AA?9?$AAt?$AAz?$AA?$AA@ 00064494     UefiShellLevel2CommandsLib:TimeDate.obj
 0002:0000549c       ??_C@_1CC@NOCPFBIB@?$AAT?$AAh?$AAe?$AAT?$AAi?$AAm?$AAe?$AA?4?$AAD?$AAa?$AAy?$AAl?$AAi?$AAg?$AAh?$AAt?$AA?$AA@ 0006449c     UefiShellLevel2CommandsLib:TimeDate.obj
 0002:000054c0       ??_C@_1O@LOFDLEDL@?$AA_?$AAl?$AAo?$AAc?$AAa?$AAl?$AA?$AA@ 000644c0     UefiShellLevel2CommandsLib:TimeDate.obj
 0002:000054d0       ??_C@_15IEPPAAAP@?$AA?9?$AAl?$AA?$AA@ 000644d0     UefiShellLevel2CommandsLib:TimeDate.obj
 0002:000054d8       ??_C@_1BC@JBHNBLED@?$AA?9?$AAl?$AA?5?$AAo?$AAr?$AA?5?$AA?9?$AAf?$AA?$AA@ 000644d8     UefiShellLevel2CommandsLib:TimeDate.obj
 0002:000055c0       ??_C@_0BI@LCBFIOEA@CwdPath?5?$CB?$DN?5?$CI?$CIvoid?5?$CK?$CJ?50?$CJ?$AA@ 000645c0     UefiShellLevel2CommandsLib:Mv.obj
 0002:000055d8       ??_C@_0DJ@JDHHIKGG@c?3?2edk2?2ShellPkg?2Library?2UefiShe@ 000645d8     UefiShellLevel2CommandsLib:Mv.obj
 0002:00005614       ??_C@_0BL@JJLEDFJJ@SourcePath?5?$CB?$DN?5?$CI?$CIvoid?5?$CK?$CJ?50?$CJ?$AA@ 00064614     UefiShellLevel2CommandsLib:Mv.obj
 0002:00005630       ??_C@_0BJ@HMJPKPMK@DestAttr?5?$CB?$DN?5?$CI?$CIvoid?5?$CK?$CJ?50?$CJ?$AA@ 00064630     UefiShellLevel2CommandsLib:Mv.obj
 0002:0000564c       ??_C@_0BO@OPBKFEGF@DestParameter?5?$CB?$DN?5?$CI?$CIvoid?5?$CK?$CJ?50?$CJ?$AA@ 0006464c     UefiShellLevel2CommandsLib:Mv.obj
 0002:0000566c       ??_C@_0BL@LJNANCHI@Node?9?$DOInfo?5?$CB?$DN?5?$CI?$CIvoid?5?$CK?$CJ?50?$CJ?$AA@ 0006466c     UefiShellLevel2CommandsLib:Mv.obj
 0002:00005688       ??_C@_0DJ@JJMJFDOE@c?3?2edk2?2ShellPkg?2Library?2UefiShe@ 00064688     UefiShellLevel2CommandsLib:Ls.obj
 0002:000056c4       ??_C@_19ELAAHEEL@?$AAT?$AAR?$AAU?$AAE?$AA?$AA@ 000646c4     UefiShellLevel2CommandsLib:Ls.obj
 0002:000056d0       ??_C@_1M@HCOOECOK@?$AAF?$AAA?$AAL?$AAS?$AAE?$AA?$AA@ 000646d0     UefiShellLevel2CommandsLib:Ls.obj
 0002:000056dc       ??_C@_0BG@NGJFNJEB@Files?5?$CB?$DN?5?$CI?$CIvoid?5?$CK?$CJ?50?$CJ?$AA@ 000646dc     UefiShellLevel2CommandsLib:Ls.obj
 0002:000056f4       ??_C@_0BF@MKOIBPLI@Dirs?5?$CB?$DN?5?$CI?$CIvoid?5?$CK?$CJ?50?$CJ?$AA@ 000646f4     UefiShellLevel2CommandsLib:Ls.obj
 0002:0000570c       ??_C@_0BI@PNAGFONE@TheNode?5?$CB?$DN?5?$CI?$CIvoid?5?$CK?$CJ?50?$CJ?$AA@ 0006470c     UefiShellLevel2CommandsLib:Ls.obj
 0002:00005724       ??_C@_13KHDBCPJB@?$AAs?$AA?$AA@ 00064724     UefiShellLevel2CommandsLib:Ls.obj
 0002:00005728       ??_C@_13CACJPPAP@?$AAh?$AA?$AA@ 00064728     UefiShellLevel2CommandsLib:Ls.obj
 0002:0000572c       ??_C@_13GKPPEALH@?$AAd?$AA?$AA@ 0006472c     UefiShellLevel2CommandsLib:Ls.obj
 0002:00005730       ??_C@_13FNCBLAIF@?$AAa?$AA?$AA@ 00064730     UefiShellLevel2CommandsLib:Ls.obj
 0002:00005734       ??_C@_1M@GFDIBKGH@?$AA?$DM?$AAD?$AAI?$AAR?$AA?$DO?$AA?$AA@ 00064734     UefiShellLevel2CommandsLib:Ls.obj
 0002:00005740       ??_C@_19PLKELGOA@?$AA?4?$AAn?$AAs?$AAh?$AA?$AA@ 00064740     UefiShellLevel2CommandsLib:Ls.obj
 0002:0000574c       ??_C@_0DF@OOJKEOMG@?$CITime?9?$DOTimeZone?5?$DO?$DN?5?91440?$CJ?5?$CG?$CG?5?$CITi@ 0006474c     UefiShellLevel2CommandsLib:Ls.obj
 0002:00005784       ??_C@_0DD@MOMDLPOC@?$CILocalTimeZone?5?$DO?$DN?5?91440?$CJ?5?$CG?$CG?5?$CILoc@ 00064784     UefiShellLevel2CommandsLib:Ls.obj
 0002:000057b8       ??_C@_0CK@EBFHICFE@?$CITime?9?$DOMonth?5?$DO?$DN?51?$CJ?5?$CG?$CG?5?$CITime?9?$DOMon@ 000647b8     UefiShellLevel2CommandsLib:Ls.obj
 0002:000057e8       ??_C@_0EJ@NBAHNBEF@?$CINode?9?$DOInfo?9?$DOAttribute?5?$CG?50x00000@ 000647e8     UefiShellLevel2CommandsLib:Ls.obj
 0002:00005834       ??_C@_15HGJFNINC@?$AA?9?$AAa?$AA?$AA@ 00064834     UefiShellLevel2CommandsLib:Ls.obj
 0002:00005860       ??_C@_0DM@BLLENBFF@c?3?2edk2?2ShellPkg?2Library?2UefiShe@ 00064860     UefiShellLevel2CommandsLib:MkDir.obj
 0002:0000589c       ??_C@_0BL@MMALFFMO@FileHandle?5?$DN?$DN?5?$CI?$CIvoid?5?$CK?$CJ?50?$CJ?$AA@ 0006489c     UefiShellLevel2CommandsLib:MkDir.obj
 0002:000058b8       ??_C@_15KAMMDLMP@?$AA?$CL?$AAa?$AA?$AA@ 000648b8     UefiShellLevel2CommandsLib:Attrib.obj
 0002:000058c0       ??_C@_15FKNMKENL@?$AA?$CL?$AAs?$AA?$AA@ 000648c0     UefiShellLevel2CommandsLib:Attrib.obj
 0002:000058c8       ??_C@_15LJNJHFI@?$AA?9?$AAh?$AA?$AA@ 000648c8     UefiShellLevel2CommandsLib:Attrib.obj
 0002:000058d0       ??_C@_15NNMEHEEF@?$AA?$CL?$AAh?$AA?$AA@ 000648d0     UefiShellLevel2CommandsLib:Attrib.obj
 0002:000058d8       ??_C@_15OCGAMDLO@?$AA?$CL?$AAr?$AA?$AA@ 000648d8     UefiShellLevel2CommandsLib:Attrib.obj
 0002:000058e0       ??_C@_0DN@GJKHPBNC@c?3?2edk2?2ShellPkg?2Library?2UefiShe@ 000648e0     UefiShellLevel2CommandsLib:Attrib.obj
 0002:00005920       ??_C@_0BM@PPAFNGLK@ListOfFiles?5?$DN?$DN?5?$CI?$CIvoid?5?$CK?$CJ?50?$CJ?$AA@ 00064920     UefiShellLevel2CommandsLib:Attrib.obj
 0002:00005988       ??_C@_0DM@GNMHKOFE@c?3?2edk2?2ShellPkg?2Library?2UefiShe@ 00064988     UefiShellLevel2CommandsLib:Parse.obj
 0002:000059c4       ??_C@_0BK@ONNIGBFG@TableName?5?$CB?$DN?5?$CI?$CIvoid?5?$CK?$CJ?50?$CJ?$AA@ 000649c4     UefiShellLevel2CommandsLib:Parse.obj
 0002:000059e0       ??_C@_1BM@JGMAIAOM@?$AAS?$AAh?$AAe?$AAl?$AAl?$AAC?$AAo?$AAm?$AAm?$AAa?$AAn?$AAd?$AA?0?$AA?$AA@ 000649e0     UefiShellLevel2CommandsLib:Parse.obj
 0002:000059fc       ??_C@_15DEGIPMKE@?$AA?0?$AA?$CC?$AA?$AA@ 000649fc     UefiShellLevel2CommandsLib:Parse.obj
 0002:00005a04       ??_C@_1BK@BOMKEOAF@?$AAC?$AAo?$AAl?$AAu?$AAm?$AAn?$AA?5?$AAI?$AAn?$AAd?$AAe?$AAx?$AA?$AA@ 00064a04     UefiShellLevel2CommandsLib:Parse.obj
 0002:00005a20       ??_C@_15LDCBPADN@?$AA?9?$AAi?$AA?$AA@ 00064a20     UefiShellLevel2CommandsLib:Parse.obj
 0002:00005a48       ??_C@_0DL@IHBDMJCA@c?3?2edk2?2ShellPkg?2Library?2UefiShe@ 00064a48     UefiShellLevel2CommandsLib:Load.obj
 0002:00005a84       ??_C@_0CC@BPGMMONK@LoadedDriverImage?5?$CB?$DN?5?$CI?$CIvoid?5?$CK?$CJ?50@ 00064a84     UefiShellLevel2CommandsLib:Load.obj
 0002:00005aa8       ??_C@_17ODMDGBNG@?$AA?9?$AAn?$AAc?$AA?$AA@ 00064aa8     UefiShellLevel2CommandsLib:Load.obj
 0002:00005ac0       ??_C@_1M@DKNLGIMJ@?$AAs?$AAt?$AAa?$AAl?$AAl?$AA?$AA@ 00064ac0     UefiShellLevel1CommandsLib:UefiShellLevel1CommandsLib.obj
 0002:00005acc       ??_C@_1M@OAJKEOAM@?$AAs?$AAh?$AAi?$AAf?$AAt?$AA?$AA@ 00064acc     UefiShellLevel1CommandsLib:UefiShellLevel1CommandsLib.obj
 0002:00005ad8       ??_C@_19JPKILLMB@?$AAe?$AAx?$AAi?$AAt?$AA?$AA@ 00064ad8     UefiShellLevel1CommandsLib:UefiShellLevel1CommandsLib.obj
 0002:00005b00       ??_C@_0BP@EFNHGOCI@ProfilesString?5?$CB?$DN?5?$CI?$CIvoid?5?$CK?$CJ?50?$CJ?$AA@ 00064b00     UefiShellLevel1CommandsLib:If.obj
 0002:00005b20       ??_C@_0DJ@NMGIKGFL@c?3?2edk2?2ShellPkg?2Library?2UefiShe@ 00064b20     UefiShellLevel1CommandsLib:If.obj
 0002:00005b5c       ??_C@_0CK@MGCONFMJ@?$CIEND_TAG_TYPE?$CJOperatorToUse?5?$CB?$DN?5E@ 00064b5c     UefiShellLevel1CommandsLib:If.obj
 0002:00005b88       ??_C@_17ECEDBIFL@?$AAn?$AAo?$AAt?$AA?$AA@ 00064b88     UefiShellLevel1CommandsLib:If.obj
 0002:00005b90       ??_C@_1M@DFKILDOD@?$AAi?$AAs?$AAi?$AAn?$AAt?$AA?$AA@ 00064b90     UefiShellLevel1CommandsLib:If.obj
 0002:00005b9c       ??_C@_1O@OCGIGJBK@?$AAe?$AAx?$AAi?$AAs?$AAt?$AAs?$AA?$AA@ 00064b9c     UefiShellLevel1CommandsLib:If.obj
 0002:00005bac       ??_C@_1M@HHAKBENA@?$AAe?$AAx?$AAi?$AAs?$AAt?$AA?$AA@ 00064bac     UefiShellLevel1CommandsLib:If.obj
 0002:00005bb8       ??_C@_1BC@MDECFFOE@?$AAe?$AAx?$AAi?$AAs?$AAt?$AA?$CI?$AAs?$AA?$CJ?$AA?$AA@ 00064bb8     UefiShellLevel1CommandsLib:If.obj
 0002:00005bcc       ??_C@_1BE@DKICMKIK@?$AAa?$AAv?$AAa?$AAi?$AAl?$AAa?$AAb?$AAl?$AAe?$AA?$AA@ 00064bcc     UefiShellLevel1CommandsLib:If.obj
 0002:00005be0       ??_C@_1BA@PNHGIEJF@?$AAp?$AAr?$AAo?$AAf?$AAi?$AAl?$AAe?$AA?$AA@ 00064be0     UefiShellLevel1CommandsLib:If.obj
 0002:00005bf0       ??_C@_1BC@EHCCAAMH@?$AAe?$AAf?$AAi?$AAe?$AAr?$AAr?$AAo?$AAr?$AA?$AA@ 00064bf0     UefiShellLevel1CommandsLib:If.obj
 0002:00005c04       ??_C@_13DIBMAFH@?$AA?$CJ?$AA?$AA@ 00064c04     UefiShellLevel1CommandsLib:If.obj
 0002:00005c08       ??_C@_1BA@HKAFHKBC@?$AAp?$AAi?$AAe?$AAr?$AAr?$AAo?$AAr?$AA?$AA@ 00064c08     UefiShellLevel1CommandsLib:If.obj
 0002:00005c18       ??_C@_1BC@GFMDPOKB@?$AAo?$AAe?$AAm?$AAe?$AAr?$AAr?$AAo?$AAr?$AA?$AA@ 00064c18     UefiShellLevel1CommandsLib:If.obj
 0002:00005c2c       ??_C@_15LPJBFGHF@?$AAg?$AAt?$AA?$AA@ 00064c2c     UefiShellLevel1CommandsLib:If.obj
 0002:00005c34       ??_C@_15NFFGKGLG@?$AAl?$AAt?$AA?$AA@ 00064c34     UefiShellLevel1CommandsLib:If.obj
 0002:00005c3c       ??_C@_15MFIHAHEM@?$AAe?$AAq?$AA?$AA@ 00064c3c     UefiShellLevel1CommandsLib:If.obj
 0002:00005c44       ??_C@_15HADLDHEH@?$AAn?$AAe?$AA?$AA@ 00064c44     UefiShellLevel1CommandsLib:If.obj
 0002:00005c4c       ??_C@_15FHDEGGIP@?$AAg?$AAe?$AA?$AA@ 00064c4c     UefiShellLevel1CommandsLib:If.obj
 0002:00005c54       ??_C@_15DNPDJGEM@?$AAl?$AAe?$AA?$AA@ 00064c54     UefiShellLevel1CommandsLib:If.obj
 0002:00005c5c       ??_C@_15PEJIGKFD@?$AA?$DN?$AA?$DN?$AA?$AA@ 00064c5c     UefiShellLevel1CommandsLib:If.obj
 0002:00005c64       ??_C@_17IPMBLHEL@?$AAu?$AAg?$AAt?$AA?$AA@ 00064c64     UefiShellLevel1CommandsLib:If.obj
 0002:00005c6c       ??_C@_17OFAGEHII@?$AAu?$AAl?$AAt?$AA?$AA@ 00064c6c     UefiShellLevel1CommandsLib:If.obj
 0002:00005c74       ??_C@_17GHGEIHLB@?$AAu?$AAg?$AAe?$AA?$AA@ 00064c74     UefiShellLevel1CommandsLib:If.obj
 0002:00005c7c       ??_C@_17NKDHHHC@?$AAu?$AAl?$AAe?$AA?$AA@ 00064c7c     UefiShellLevel1CommandsLib:If.obj
 0002:00005c84       ??_C@_0CL@FHKJGHFO@StartParameterNumber?$CL2?$DM?$DNEndParam@ 00064c84     UefiShellLevel1CommandsLib:If.obj
 0002:00005cb0       ??_C@_15HGKJILME@?$AAo?$AAr?$AA?$AA@ 00064cb0     UefiShellLevel1CommandsLib:If.obj
 0002:00005cb8       ??_C@_17CGIOMN@?$AAa?$AAn?$AAd?$AA?$AA@ 00064cb8     UefiShellLevel1CommandsLib:If.obj
 0002:00005cc0       ??_C@_19GDBJBHLM@?$AAt?$AAh?$AAe?$AAn?$AA?$AA@ 00064cc0     UefiShellLevel1CommandsLib:If.obj
 0002:00005ccc       ??_C@_15HICHKNCH@?$AAI?$AAf?$AA?$AA@ 00064ccc     UefiShellLevel1CommandsLib:If.obj
 0002:00005cd4       ??_C@_1M@IBHPJAIJ@?$AAE?$AAn?$AAd?$AAI?$AAf?$AA?$AA@ 00064cd4     UefiShellLevel1CommandsLib:If.obj
 0002:00005ce0       ??_C@_15POOJFBDG@?$AA?1?$AAi?$AA?$AA@ 00064ce0     UefiShellLevel1CommandsLib:If.obj
 0002:00005ce8       ??_C@_15MBENOGMN@?$AA?1?$AAs?$AA?$AA@ 00064ce8     UefiShellLevel1CommandsLib:If.obj
 0002:00005cf0       ??_C@_19CMEEBEGM@?$AAT?$AAh?$AAe?$AAn?$AA?$AA@ 00064cf0     UefiShellLevel1CommandsLib:If.obj
 0002:00005cfc       ??_C@_19GCOMJGMH@?$AAE?$AAl?$AAs?$AAe?$AA?$AA@ 00064cfc     UefiShellLevel1CommandsLib:If.obj
 0002:00005d08       ??_C@_04JGADNOIL@Else?$AA@ 00064d08     UefiShellLevel1CommandsLib:If.obj
 0002:00005d10       ??_C@_1M@IGNDJFLP@?$AAE?$AAn?$AAd?$AAi?$AAf?$AA?$AA@ 00064d10     UefiShellLevel1CommandsLib:If.obj
 0002:00005d1c       ??_C@_0DL@FFLMEPOD@c?3?2edk2?2ShellPkg?2Library?2UefiShe@ 00064d1c     UefiShellLevel1CommandsLib:Goto.obj
 0002:00005d58       ??_C@_19JKCOJBMF@?$AAG?$AAo?$AAt?$AAo?$AA?$AA@ 00064d58     UefiShellLevel1CommandsLib:Goto.obj
 0002:00005d64       ??_C@_0DM@LHEKKHNB@c?3?2edk2?2ShellPkg?2Library?2UefiShe@ 00064d64     UefiShellLevel1CommandsLib:Stall.obj
 0002:00005da0       ??_C@_15CJOINGDH@?$AA?1?$AAb?$AA?$AA@ 00064da0     UefiShellLevel1CommandsLib:Exit.obj
 0002:00005da8       ??_C@_0DL@MDJIOPEE@c?3?2edk2?2ShellPkg?2Library?2UefiShe@ 00064da8     UefiShellLevel1CommandsLib:Exit.obj
 0002:00005e00       ??_C@_0DM@CEHKLENH@c?3?2edk2?2ShellPkg?2Library?2UefiShe@ 00064e00     UefiShellLevel1CommandsLib:Shift.obj
 0002:00005e3c       ??_C@_0CC@IMJMDDEE@CurrentScriptFile?5?$CB?$DN?5?$CI?$CIvoid?5?$CK?$CJ?50@ 00064e3c     UefiShellLevel1CommandsLib:Shift.obj
 0002:00005e60       ??_C@_0DK@LHGKKGJD@c?3?2edk2?2ShellPkg?2Library?2UefiShe@ 00064e60     UefiShellLevel1CommandsLib:For.obj
 0002:00005e9c       ??_C@_1O@CFFHBKEK@?$AAE?$AAn?$AAd?$AAF?$AAo?$AAr?$AA?$AA@ 00064e9c     UefiShellLevel1CommandsLib:For.obj
 0002:00005eac       ??_C@_17ENLLDOGE@?$AAF?$AAo?$AAr?$AA?$AA@ 00064eac     UefiShellLevel1CommandsLib:For.obj
 0002:00005eb4       ??_C@_0BM@OABCJGHL@Node?9?$DOAlias?5?$DN?$DN?5?$CI?$CIvoid?5?$CK?$CJ?50?$CJ?$AA@ 00064eb4     UefiShellLevel1CommandsLib:For.obj
 0002:00005ed0       ??_C@_0CE@CIHKHJCI@Node?9?$DOCommandString?5?$DN?$DN?5?$CI?$CIvoid?5?$CK?$CJ@ 00064ed0     UefiShellLevel1CommandsLib:For.obj
 0002:00005ef4       ??_C@_15LKDPIAPO@?$AAi?$AAn?$AA?$AA@ 00064ef4     UefiShellLevel1CommandsLib:For.obj
 0002:00005f00       ??_C@_0EF@PAMGJHH@?$CIArgSet?5?$DN?$DN?5?$CI?$CIvoid?5?$CK?$CJ?50?$CJ?5?$CG?$CG?5ArgSi@ 00064f00     UefiShellLevel1CommandsLib:For.obj
 0002:00005f48       ??_C@_17PELOKKDJ@?$AAr?$AAu?$AAn?$AA?$AA@ 00064f48     UefiShellLevel1CommandsLib:For.obj
 0002:00005f50       ??_C@_0CE@FDICNFOP@Info?9?$DOStep?5?$DN?$DN?51?5?$HM?$HM?5Info?9?$DOStep?5?$DN?$DN@ 00064f50     UefiShellLevel1CommandsLib:For.obj
 0002:00005f74       ??_C@_0BF@ELANCEIC@Info?5?$CB?$DN?5?$CI?$CIvoid?5?$CK?$CJ?50?$CJ?$AA@ 00064f74     UefiShellLevel1CommandsLib:For.obj
 0002:00005f8c       ??_C@_0BK@IBPGOKHK@Info?9?$DOSet?5?$CB?$DN?5?$CI?$CIvoid?5?$CK?$CJ?50?$CJ?$AA@ 00064f8c     UefiShellLevel1CommandsLib:For.obj
 0002:00005fa8       ??_C@_17CMBJCHDO@?$AA?$CC?$AA?5?$AA?$CC?$AA?$AA@ 00064fa8     UefiShellLevel1CommandsLib:For.obj
 0002:00005fb0       ??_C@_19FHBCDCCA@?$AAt?$AAy?$AAp?$AAe?$AA?$AA@ 00064fb0     UefiShellLevel3CommandsLib:UefiShellLevel3CommandsLib.obj
 0002:00005fbc       ??_C@_1M@BHMIOBAK@?$AAt?$AAo?$AAu?$AAc?$AAh?$AA?$AA@ 00064fbc     UefiShellLevel3CommandsLib:UefiShellLevel3CommandsLib.obj
 0002:00005fc8       ??_C@_17GJONEOHP@?$AAv?$AAe?$AAr?$AA?$AA@ 00064fc8     UefiShellLevel3CommandsLib:UefiShellLevel3CommandsLib.obj
 0002:00005fd0       ??_C@_1M@IJIAJFBE@?$AAa?$AAl?$AAi?$AAa?$AAs?$AA?$AA@ 00064fd0     UefiShellLevel3CommandsLib:UefiShellLevel3CommandsLib.obj
 0002:00005fdc       ??_C@_17MCAFEHJN@?$AAc?$AAl?$AAs?$AA?$AA@ 00064fdc     UefiShellLevel3CommandsLib:UefiShellLevel3CommandsLib.obj
 0002:00005fe4       ??_C@_19PCDNJFIH@?$AAe?$AAc?$AAh?$AAo?$AA?$AA@ 00064fe4     UefiShellLevel3CommandsLib:UefiShellLevel3CommandsLib.obj
 0002:00005ff0       ??_C@_1M@PLLLDAIA@?$AAp?$AAa?$AAu?$AAs?$AAe?$AA?$AA@ 00064ff0     UefiShellLevel3CommandsLib:UefiShellLevel3CommandsLib.obj
 0002:00005ffc       ??_C@_1O@HKMJDPHL@?$AAg?$AAe?$AAt?$AAm?$AAt?$AAc?$AA?$AA@ 00064ffc     UefiShellLevel3CommandsLib:UefiShellLevel3CommandsLib.obj
 0002:0000600c       ??_C@_19FCEHBCGP@?$AAh?$AAe?$AAl?$AAp?$AA?$AA@ 0006500c     UefiShellLevel3CommandsLib:UefiShellLevel3CommandsLib.obj
 0002:00006018       ??_C@_17ODEMGMPK@?$AAc?$AAa?$AAt?$AA?$AA@ 00065018     UefiShellLevel3CommandsLib:UefiShellLevel3CommandsLib.obj
 0002:00006020       _gShellLevel3FileName      00065020     UefiShellLevel3CommandsLib:UefiShellLevel3CommandsLib.obj
 0002:0000603c       ??_C@_17NKPFGKKO@?$AA?9?$AAo?$AAn?$AA?$AA@ 0006503c     UefiShellLevel3CommandsLib:Echo.obj
 0002:00006044       ??_C@_19GPPNOJGG@?$AA?9?$AAo?$AAf?$AAf?$AA?$AA@ 00065044     UefiShellLevel3CommandsLib:Echo.obj
 0002:00006050       ??_C@_0DL@NKDPJCLO@c?3?2edk2?2ShellPkg?2Library?2UefiShe@ 00065050     UefiShellLevel3CommandsLib:Echo.obj
 0002:000060a8       ??_C@_0DM@KJOHCHIK@c?3?2edk2?2ShellPkg?2Library?2UefiShe@ 000650a8     UefiShellLevel3CommandsLib:Touch.obj
 0002:00006100       ??_C@_0DN@GIGEFMAD@c?3?2edk2?2ShellPkg?2Library?2UefiShe@ 00065100     UefiShellLevel3CommandsLib:GetMtc.obj
 0002:00006140       ??_C@_1O@CLGDBFLH@?$AA?9?$AAt?$AAe?$AAr?$AAs?$AAe?$AA?$AA@ 00065140     UefiShellLevel3CommandsLib:Ver.obj
 0002:00006150       ??_C@_19KCGIGDCE@?$AA?9?$AA_?$AAp?$AAa?$AA?$AA@ 00065150     UefiShellLevel3CommandsLib:Ver.obj
 0002:0000615c       ??_C@_0DK@IKLILKFI@c?3?2edk2?2ShellPkg?2Library?2UefiShe@ 0006515c     UefiShellLevel3CommandsLib:Ver.obj
 0002:00006198       ??_C@_1BK@IMKBAMOC@?$AA?9?$AAt?$AA?5?$AAo?$AAr?$AA?5?$AA?9?$AAt?$AAe?$AAr?$AAs?$AAe?$AA?$AA@ 00065198     UefiShellLevel3CommandsLib:Ver.obj
 0002:000061b4       ??_C@_19DCIDACOG@?$AA?$CF?$AAd?$AA?$AN?$AA?6?$AA?$AA@ 000651b4     UefiShellLevel3CommandsLib:Ver.obj
 0002:000061e8       ??_C@_0DL@IGPGBIBO@c?3?2edk2?2ShellPkg?2Library?2UefiShe@ 000651e8     UefiShellLevel3CommandsLib:Type.obj
 0002:00006224       ??_C@_1BA@FIDEGPKO@?$AA?9?$AAa?$AA?5?$AA?$CG?$AA?5?$AA?9?$AAu?$AA?$AA@ 00065224     UefiShellLevel3CommandsLib:Type.obj
 0002:00006234       ??_C@_0BN@NBHLEDMH@ShellStatus?5?$DN?$DN?5SHELL_SUCCESS?$AA@ 00065234     UefiShellLevel3CommandsLib:Type.obj
 0002:00006278       ??_C@_0DM@OPBIBNHC@c?3?2edk2?2ShellPkg?2Library?2UefiShe@ 00065278     UefiShellLevel3CommandsLib:Pause.obj
 0002:000062d0       ??_C@_0DK@GMAPCMGE@c?3?2edk2?2ShellPkg?2Library?2UefiShe@ 000652d0     UefiShellLevel3CommandsLib:Cls.obj
 0002:00006320       ??_C@_0DM@CFJIEDEG@c?3?2edk2?2ShellPkg?2Library?2UefiShe@ 00065320     UefiShellLevel3CommandsLib:Alias.obj
 0002:00006378       ??_C@_1O@PAAFNODC@?$AA?9?$AAu?$AAs?$AAa?$AAg?$AAe?$AA?$AA@ 00065378     UefiShellLevel3CommandsLib:Help.obj
 0002:00006388       ??_C@_1BC@IFEILMPD@?$AA?9?$AAs?$AAe?$AAc?$AAt?$AAi?$AAo?$AAn?$AA?$AA@ 00065388     UefiShellLevel3CommandsLib:Help.obj
 0002:0000639c       ??_C@_1BC@CHGGHNLP@?$AA?9?$AAv?$AAe?$AAr?$AAb?$AAo?$AAs?$AAe?$AA?$AA@ 0006539c     UefiShellLevel3CommandsLib:Help.obj
 0002:000063b0       ??_C@_0DL@JAELPBGK@c?3?2edk2?2ShellPkg?2Library?2UefiShe@ 000653b0     UefiShellLevel3CommandsLib:Help.obj
 0002:000063ec       ??_C@_19GGDNNDFE@?$AAN?$AAA?$AAM?$AAE?$AA?$AA@ 000653ec     UefiShellLevel3CommandsLib:Help.obj
 0002:000063f8       ??_C@_1BM@FNNGFIAF@?$AAN?$AAA?$AAM?$AAE?$AA?0?$AAS?$AAY?$AAN?$AAO?$AAP?$AAS?$AAI?$AAS?$AA?$AA@ 000653f8     UefiShellLevel3CommandsLib:Help.obj
 0002:00006418       ??_C@_1FG@FJOCLHCB@?$AAN?$AAA?$AAM?$AAE?$AA?0?$AAS?$AAY?$AAN?$AAO?$AAP?$AAS?$AAI?$AAS?$AA?0?$AAO?$AAP?$AAT?$AAI?$AAO?$AAN?$AAS?$AA?0?$AAD?$AAE?$AAS?$AAC?$AAR?$AAI?$AAP?$AAT?$AAI?$AAO@ 00065418     UefiShellLevel3CommandsLib:Help.obj
 0002:00006470       ??_C@_1BA@PIFIILLL@?$AAs?$AAp?$AAe?$AAc?$AAi?$AAa?$AAl?$AA?$AA@ 00065470     UefiShellLevel3CommandsLib:Help.obj
 0002:000064a8       ??_C@_1BA@DKNAEHKI@?$AAD?$AAr?$AAi?$AAv?$AAe?$AAr?$AA1?$AA?$AA@ 000654a8     UefiShellDriver1CommandsLib:UefiShellDriver1CommandsLib.obj
 0002:000064b8       ??_C@_1BA@CFPPNJDF@?$AAc?$AAo?$AAn?$AAn?$AAe?$AAc?$AAt?$AA?$AA@ 000654b8     UefiShellDriver1CommandsLib:UefiShellDriver1CommandsLib.obj
 0002:000064c8       ??_C@_1BA@GPBIKJID@?$AAd?$AAe?$AAv?$AAi?$AAc?$AAe?$AAs?$AA?$AA@ 000654c8     UefiShellDriver1CommandsLib:UefiShellDriver1CommandsLib.obj
 0002:000064d8       ??_C@_1BC@MKFACHOA@?$AAo?$AAp?$AAe?$AAn?$AAi?$AAn?$AAf?$AAo?$AA?$AA@ 000654d8     UefiShellDriver1CommandsLib:UefiShellDriver1CommandsLib.obj
 0002:000064ec       ??_C@_1BG@ILELFFEH@?$AAd?$AAi?$AAs?$AAc?$AAo?$AAn?$AAn?$AAe?$AAc?$AAt?$AA?$AA@ 000654ec     UefiShellDriver1CommandsLib:UefiShellDriver1CommandsLib.obj
 0002:00006504       ??_C@_1BE@MAKMINOO@?$AAr?$AAe?$AAc?$AAo?$AAn?$AAn?$AAe?$AAc?$AAt?$AA?$AA@ 00065504     UefiShellDriver1CommandsLib:UefiShellDriver1CommandsLib.obj
 0002:00006518       ??_C@_1O@DEBHAOEE@?$AAu?$AAn?$AAl?$AAo?$AAa?$AAd?$AA?$AA@ 00065518     UefiShellDriver1CommandsLib:UefiShellDriver1CommandsLib.obj
 0002:00006528       ??_C@_1BA@EMLDCKIJ@?$AAd?$AAr?$AAv?$AAd?$AAi?$AAa?$AAg?$AA?$AA@ 00065528     UefiShellDriver1CommandsLib:UefiShellDriver1CommandsLib.obj
 0002:00006538       ??_C@_15CDMKMMPM@?$AAd?$AAh?$AA?$AA@ 00065538     UefiShellDriver1CommandsLib:UefiShellDriver1CommandsLib.obj
 0002:00006540       ??_C@_1BA@BMPCKMGD@?$AAd?$AAr?$AAi?$AAv?$AAe?$AAr?$AAs?$AA?$AA@ 00065540     UefiShellDriver1CommandsLib:UefiShellDriver1CommandsLib.obj
 0002:00006550       ??_C@_1BA@HICLJKCN@?$AAd?$AAe?$AAv?$AAt?$AAr?$AAe?$AAe?$AA?$AA@ 00065550     UefiShellDriver1CommandsLib:UefiShellDriver1CommandsLib.obj
 0002:00006560       ??_C@_1O@KOCLOIBL@?$AAd?$AAr?$AAv?$AAc?$AAf?$AAg?$AA?$AA@ 00065560     UefiShellDriver1CommandsLib:UefiShellDriver1CommandsLib.obj
 0002:00006590       ??_C@_1EE@NHOEDGHC@?$AAg?$AAE?$AAf?$AAi?$AAD?$AAr?$AAi?$AAv?$AAe?$AAr?$AAD?$AAi?$AAa?$AAg?$AAn?$AAo?$AAs?$AAt?$AAi?$AAc?$AAs?$AAP?$AAr?$AAo?$AAt?$AAo?$AAc?$AAo?$AAl?$AAG?$AAu?$AAi@ 00065590     UefiShellDriver1CommandsLib:DrvDiag.obj
 0002:000065d8       ??_C@_1EG@EPGLAAKO@?$AAg?$AAE?$AAf?$AAi?$AAD?$AAr?$AAi?$AAv?$AAe?$AAr?$AAD?$AAi?$AAa?$AAg?$AAn?$AAo?$AAs?$AAt?$AAi?$AAc?$AAs?$AA2?$AAP?$AAr?$AAo?$AAt?$AAo?$AAc?$AAo?$AAl?$AAG?$AAu@ 000655d8     UefiShellDriver1CommandsLib:DrvDiag.obj
 0002:00006620       ??_C@_0CA@MFIJNLGK@ChildHandleList?5?$DN?$DN?5?$CI?$CIvoid?5?$CK?$CJ?50?$CJ?$AA@ 00065620     UefiShellDriver1CommandsLib:DrvDiag.obj
 0002:00006640       ??_C@_0DP@PAOFKFFA@c?3?2edk2?2ShellPkg?2Library?2UefiShe@ 00065640     UefiShellDriver1CommandsLib:DrvDiag.obj
 0002:00006680       ??_C@_1BA@BENBFCCE@?$AAD?$AAr?$AAv?$AAD?$AAi?$AAa?$AAg?$AA?$AA@ 00065680     UefiShellDriver1CommandsLib:DrvDiag.obj
 0002:00006690       ??_C@_15PJPHEPIF@?$AA?9?$AAe?$AA?$AA@ 00065690     UefiShellDriver1CommandsLib:DrvDiag.obj
 0002:00006698       ??_C@_15DMEDGHGK@?$AA?9?$AAm?$AA?$AA@ 00065698     UefiShellDriver1CommandsLib:DrvDiag.obj
 0002:000066d0       ??_C@_0EC@MJDDNBN@c?3?2edk2?2ShellPkg?2Library?2UefiShe@ 000656d0     UefiShellDriver1CommandsLib:Disconnect.obj
 0002:00006714       ??_C@_1BC@OBFMLJLI@?$AAC?$AAo?$AAn?$AAI?$AAn?$AAD?$AAe?$AAv?$AA?$AA@ 00065714     UefiShellDriver1CommandsLib:Disconnect.obj
 0002:00006728       ??_C@_1BE@INNAKDAF@?$AAC?$AAo?$AAn?$AAO?$AAu?$AAt?$AAD?$AAe?$AAv?$AA?$AA@ 00065728     UefiShellDriver1CommandsLib:Disconnect.obj
 0002:0000673c       ??_C@_1BE@JFPOEAHF@?$AAE?$AAr?$AAr?$AAO?$AAu?$AAt?$AAD?$AAe?$AAv?$AA?$AA@ 0006573c     UefiShellDriver1CommandsLib:Disconnect.obj
 0002:00006750       ??_C@_1O@JOJMCOJC@?$AAE?$AAr?$AAr?$AAO?$AAu?$AAt?$AA?$AA@ 00065750     UefiShellDriver1CommandsLib:Disconnect.obj
 0002:00006760       ??_C@_1M@NFPEGKHA@?$AAC?$AAo?$AAn?$AAI?$AAn?$AA?$AA@ 00065760     UefiShellDriver1CommandsLib:Disconnect.obj
 0002:0000676c       ??_C@_1O@MJHLOIFA@?$AAC?$AAo?$AAn?$AAO?$AAu?$AAt?$AA?$AA@ 0006576c     UefiShellDriver1CommandsLib:Disconnect.obj
 0002:0000677c       ??_C@_0BH@BKMFDLMK@Param2?5?$CB?$DN?5?$CI?$CIvoid?5?$CK?$CJ?50?$CJ?$AA@ 0006577c     UefiShellDriver1CommandsLib:Disconnect.obj
 0002:00006794       ??_C@_1BM@PPEFOEMK@?$AAd?$AAr?$AAi?$AAv?$AAe?$AAr?$AA?5?$AAh?$AAa?$AAn?$AAd?$AAl?$AAe?$AA?$AA@ 00065794     UefiShellDriver1CommandsLib:Disconnect.obj
 0002:000067b0       ??_C@_0BH@PAEDOGKI@Param1?5?$CB?$DN?5?$CI?$CIvoid?5?$CK?$CJ?50?$CJ?$AA@ 000657b0     UefiShellDriver1CommandsLib:Disconnect.obj
 0002:000067c8       ??_C@_1BG@DNEMHIE@?$AAD?$AAi?$AAs?$AAc?$AAo?$AAn?$AAn?$AAe?$AAc?$AAt?$AA?$AA@ 000657c8     UefiShellDriver1CommandsLib:Disconnect.obj
 0002:000067f8       ??_C@_0EB@BJCHENPL@c?3?2edk2?2ShellPkg?2Library?2UefiShe@ 000657f8     UefiShellDriver1CommandsLib:Reconnect.obj
 0002:00006850       ??_C@_0BJ@HMGEGPJ@DevPath1?5?$CB?$DN?5?$CI?$CIvoid?5?$CK?$CJ?50?$CJ?$AA@ 00065850     UefiShellDriver1CommandsLib:DrvCfg.obj
 0002:0000686c       ??_C@_0DO@LOCPFLMA@c?3?2edk2?2ShellPkg?2Library?2UefiShe@ 0006586c     UefiShellDriver1CommandsLib:DrvCfg.obj
 0002:000068ac       ??_C@_0BL@PMHHHLIM@?$CKHiiHandle?5?$DN?$DN?5?$CI?$CIvoid?5?$CK?$CJ?50?$CJ?$AA@ 000658ac     UefiShellDriver1CommandsLib:DrvCfg.obj
 0002:000068c8       ??_C@_0BG@GDKGJGL@HiiDb?5?$CB?$DN?5?$CI?$CIvoid?5?$CK?$CJ?50?$CJ?$AA@ 000658c8     UefiShellDriver1CommandsLib:DrvCfg.obj
 0002:000068e0       ??_C@_1CO@BBNCKDAD@?$AAE?$AAf?$AAi?$AAH?$AAi?$AAi?$AAD?$AAa?$AAt?$AAa?$AAb?$AAa?$AAs?$AAe?$AAP?$AAr?$AAo?$AAt?$AAo?$AAc?$AAo?$AAl?$AA?$AA@ 000658e0     UefiShellDriver1CommandsLib:DrvCfg.obj
 0002:00006910       ??_C@_1O@HAMLNBEA@?$AAD?$AAe?$AAv?$AAi?$AAc?$AAe?$AA?$AA@ 00065910     UefiShellDriver1CommandsLib:DrvCfg.obj
 0002:00006920       ??_C@_1DO@DAJOAMHC@?$AAH?$AAi?$AAi?$AAD?$AAa?$AAt?$AAa?$AAb?$AAa?$AAs?$AAe?$AA?9?$AA?$DO?$AAU?$AAp?$AAd?$AAa?$AAt?$AAe?$AAP?$AAa?$AAc?$AAk?$AAa?$AAg?$AAe?$AAL?$AAi?$AAs?$AAt?$AA?$AA@ 00065920     UefiShellDriver1CommandsLib:DrvCfg.obj
 0002:00006960       ??_C@_1CA@BBCLIDIM@?$AAs?$AAt?$AAo?$AAp?$AA?5?$AAc?$AAo?$AAn?$AAt?$AAr?$AAo?$AAl?$AAl?$AAe?$AAr?$AA?$AA@ 00065960     UefiShellDriver1CommandsLib:DrvCfg.obj
 0002:00006980       ??_C@_1BA@PKILJGND@?$AAs?$AAt?$AAo?$AAp?$AAp?$AAe?$AAd?$AA?$AA@ 00065980     UefiShellDriver1CommandsLib:DrvCfg.obj
 0002:00006990       ??_C@_1BG@OACNEEF@?$AAc?$AAo?$AAn?$AAt?$AAr?$AAo?$AAl?$AAl?$AAe?$AAr?$AA?$AA@ 00065990     UefiShellDriver1CommandsLib:DrvCfg.obj
 0002:000069a8       ??_C@_1CG@MCGKPHJM@?$AAr?$AAe?$AAs?$AAt?$AAa?$AAr?$AAt?$AA?5?$AAc?$AAo?$AAn?$AAt?$AAr?$AAo?$AAl?$AAl?$AAe?$AAr?$AA?$AA@ 000659a8     UefiShellDriver1CommandsLib:DrvCfg.obj
 0002:000069d0       ??_C@_1BE@HGFGMPNB@?$AAr?$AAe?$AAs?$AAt?$AAa?$AAr?$AAt?$AAe?$AAd?$AA?$AA@ 000659d0     UefiShellDriver1CommandsLib:DrvCfg.obj
 0002:000069e4       ??_C@_1BC@KDOFGLFF@?$AAp?$AAl?$AAa?$AAt?$AAf?$AAo?$AAr?$AAm?$AA?$AA@ 000659e4     UefiShellDriver1CommandsLib:DrvCfg.obj
 0002:000069f8       ??_C@_1CC@PCBPHGE@?$AAr?$AAe?$AAs?$AAt?$AAa?$AAr?$AAt?$AA?5?$AAp?$AAl?$AAa?$AAt?$AAf?$AAo?$AAr?$AAm?$AA?$AA@ 000659f8     UefiShellDriver1CommandsLib:DrvCfg.obj
 0002:00006a1c       ??_C@_0BI@NIPGFGFF@DriverImageHandleBuffer?$AA@ 00065a1c     UefiShellDriver1CommandsLib:DrvCfg.obj
 0002:00006a34       ??_C@_15JGEKKPOB@?$AA?9?$AAo?$AA?$AA@ 00065a34     UefiShellDriver1CommandsLib:DrvCfg.obj
 0002:00006aa0       ??_C@_0EA@KHAFFIFE@c?3?2edk2?2ShellPkg?2Library?2UefiShe@ 00065aa0     UefiShellDriver1CommandsLib:OpenInfo.obj
 0002:00006ae0       ??_C@_1BC@CAGGCOJA@?$AA?$CF?$AAH?$AA?$CF?$AAs?$AA?$CF?$AAN?$AA?$AN?$AA?6?$AA?$AA@ 00065ae0     UefiShellDriver1CommandsLib:OpenInfo.obj
 0002:00006b94       ??_C@_0DO@DNNFFMKF@c?3?2edk2?2ShellPkg?2Library?2UefiShe@ 00065b94     UefiShellDriver1CommandsLib:Unload.obj
 0002:00006bd4       ??_C@_1O@PJHDHGJM@?$AAU?$AAn?$AAl?$AAo?$AAa?$AAd?$AA?$AA@ 00065bd4     UefiShellDriver1CommandsLib:Unload.obj
 0002:00006c10       ??_C@_0DP@BNEOJHNK@c?3?2edk2?2ShellPkg?2Library?2UefiShe@ 00065c10     UefiShellDriver1CommandsLib:Devices.obj
 0002:00006c50       ??_C@_0BL@LNNGAGCN@HandleList?5?$CB?$DN?5?$CI?$CIvoid?5?$CK?$CJ?50?$CJ?$AA@ 00065c50     UefiShellDriver1CommandsLib:Devices.obj
 0002:00006c88       ??_C@_0DP@OFHLNPEN@c?3?2edk2?2ShellPkg?2Library?2UefiShe@ 00065c88     UefiShellDriver1CommandsLib:Drivers.obj
 0002:00006ce8       ??_C@_15JODAOICI@?$AA?9?$AAp?$AA?$AA@ 00065ce8     UefiShellDriver1CommandsLib:Dh.obj
 0002:00006cf0       ??_C@_0EC@KKFLCAGI@?$CIRetVal?5?$DN?$DN?5?$CI?$CIvoid?5?$CK?$CJ?50?$CJ?5?$CG?$CG?5Size?5@ 00065cf0     UefiShellDriver1CommandsLib:Dh.obj
 0002:00006d34       ??_C@_0DK@OFBGIJF@c?3?2edk2?2ShellPkg?2Library?2UefiShe@ 00065d34     UefiShellDriver1CommandsLib:Dh.obj
 0002:00006d70       ??_C@_17LJIPLNCC@?$AA?$CI?$AA?$CF?$AAH?$AA?$AA@ 00065d70     UefiShellDriver1CommandsLib:Dh.obj
 0002:00006d78       ??_C@_15LHNHECKK@?$AA?$CF?$AAx?$AA?$AA@ 00065d78     UefiShellDriver1CommandsLib:Dh.obj
 0002:00006d80       ??_C@_17MDCDMHAM@?$AA?$CF?$AAN?$AA?$CJ?$AA?$AA@ 00065d80     UefiShellDriver1CommandsLib:Dh.obj
 0002:00006d88       ??_C@_1BE@BGMELJBK@?$AA?$DM?$AAU?$AAn?$AAk?$AAn?$AAo?$AAw?$AAn?$AA?$DO?$AA?$AA@ 00065d88     UefiShellDriver1CommandsLib:Dh.obj
 0002:00006d9c       ??_C@_17FGJJPDOI@?$AAY?$AAE?$AAS?$AA?$AA@ 00065d9c     UefiShellDriver1CommandsLib:Dh.obj
 0002:00006da4       ??_C@_15LIBIHNCL@?$AAN?$AAO?$AA?$AA@ 00065da4     UefiShellDriver1CommandsLib:Dh.obj
 0002:00006dac       ??_C@_19OLEIDBPB@?$AAR?$AAO?$AAO?$AAT?$AA?$AA@ 00065dac     UefiShellDriver1CommandsLib:Dh.obj
 0002:00006db8       ??_C@_17HEJONMAO@?$AAB?$AAU?$AAS?$AA?$AA@ 00065db8     UefiShellDriver1CommandsLib:Dh.obj
 0002:00006dc0       ??_C@_1O@HJEPMBDG@?$AAD?$AAE?$AAV?$AAI?$AAC?$AAE?$AA?$AA@ 00065dc0     UefiShellDriver1CommandsLib:Dh.obj
 0002:00006dd0       ??_C@_1O@NLHFMLEA@?$AA?$DM?$AAN?$AAo?$AAn?$AAe?$AA?$DO?$AA?$AA@ 00065dd0     UefiShellDriver1CommandsLib:Dh.obj
 0002:00006de0       ??_C@_17NDAAHGAG@?$AAB?$AAu?$AAs?$AA?$AA@ 00065de0     UefiShellDriver1CommandsLib:Dh.obj
 0002:00006de8       ??_C@_1BA@OBHGHNNB@?$AAD?$AAe?$AAv?$AAP?$AAa?$AAt?$AAh?$AA?$AA@ 00065de8     UefiShellDriver1CommandsLib:Dh.obj
 0002:00006df8       ??_C@_1BO@JHBAADC@?$AAC?$AAo?$AAn?$AAt?$AAr?$AAo?$AAl?$AAl?$AAe?$AAr?$AAN?$AAa?$AAm?$AAe?$AA?$AA@ 00065df8     UefiShellDriver1CommandsLib:Dh.obj
 0002:00006e18       ??_C@_1BG@LDKFKLIA@?$AAD?$AAr?$AAi?$AAv?$AAe?$AAr?$AAN?$AAa?$AAm?$AAe?$AA?$AA@ 00065e18     UefiShellDriver1CommandsLib:Dh.obj
 0002:00006e30       ??_C@_1BI@PIGGPLMC@?$AAH?$AAa?$AAn?$AAd?$AAl?$AAe?$AAs?$AAI?$AAn?$AAf?$AAo?$AA?$AA@ 00065e30     UefiShellDriver1CommandsLib:Dh.obj
 0002:00006e48       ??_C@_1BG@HBNBALLH@?$AAH?$AAa?$AAn?$AAd?$AAl?$AAe?$AAI?$AAn?$AAf?$AAo?$AA?$AA@ 00065e48     UefiShellDriver1CommandsLib:Dh.obj
 0002:00006e60       ??_C@_05DEHGPOPE@en?9us?$AA@ 00065e60     UefiShellDriver1CommandsLib:Dh.obj
 0002:00006e68       ??_C@_1O@KHECNKAL@?$AAd?$AAe?$AAc?$AAo?$AAd?$AAe?$AA?$AA@ 00065e68     UefiShellDriver1CommandsLib:Dh.obj
 0002:00006e80       _mGuidDataLen              00065e80     UefiShellDriver1CommandsLib:Dh.obj
 0002:00006ed8       ??_C@_0DP@GJACIKDF@c?3?2edk2?2ShellPkg?2Library?2UefiShe@ 00065ed8     UefiShellDriver1CommandsLib:DevTree.obj
 0002:00006f18       ??_C@_0BK@IFBJPJNB@HiiString?5?$CB?$DN?5?$CI?$CIvoid?5?$CK?$CJ?50?$CJ?$AA@ 00065f18     UefiShellDriver1CommandsLib:DevTree.obj
 0002:00006f34       ??_C@_1BC@OEEOMJPG@?$AA?$CF?$AA?$CF?$AA?$CF?$AAd?$AAs?$AA?5?$AA?$CF?$AAs?$AA?$AA@ 00065f34     UefiShellDriver1CommandsLib:DevTree.obj
 0002:00006f48       ??_C@_1BA@LEPJIIOK@?$AAU?$AAn?$AAk?$AAn?$AAo?$AAw?$AAn?$AA?$AA@ 00065f48     UefiShellDriver1CommandsLib:DevTree.obj
 0002:00006f78       ??_C@_1BA@DCMAKCEI@?$AAC?$AAo?$AAn?$AAn?$AAe?$AAc?$AAt?$AA?$AA@ 00065f78     UefiShellDriver1CommandsLib:Connect.obj
 0002:00006f88       ??_C@_0DP@MEILDMCJ@c?3?2edk2?2ShellPkg?2Library?2UefiShe@ 00065f88     UefiShellDriver1CommandsLib:Connect.obj
 0002:00006fe8       ??_C@_1BC@PMCLIFFJ@?$AAI?$AAn?$AAs?$AAt?$AAa?$AAl?$AAl?$AA1?$AA?$AA@ 00065fe8     UefiShellInstall1CommandsLib:UefiShellInstall1CommandsLib.obj
 0002:00006ffc       ??_C@_1O@KKGEAOFF@?$AAD?$AAe?$AAb?$AAu?$AAg?$AA1?$AA?$AA@ 00065ffc     UefiShellDebug1CommandsLib:UefiShellDebug1CommandsLib.obj
 0002:0000700c       ??_C@_1BA@LOEDEEBD@?$AAs?$AAe?$AAt?$AAs?$AAi?$AAz?$AAe?$AA?$AA@ 0006600c     UefiShellDebug1CommandsLib:UefiShellDebug1CommandsLib.obj
 0002:0000701c       ??_C@_19PADLCGPF@?$AAc?$AAo?$AAm?$AAp?$AA?$AA@ 0006601c     UefiShellDebug1CommandsLib:UefiShellDebug1CommandsLib.obj
 0002:00007028       ??_C@_19KODKOACD@?$AAm?$AAo?$AAd?$AAe?$AA?$AA@ 00066028     UefiShellDebug1CommandsLib:UefiShellDebug1CommandsLib.obj
 0002:00007034       ??_C@_1O@GCPCCEJL@?$AAm?$AAe?$AAm?$AAm?$AAa?$AAp?$AA?$AA@ 00066034     UefiShellDebug1CommandsLib:UefiShellDebug1CommandsLib.obj
 0002:00007044       ??_C@_1BI@LAIPDGGL@?$AAe?$AAf?$AAi?$AAc?$AAo?$AAm?$AAp?$AAr?$AAe?$AAs?$AAs?$AA?$AA@ 00066044     UefiShellDebug1CommandsLib:UefiShellDebug1CommandsLib.obj
 0002:0000705c       ??_C@_1BM@PNCADKIC@?$AAe?$AAf?$AAi?$AAd?$AAe?$AAc?$AAo?$AAm?$AAp?$AAr?$AAe?$AAs?$AAs?$AA?$AA@ 0006605c     UefiShellDebug1CommandsLib:UefiShellDebug1CommandsLib.obj
 0002:00007078       ??_C@_19BOOCDHNO@?$AAd?$AAm?$AAe?$AAm?$AA?$AA@ 00066078     UefiShellDebug1CommandsLib:UefiShellDebug1CommandsLib.obj
 0002:00007084       ??_C@_1BG@FNFDCN@?$AAl?$AAo?$AAa?$AAd?$AAp?$AAc?$AAi?$AAr?$AAo?$AAm?$AA?$AA@ 00066084     UefiShellDebug1CommandsLib:UefiShellDebug1CommandsLib.obj
 0002:0000709c       ??_C@_15DDBLGNAG@?$AAm?$AAm?$AA?$AA@ 0006609c     UefiShellDebug1CommandsLib:UefiShellDebug1CommandsLib.obj
 0002:000070a4       ??_C@_1O@JPLIACKD@?$AAs?$AAe?$AAt?$AAv?$AAa?$AAr?$AA?$AA@ 000660a4     UefiShellDebug1CommandsLib:UefiShellDebug1CommandsLib.obj
 0002:000070b4       ??_C@_1BA@JHKKDKME@?$AAs?$AAe?$AAr?$AAm?$AAo?$AAd?$AAe?$AA?$AA@ 000660b4     UefiShellDebug1CommandsLib:UefiShellDebug1CommandsLib.obj
 0002:000070c4       ??_C@_17POMDHEHL@?$AAp?$AAc?$AAi?$AA?$AA@ 000660c4     UefiShellDebug1CommandsLib:UefiShellDebug1CommandsLib.obj
 0002:000070cc       ??_C@_1BG@JEHOOHI@?$AAs?$AAm?$AAb?$AAi?$AAo?$AAs?$AAv?$AAi?$AAe?$AAw?$AA?$AA@ 000660cc     UefiShellDebug1CommandsLib:UefiShellDebug1CommandsLib.obj
 0002:000070e4       ??_C@_1BC@EBEMDMHF@?$AAd?$AAm?$AAp?$AAs?$AAt?$AAo?$AAr?$AAe?$AA?$AA@ 000660e4     UefiShellDebug1CommandsLib:UefiShellDebug1CommandsLib.obj
 0002:000070f8       ??_C@_19MFKGCLGG@?$AAd?$AAb?$AAl?$AAk?$AA?$AA@ 000660f8     UefiShellDebug1CommandsLib:UefiShellDebug1CommandsLib.obj
 0002:00007104       ??_C@_19LELMJPKF@?$AAe?$AAd?$AAi?$AAt?$AA?$AA@ 00066104     UefiShellDebug1CommandsLib:UefiShellDebug1CommandsLib.obj
 0002:00007110       ??_C@_1BA@NLOHLIAA@?$AAh?$AAe?$AAx?$AAe?$AAd?$AAi?$AAt?$AA?$AA@ 00066110     UefiShellDebug1CommandsLib:UefiShellDebug1CommandsLib.obj
 0002:00007120       ??_C@_17EAEGCEML@?$AAm?$AAe?$AAm?$AA?$AA@ 00066120     UefiShellDebug1CommandsLib:UefiShellDebug1CommandsLib.obj
 0002:00007128       ??_C@_0FB@BKDHBBLK@c?3?2edk2?2ShellPkg?2Library?2UefiShe@ 00066128     UefiShellDebug1CommandsLib:UefiShellDebug1CommandsLib.obj
 0002:0000717c       ??_C@_1BK@OCGPFNFF@?$AAN?$AAe?$AAw?$AAF?$AAi?$AAl?$AAe?$AA?$CF?$AAd?$AA?4?$AA?$CF?$AAs?$AA?$AA@ 0006617c     UefiShellDebug1CommandsLib:UefiShellDebug1CommandsLib.obj
 0002:000071b8       ??_C@_1BO@FHHPGHDB@?$AAP?$AAr?$AAe?$AA?5?$AA2?$AA?4?$AA0?$AA?5?$AAd?$AAe?$AAv?$AAi?$AAc?$AAe?$AA?$AA@ 000661b8     UefiShellDebug1CommandsLib:Pci.obj
 0002:000071d8       ??_C@_1DA@LLLBNMP@?$AAM?$AAa?$AAs?$AAs?$AA?5?$AAS?$AAt?$AAo?$AAr?$AAa?$AAg?$AAe?$AA?5?$AAC?$AAo?$AAn?$AAt?$AAr?$AAo?$AAl?$AAl?$AAe?$AAr?$AA?$AA@ 000661d8     UefiShellDebug1CommandsLib:Pci.obj
 0002:00007208       ??_C@_1CG@DJOJHJK@?$AAN?$AAe?$AAt?$AAw?$AAo?$AAr?$AAk?$AA?5?$AAC?$AAo?$AAn?$AAt?$AAr?$AAo?$AAl?$AAl?$AAe?$AAr?$AA?$AA@ 00066208     UefiShellDebug1CommandsLib:Pci.obj
 0002:00007230       ??_C@_1CG@JJENDPNP@?$AAD?$AAi?$AAs?$AAp?$AAl?$AAa?$AAy?$AA?5?$AAC?$AAo?$AAn?$AAt?$AAr?$AAo?$AAl?$AAl?$AAe?$AAr?$AA?$AA@ 00066230     UefiShellDebug1CommandsLib:Pci.obj
 0002:00007258       ??_C@_1CE@KMCFHDII@?$AAM?$AAu?$AAl?$AAt?$AAi?$AAm?$AAe?$AAd?$AAi?$AAa?$AA?5?$AAD?$AAe?$AAv?$AAi?$AAc?$AAe?$AA?$AA@ 00066258     UefiShellDebug1CommandsLib:Pci.obj
 0002:0000727c       ??_C@_1CE@HHMPPPCO@?$AAM?$AAe?$AAm?$AAo?$AAr?$AAy?$AA?5?$AAC?$AAo?$AAn?$AAt?$AAr?$AAo?$AAl?$AAl?$AAe?$AAr?$AA?$AA@ 0006627c     UefiShellDebug1CommandsLib:Pci.obj
 0002:000072a0       ??_C@_1BM@PEBPFOIH@?$AAB?$AAr?$AAi?$AAd?$AAg?$AAe?$AA?5?$AAD?$AAe?$AAv?$AAi?$AAc?$AAe?$AA?$AA@ 000662a0     UefiShellDebug1CommandsLib:Pci.obj
 0002:000072c0       ??_C@_1EE@OJMDAEND@?$AAS?$AAi?$AAm?$AAp?$AAl?$AAe?$AA?5?$AAC?$AAo?$AAm?$AAm?$AAu?$AAn?$AAi?$AAc?$AAa?$AAt?$AAi?$AAo?$AAn?$AAs?$AA?5?$AAC?$AAo?$AAn?$AAt?$AAr?$AAo?$AAl?$AAl?$AAe?$AAr@ 000662c0     UefiShellDebug1CommandsLib:Pci.obj
 0002:00007304       ??_C@_1DA@JJPCHBJI@?$AAB?$AAa?$AAs?$AAe?$AA?5?$AAS?$AAy?$AAs?$AAt?$AAe?$AAm?$AA?5?$AAP?$AAe?$AAr?$AAi?$AAp?$AAh?$AAe?$AAr?$AAa?$AAl?$AAs?$AA?$AA@ 00066304     UefiShellDebug1CommandsLib:Pci.obj
 0002:00007334       ??_C@_1BM@IPNGOEEO@?$AAI?$AAn?$AAp?$AAu?$AAt?$AA?5?$AAD?$AAe?$AAv?$AAi?$AAc?$AAe?$AAs?$AA?$AA@ 00066334     UefiShellDebug1CommandsLib:Pci.obj
 0002:00007350       ??_C@_1CC@BFNJJODO@?$AAD?$AAo?$AAc?$AAk?$AAi?$AAn?$AAg?$AA?5?$AAS?$AAt?$AAa?$AAt?$AAi?$AAo?$AAn?$AAs?$AA?$AA@ 00066350     UefiShellDebug1CommandsLib:Pci.obj
 0002:00007374       ??_C@_1BG@EACBMCBE@?$AAP?$AAr?$AAo?$AAc?$AAe?$AAs?$AAs?$AAo?$AAr?$AAs?$AA?$AA@ 00066374     UefiShellDebug1CommandsLib:Pci.obj
 0002:0000738c       ??_C@_1CO@FGNBEBNP@?$AAS?$AAe?$AAr?$AAi?$AAa?$AAl?$AA?5?$AAB?$AAu?$AAs?$AA?5?$AAC?$AAo?$AAn?$AAt?$AAr?$AAo?$AAl?$AAl?$AAe?$AAr?$AAs?$AA?$AA@ 0006638c     UefiShellDebug1CommandsLib:Pci.obj
 0002:000073bc       ??_C@_1CK@EGCGOPBE@?$AAW?$AAi?$AAr?$AAe?$AAl?$AAe?$AAs?$AAs?$AA?5?$AAC?$AAo?$AAn?$AAt?$AAr?$AAo?$AAl?$AAl?$AAe?$AAr?$AAs?$AA?$AA@ 000663bc     UefiShellDebug1CommandsLib:Pci.obj
 0002:000073e8       ??_C@_1DG@MPIOKBPH@?$AAI?$AAn?$AAt?$AAe?$AAl?$AAl?$AAi?$AAg?$AAe?$AAn?$AAt?$AA?5?$AAI?$AAO?$AA?5?$AAC?$AAo?$AAn?$AAt?$AAr?$AAo?$AAl?$AAl?$AAe?$AAr?$AAs?$AA?$AA@ 000663e8     UefiShellDebug1CommandsLib:Pci.obj
 0002:00007420       ??_C@_1EK@IEOCACFF@?$AAS?$AAa?$AAt?$AAe?$AAl?$AAl?$AAi?$AAt?$AAe?$AA?5?$AAC?$AAo?$AAm?$AAm?$AAu?$AAn?$AAi?$AAc?$AAa?$AAt?$AAi?$AAo?$AAn?$AAs?$AA?5?$AAC?$AAo?$AAn?$AAt?$AAr?$AAo?$AAl@ 00066420     UefiShellDebug1CommandsLib:Pci.obj
 0002:00007470       ??_C@_1EE@LDCDGNDM@?$AAE?$AAn?$AAc?$AAr?$AAy?$AAp?$AAt?$AAi?$AAo?$AAn?$AA?1?$AAD?$AAe?$AAc?$AAr?$AAy?$AAp?$AAt?$AAi?$AAo?$AAn?$AA?5?$AAC?$AAo?$AAn?$AAt?$AAr?$AAo?$AAl?$AAl?$AAe?$AAr@ 00066470     UefiShellDebug1CommandsLib:Pci.obj
 0002:000074b8       ??_C@_1GC@PAEFCGGN@?$AAD?$AAa?$AAt?$AAa?$AA?5?$AAA?$AAc?$AAq?$AAu?$AAi?$AAs?$AAi?$AAt?$AAi?$AAo?$AAn?$AA?5?$AA?$CG?$AA?5?$AAS?$AAi?$AAg?$AAn?$AAa?$AAl?$AA?5?$AAP?$AAr?$AAo?$AAc?$AAe?$AAs@ 000664b8     UefiShellDebug1CommandsLib:Pci.obj
 0002:0000751c       ??_C@_1DA@IKKFKEGB@?$AAP?$AAr?$AAo?$AAc?$AAe?$AAs?$AAs?$AAi?$AAn?$AAg?$AA?5?$AAA?$AAc?$AAc?$AAe?$AAl?$AAe?$AAr?$AAa?$AAt?$AAo?$AAr?$AAs?$AA?$AA@ 0006651c     UefiShellDebug1CommandsLib:Pci.obj
 0002:0000754c       ??_C@_1DM@FBKJCLED@?$AAN?$AAo?$AAn?$AA?9?$AAE?$AAs?$AAs?$AAe?$AAn?$AAt?$AAi?$AAa?$AAl?$AA?5?$AAI?$AAn?$AAs?$AAt?$AAr?$AAu?$AAm?$AAe?$AAn?$AAt?$AAa?$AAt?$AAi?$AAo?$AAn?$AA?$AA@ 0006654c     UefiShellDebug1CommandsLib:Pci.obj
 0002:00007588       ??_C@_1FG@FGDNODGF@?$AAD?$AAe?$AAv?$AAi?$AAc?$AAe?$AA?5?$AAd?$AAo?$AAe?$AAs?$AA?5?$AAn?$AAo?$AAt?$AA?5?$AAf?$AAi?$AAt?$AA?5?$AAi?$AAn?$AA?5?$AAa?$AAn?$AAy?$AA?5?$AAd?$AAe?$AAf?$AAi?$AAn@ 00066588     UefiShellDebug1CommandsLib:Pci.obj
 0002:000075e0       ??_C@_1DG@EIEHDMIH@?$AAA?$AAl?$AAl?$AA?5?$AAd?$AAe?$AAv?$AAi?$AAc?$AAe?$AAs?$AA?5?$AAo?$AAt?$AAh?$AAe?$AAr?$AA?5?$AAt?$AAh?$AAa?$AAn?$AA?5?$AAV?$AAG?$AAA?$AA?$AA@ 000665e0     UefiShellDebug1CommandsLib:Pci.obj
 0002:00007618       ??_C@_1CO@GHIDOIFO@?$AAV?$AAG?$AAA?$AA?9?$AAc?$AAo?$AAm?$AAp?$AAa?$AAt?$AAi?$AAb?$AAl?$AAe?$AA?5?$AAd?$AAe?$AAv?$AAi?$AAc?$AAe?$AAs?$AA?$AA@ 00066618     UefiShellDebug1CommandsLib:Pci.obj
 0002:00007648       ??_C@_19IFECACCC@?$AAS?$AAC?$AAS?$AAI?$AA?$AA@ 00066648     UefiShellDebug1CommandsLib:Pci.obj
 0002:00007654       ??_C@_1BO@CGNFEKHE@?$AAI?$AAD?$AAE?$AA?5?$AAc?$AAo?$AAn?$AAt?$AAr?$AAo?$AAl?$AAl?$AAe?$AAr?$AA?$AA@ 00066654     UefiShellDebug1CommandsLib:Pci.obj
 0002:00007674       ??_C@_1CO@OCPABPEM@?$AAF?$AAl?$AAo?$AAp?$AAp?$AAy?$AA?5?$AAd?$AAi?$AAs?$AAk?$AA?5?$AAc?$AAo?$AAn?$AAt?$AAr?$AAo?$AAl?$AAl?$AAe?$AAr?$AA?$AA@ 00066674     UefiShellDebug1CommandsLib:Pci.obj
 0002:000076a4       ??_C@_1BO@EEOANELC@?$AAI?$AAP?$AAI?$AA?5?$AAc?$AAo?$AAn?$AAt?$AAr?$AAo?$AAl?$AAl?$AAe?$AAr?$AA?$AA@ 000666a4     UefiShellDebug1CommandsLib:Pci.obj
 0002:000076c4       ??_C@_1CA@LKIEKACD@?$AAR?$AAA?$AAI?$AAD?$AA?5?$AAc?$AAo?$AAn?$AAt?$AAr?$AAo?$AAl?$AAl?$AAe?$AAr?$AA?$AA@ 000666c4     UefiShellDebug1CommandsLib:Pci.obj
 0002:000076e8       ??_C@_1EG@LKIEOAKF@?$AAA?$AAT?$AAA?$AA?5?$AAc?$AAo?$AAn?$AAt?$AAr?$AAo?$AAl?$AAl?$AAe?$AAr?$AA?5?$AAw?$AAi?$AAt?$AAh?$AA?5?$AAA?$AAD?$AAM?$AAA?$AA?5?$AAi?$AAn?$AAt?$AAe?$AAr?$AAf?$AAa@ 000666e8     UefiShellDebug1CommandsLib:Pci.obj
 0002:00007730       ??_C@_1CM@JHAKIJKJ@?$AAS?$AAe?$AAr?$AAi?$AAa?$AAl?$AA?5?$AAA?$AAT?$AAA?$AA?5?$AAc?$AAo?$AAn?$AAt?$AAr?$AAo?$AAl?$AAl?$AAe?$AAr?$AA?$AA@ 00066730     UefiShellDebug1CommandsLib:Pci.obj
 0002:00007760       ??_C@_1EO@DAJIOEPF@?$AAS?$AAe?$AAr?$AAi?$AAa?$AAl?$AA?5?$AAA?$AAt?$AAt?$AAa?$AAc?$AAh?$AAe?$AAd?$AA?5?$AAS?$AAC?$AAS?$AAI?$AA?5?$AA?$CI?$AAS?$AAA?$AAS?$AA?$CJ?$AA?5?$AAc?$AAo?$AAn?$AAt?$AAr@ 00066760     UefiShellDebug1CommandsLib:Pci.obj
 0002:000077b0       ??_C@_1DM@PIFIGALG@?$AAN?$AAo?$AAn?$AA?9?$AAv?$AAo?$AAl?$AAa?$AAt?$AAi?$AAl?$AAe?$AA?5?$AAm?$AAe?$AAm?$AAo?$AAr?$AAy?$AA?5?$AAs?$AAu?$AAb?$AAs?$AAy?$AAs?$AAt?$AAe?$AAm?$AA?$AA@ 000667b0     UefiShellDebug1CommandsLib:Pci.obj
 0002:000077f0       ??_C@_1FE@JNFDMGLF@?$AAU?$AAn?$AAi?$AAv?$AAe?$AAr?$AAs?$AAa?$AAl?$AA?5?$AAF?$AAl?$AAa?$AAs?$AAh?$AA?5?$AAS?$AAt?$AAo?$AAr?$AAa?$AAg?$AAe?$AA?5?$AA?$CI?$AAU?$AAF?$AAS?$AA?$CJ?$AA?5?$AAc?$AAo@ 000667f0     UefiShellDebug1CommandsLib:Pci.obj
 0002:00007844       ??_C@_1DM@GMADEAE@?$AAO?$AAt?$AAh?$AAe?$AAr?$AA?5?$AAm?$AAa?$AAs?$AAs?$AA?5?$AAs?$AAt?$AAo?$AAr?$AAa?$AAg?$AAe?$AA?5?$AAc?$AAo?$AAn?$AAt?$AAr?$AAo?$AAl?$AAl?$AAe?$AAr?$AA?$AA@ 00066844     UefiShellDebug1CommandsLib:Pci.obj
 0002:00007880       ??_C@_1CI@MKGCMDAM@?$AAE?$AAt?$AAh?$AAe?$AAr?$AAn?$AAe?$AAt?$AA?5?$AAc?$AAo?$AAn?$AAt?$AAr?$AAo?$AAl?$AAl?$AAe?$AAr?$AA?$AA@ 00066880     UefiShellDebug1CommandsLib:Pci.obj
 0002:000078a8       ??_C@_1CM@NBJAIACL@?$AAT?$AAo?$AAk?$AAe?$AAn?$AA?5?$AAr?$AAi?$AAn?$AAg?$AA?5?$AAc?$AAo?$AAn?$AAt?$AAr?$AAo?$AAl?$AAl?$AAe?$AAr?$AA?$AA@ 000668a8     UefiShellDebug1CommandsLib:Pci.obj
 0002:000078d4       ??_C@_1CA@IJNJEHLM@?$AAF?$AAD?$AAD?$AAI?$AA?5?$AAc?$AAo?$AAn?$AAt?$AAr?$AAo?$AAl?$AAl?$AAe?$AAr?$AA?$AA@ 000668d4     UefiShellDebug1CommandsLib:Pci.obj
 0002:000078f4       ??_C@_1BO@FANFKIBJ@?$AAA?$AAT?$AAM?$AA?5?$AAc?$AAo?$AAn?$AAt?$AAr?$AAo?$AAl?$AAl?$AAe?$AAr?$AA?$AA@ 000668f4     UefiShellDebug1CommandsLib:Pci.obj
 0002:00007914       ??_C@_1CA@MPFFIPGB@?$AAI?$AAS?$AAD?$AAN?$AA?5?$AAc?$AAo?$AAn?$AAt?$AAr?$AAo?$AAl?$AAl?$AAe?$AAr?$AA?$AA@ 00066914     UefiShellDebug1CommandsLib:Pci.obj
 0002:00007934       ??_C@_1CI@ODICNMOO@?$AAW?$AAo?$AAr?$AAl?$AAd?$AAF?$AAi?$AAp?$AA?5?$AAc?$AAo?$AAn?$AAt?$AAr?$AAo?$AAl?$AAl?$AAe?$AAr?$AA?$AA@ 00066934     UefiShellDebug1CommandsLib:Pci.obj
 0002:0000795c       ??_C@_1DG@HDLKGLB@?$AAP?$AAI?$AAC?$AAM?$AAG?$AA?5?$AA2?$AA?4?$AA1?$AA4?$AA?5?$AAM?$AAu?$AAl?$AAt?$AAi?$AA?5?$AAC?$AAo?$AAm?$AAp?$AAu?$AAt?$AAi?$AAn?$AAg?$AA?$AA@ 0006695c     UefiShellDebug1CommandsLib:Pci.obj
 0002:00007994       ??_C@_1CM@POJFDLKO@?$AAI?$AAn?$AAf?$AAi?$AAn?$AAi?$AAB?$AAa?$AAn?$AAd?$AA?5?$AAc?$AAo?$AAn?$AAt?$AAr?$AAo?$AAl?$AAl?$AAe?$AAr?$AA?$AA@ 00066994     UefiShellDebug1CommandsLib:Pci.obj
 0002:000079c0       ??_C@_1DC@POIFFGNG@?$AAO?$AAt?$AAh?$AAe?$AAr?$AA?5?$AAn?$AAe?$AAt?$AAw?$AAo?$AAr?$AAk?$AA?5?$AAc?$AAo?$AAn?$AAt?$AAr?$AAo?$AAl?$AAl?$AAe?$AAr?$AA?$AA@ 000669c0     UefiShellDebug1CommandsLib:Pci.obj
 0002:000079f4       ??_C@_1CI@IOIIPJMI@?$AAV?$AAG?$AAA?$AA?1?$AA8?$AA5?$AA1?$AA4?$AA?5?$AAc?$AAo?$AAn?$AAt?$AAr?$AAo?$AAl?$AAl?$AAe?$AAr?$AA?$AA@ 000669f4     UefiShellDebug1CommandsLib:Pci.obj
 0002:00007a1c       ??_C@_1BO@ECBDAEIH@?$AAX?$AAG?$AAA?$AA?5?$AAc?$AAo?$AAn?$AAt?$AAr?$AAo?$AAl?$AAl?$AAe?$AAr?$AA?$AA@ 00066a1c     UefiShellDebug1CommandsLib:Pci.obj
 0002:00007a3c       ??_C@_1BM@BJPNGIJM@?$AA3?$AAD?$AA?5?$AAc?$AAo?$AAn?$AAt?$AAr?$AAo?$AAl?$AAl?$AAe?$AAr?$AA?$AA@ 00066a3c     UefiShellDebug1CommandsLib:Pci.obj
 0002:00007a58       ??_C@_1DC@GEFGPOJD@?$AAO?$AAt?$AAh?$AAe?$AAr?$AA?5?$AAd?$AAi?$AAs?$AAp?$AAl?$AAa?$AAy?$AA?5?$AAc?$AAo?$AAn?$AAt?$AAr?$AAo?$AAl?$AAl?$AAe?$AAr?$AA?$AA@ 00066a58     UefiShellDebug1CommandsLib:Pci.obj
 0002:00007a8c       ??_C@_1BK@FPJMHJC@?$AAV?$AAi?$AAd?$AAe?$AAo?$AA?5?$AAd?$AAe?$AAv?$AAi?$AAc?$AAe?$AA?$AA@ 00066a8c     UefiShellDebug1CommandsLib:Pci.obj
 0002:00007aa8       ??_C@_1BK@GADOAHPL@?$AAA?$AAu?$AAd?$AAi?$AAo?$AA?5?$AAd?$AAe?$AAv?$AAi?$AAc?$AAe?$AA?$AA@ 00066aa8     UefiShellDebug1CommandsLib:Pci.obj
 0002:00007ac4       ??_C@_1DE@DHNAOJDN@?$AAC?$AAo?$AAm?$AAp?$AAu?$AAt?$AAe?$AAr?$AA?5?$AAT?$AAe?$AAl?$AAe?$AAp?$AAh?$AAo?$AAn?$AAy?$AA?5?$AAd?$AAe?$AAv?$AAi?$AAc?$AAe?$AA?$AA@ 00066ac4     UefiShellDebug1CommandsLib:Pci.obj
 0002:00007af8       ??_C@_1CE@LALKIPBB@?$AAM?$AAi?$AAx?$AAe?$AAd?$AA?5?$AAm?$AAo?$AAd?$AAe?$AA?5?$AAd?$AAe?$AAv?$AAi?$AAc?$AAe?$AA?$AA@ 00066af8     UefiShellDebug1CommandsLib:Pci.obj
 0002:00007b1c       ??_C@_1DA@JPDDOFFC@?$AAO?$AAt?$AAh?$AAe?$AAr?$AA?5?$AAm?$AAu?$AAl?$AAt?$AAi?$AAm?$AAe?$AAd?$AAi?$AAa?$AA?5?$AAd?$AAe?$AAv?$AAi?$AAc?$AAe?$AA?$AA@ 00066b1c     UefiShellDebug1CommandsLib:Pci.obj
 0002:00007b4c       ??_C@_1CM@CDONCKCE@?$AAR?$AAA?$AAM?$AA?5?$AAm?$AAe?$AAm?$AAo?$AAr?$AAy?$AA?5?$AAc?$AAo?$AAn?$AAt?$AAr?$AAo?$AAl?$AAl?$AAe?$AAr?$AA?$AA@ 00066b4c     UefiShellDebug1CommandsLib:Pci.obj
 0002:00007b78       ??_C@_1DA@BLKLFNMJ@?$AAF?$AAl?$AAa?$AAs?$AAh?$AA?5?$AAm?$AAe?$AAm?$AAo?$AAr?$AAy?$AA?5?$AAc?$AAo?$AAn?$AAt?$AAr?$AAo?$AAl?$AAl?$AAe?$AAr?$AA?$AA@ 00066b78     UefiShellDebug1CommandsLib:Pci.obj
 0002:00007ba8       ??_C@_1DA@BCCIDOP@?$AAO?$AAt?$AAh?$AAe?$AAr?$AA?5?$AAm?$AAe?$AAm?$AAo?$AAr?$AAy?$AA?5?$AAc?$AAo?$AAn?$AAt?$AAr?$AAo?$AAl?$AAl?$AAe?$AAr?$AA?$AA@ 00066ba8     UefiShellDebug1CommandsLib:Pci.obj
 0002:00007bd8       ??_C@_1CA@PJEDLLCL@?$AAH?$AAo?$AAs?$AAt?$AA?1?$AAP?$AAC?$AAI?$AA?5?$AAb?$AAr?$AAi?$AAd?$AAg?$AAe?$AA?$AA@ 00066bd8     UefiShellDebug1CommandsLib:Pci.obj
 0002:00007bf8       ??_C@_1BO@KJACFBI@?$AAP?$AAC?$AAI?$AA?1?$AAI?$AAS?$AAA?$AA?5?$AAb?$AAr?$AAi?$AAd?$AAg?$AAe?$AA?$AA@ 00066bf8     UefiShellDebug1CommandsLib:Pci.obj
 0002:00007c18       ??_C@_1CA@OGMGGONI@?$AAP?$AAC?$AAI?$AA?1?$AAE?$AAI?$AAS?$AAA?$AA?5?$AAb?$AAr?$AAi?$AAd?$AAg?$AAe?$AA?$AA@ 00066c18     UefiShellDebug1CommandsLib:Pci.obj
 0002:00007c38       ??_C@_1DC@PGKAHCKF@?$AAP?$AAC?$AAI?$AA?1?$AAM?$AAi?$AAc?$AAr?$AAo?$AA?5?$AAC?$AAh?$AAa?$AAn?$AAn?$AAe?$AAl?$AA?5?$AAb?$AAr?$AAi?$AAd?$AAg?$AAe?$AA?$AA@ 00066c38     UefiShellDebug1CommandsLib:Pci.obj
 0002:00007c6c       ??_C@_1BO@PKJLCILA@?$AAP?$AAC?$AAI?$AA?1?$AAP?$AAC?$AAI?$AA?5?$AAb?$AAr?$AAi?$AAd?$AAg?$AAe?$AA?$AA@ 00066c6c     UefiShellDebug1CommandsLib:Pci.obj
 0002:00007c8c       ??_C@_1CE@FCMDMIFD@?$AAP?$AAC?$AAI?$AA?1?$AAP?$AAC?$AAM?$AAC?$AAI?$AAA?$AA?5?$AAb?$AAr?$AAi?$AAd?$AAg?$AAe?$AA?$AA@ 00066c8c     UefiShellDebug1CommandsLib:Pci.obj
 0002:00007cb0       ??_C@_1BK@EAGDOIJJ@?$AAN?$AAu?$AAB?$AAu?$AAs?$AA?5?$AAb?$AAr?$AAi?$AAd?$AAg?$AAe?$AA?$AA@ 00066cb0     UefiShellDebug1CommandsLib:Pci.obj
 0002:00007ccc       ??_C@_1BO@ENOKOIAD@?$AAC?$AAa?$AAr?$AAd?$AAB?$AAu?$AAs?$AA?5?$AAb?$AAr?$AAi?$AAd?$AAg?$AAe?$AA?$AA@ 00066ccc     UefiShellDebug1CommandsLib:Pci.obj
 0002:00007cec       ??_C@_1BO@FMPPOIBL@?$AAR?$AAA?$AAC?$AAE?$AAw?$AAa?$AAy?$AA?5?$AAb?$AAr?$AAi?$AAd?$AAg?$AAe?$AA?$AA@ 00066cec     UefiShellDebug1CommandsLib:Pci.obj
 0002:00007d10       ??_C@_1EG@KGEAMFNP@?$AAS?$AAe?$AAm?$AAi?$AA?9?$AAt?$AAr?$AAa?$AAn?$AAs?$AAp?$AAa?$AAr?$AAe?$AAn?$AAt?$AA?5?$AAP?$AAC?$AAI?$AA?9?$AAt?$AAo?$AA?9?$AAP?$AAC?$AAI?$AA?5?$AAb?$AAr?$AAi?$AAd@ 00066d10     UefiShellDebug1CommandsLib:Pci.obj
 0002:00007d58       ??_C@_1DM@EABGMKAJ@?$AAI?$AAn?$AAf?$AAi?$AAn?$AAi?$AAB?$AAa?$AAn?$AAd?$AA?9?$AAt?$AAo?$AA?9?$AAP?$AAC?$AAI?$AA?5?$AAh?$AAo?$AAs?$AAt?$AA?5?$AAb?$AAr?$AAi?$AAd?$AAg?$AAe?$AA?$AA@ 00066d58     UefiShellDebug1CommandsLib:Pci.obj
 0002:00007d98       ??_C@_1EM@OLOAJOAL@?$AAA?$AAd?$AAv?$AAa?$AAn?$AAc?$AAe?$AAd?$AA?5?$AAS?$AAw?$AAi?$AAt?$AAc?$AAh?$AAi?$AAn?$AAg?$AA?5?$AAt?$AAo?$AA?5?$AAP?$AAC?$AAI?$AA?5?$AAh?$AAo?$AAs?$AAt?$AA?5?$AAb@ 00066d98     UefiShellDebug1CommandsLib:Pci.obj
 0002:00007de4       ??_C@_1CE@NEKBIMIP@?$AAO?$AAt?$AAh?$AAe?$AAr?$AA?5?$AAb?$AAr?$AAi?$AAd?$AAg?$AAe?$AA?5?$AAt?$AAy?$AAp?$AAe?$AA?$AA@ 00066de4     UefiShellDebug1CommandsLib:Pci.obj
 0002:00007e08       ??_C@_1CE@BGLBPGLN@?$AAS?$AAe?$AAr?$AAi?$AAa?$AAl?$AA?5?$AAc?$AAo?$AAn?$AAt?$AAr?$AAo?$AAl?$AAl?$AAe?$AAr?$AA?$AA@ 00066e08     UefiShellDebug1CommandsLib:Pci.obj
 0002:00007e2c       ??_C@_1BM@CJCKEIPF@?$AAP?$AAa?$AAr?$AAa?$AAl?$AAl?$AAe?$AAl?$AA?5?$AAp?$AAo?$AAr?$AAt?$AA?$AA@ 00066e2c     UefiShellDebug1CommandsLib:Pci.obj
 0002:00007e48       ??_C@_1DI@PLEGPFLG@?$AAM?$AAu?$AAl?$AAt?$AAi?$AAp?$AAo?$AAr?$AAt?$AA?5?$AAs?$AAe?$AAr?$AAi?$AAa?$AAl?$AA?5?$AAc?$AAo?$AAn?$AAt?$AAr?$AAo?$AAl?$AAl?$AAe?$AAr?$AA?$AA@ 00066e48     UefiShellDebug1CommandsLib:Pci.obj
 0002:00007e80       ??_C@_1M@MPNOMPAF@?$AAM?$AAo?$AAd?$AAe?$AAm?$AA?$AA@ 00066e80     UefiShellDebug1CommandsLib:Pci.obj
 0002:00007e8c       ??_C@_1DO@IJFMBKM@?$AAG?$AAP?$AAI?$AAB?$AA?5?$AA?$CI?$AAI?$AAE?$AAE?$AAE?$AA?5?$AA4?$AA8?$AA8?$AA?4?$AA1?$AA?1?$AA2?$AA?$CJ?$AA?5?$AAc?$AAo?$AAn?$AAt?$AAr?$AAo?$AAl?$AAl?$AAe?$AAr?$AA?$AA@ 00066e8c     UefiShellDebug1CommandsLib:Pci.obj
 0002:00007ecc       ??_C@_1BG@LEINKDBM@?$AAS?$AAm?$AAa?$AAr?$AAt?$AA?5?$AAC?$AAa?$AAr?$AAd?$AA?$AA@ 00066ecc     UefiShellDebug1CommandsLib:Pci.obj
 0002:00007ee4       ??_C@_1DG@CJEOCFGB@?$AAO?$AAt?$AAh?$AAe?$AAr?$AA?5?$AAc?$AAo?$AAm?$AAm?$AAu?$AAn?$AAi?$AAc?$AAa?$AAt?$AAi?$AAo?$AAn?$AA?5?$AAd?$AAe?$AAv?$AAi?$AAc?$AAe?$AA?$AA@ 00066ee4     UefiShellDebug1CommandsLib:Pci.obj
 0002:00007f1c       ??_C@_17GOANHPCH@?$AAP?$AAI?$AAC?$AA?$AA@ 00066f1c     UefiShellDebug1CommandsLib:Pci.obj
 0002:00007f24       ??_C@_1BO@PFMOLIHG@?$AAD?$AAM?$AAA?$AA?5?$AAc?$AAo?$AAn?$AAt?$AAr?$AAo?$AAl?$AAl?$AAe?$AAr?$AA?$AA@ 00066f24     UefiShellDebug1CommandsLib:Pci.obj
 0002:00007f44       ??_C@_1BK@ENPFJMHF@?$AAS?$AAy?$AAs?$AAt?$AAe?$AAm?$AA?5?$AAt?$AAi?$AAm?$AAe?$AAr?$AA?$AA@ 00066f44     UefiShellDebug1CommandsLib:Pci.obj
 0002:00007f60       ??_C@_1BO@OGPEBAO@?$AAR?$AAT?$AAC?$AA?5?$AAc?$AAo?$AAn?$AAt?$AAr?$AAo?$AAl?$AAl?$AAe?$AAr?$AA?$AA@ 00066f60     UefiShellDebug1CommandsLib:Pci.obj
 0002:00007f80       ??_C@_1EA@CDECOACP@?$AAG?$AAe?$AAn?$AAe?$AAr?$AAi?$AAc?$AA?5?$AAP?$AAC?$AAI?$AA?5?$AAH?$AAo?$AAt?$AA?9?$AAP?$AAl?$AAu?$AAg?$AA?5?$AAc?$AAo?$AAn?$AAt?$AAr?$AAo?$AAl?$AAl?$AAe?$AAr?$AA?$AA@ 00066f80     UefiShellDebug1CommandsLib:Pci.obj
 0002:00007fc0       ??_C@_1CG@KIGJEEJF@?$AAS?$AAD?$AA?5?$AAH?$AAo?$AAs?$AAt?$AA?5?$AAc?$AAo?$AAn?$AAt?$AAr?$AAo?$AAl?$AAl?$AAe?$AAr?$AA?$AA@ 00066fc0     UefiShellDebug1CommandsLib:Pci.obj
 0002:00007fe8       ??_C@_1M@LLNMNJMC@?$AAI?$AAO?$AAM?$AAM?$AAU?$AA?$AA@ 00066fe8     UefiShellDebug1CommandsLib:Pci.obj
 0002:00007ff4       ??_C@_1DK@FAENCBAC@?$AAR?$AAo?$AAo?$AAt?$AA?5?$AAC?$AAo?$AAm?$AAp?$AAl?$AAe?$AAx?$AA?5?$AAE?$AAv?$AAe?$AAn?$AAt?$AA?5?$AAC?$AAo?$AAl?$AAl?$AAe?$AAc?$AAt?$AAo?$AAr?$AA?$AA@ 00066ff4     UefiShellDebug1CommandsLib:Pci.obj
 0002:00008030       ??_C@_1DA@EFOIJPG@?$AAO?$AAt?$AAh?$AAe?$AAr?$AA?5?$AAs?$AAy?$AAs?$AAt?$AAe?$AAm?$AA?5?$AAp?$AAe?$AAr?$AAi?$AAp?$AAh?$AAe?$AAr?$AAa?$AAl?$AA?$AA@ 00067030     UefiShellDebug1CommandsLib:Pci.obj
 0002:00008060       ??_C@_1CI@BAKBKHNI@?$AAK?$AAe?$AAy?$AAb?$AAo?$AAa?$AAr?$AAd?$AA?5?$AAc?$AAo?$AAn?$AAt?$AAr?$AAo?$AAl?$AAl?$AAe?$AAr?$AA?$AA@ 00067060     UefiShellDebug1CommandsLib:Pci.obj
 0002:00008088       ??_C@_1CA@KMFJBDH@?$AAD?$AAi?$AAg?$AAi?$AAt?$AAi?$AAz?$AAe?$AAr?$AA?5?$AA?$CI?$AAp?$AAe?$AAn?$AA?$CJ?$AA?$AA@ 00067088     UefiShellDebug1CommandsLib:Pci.obj
 0002:000080a8       ??_C@_1CC@FCDLEDHK@?$AAM?$AAo?$AAu?$AAs?$AAe?$AA?5?$AAc?$AAo?$AAn?$AAt?$AAr?$AAo?$AAl?$AAl?$AAe?$AAr?$AA?$AA@ 000670a8     UefiShellDebug1CommandsLib:Pci.obj
 0002:000080cc       ??_C@_1CG@DBNALJHF@?$AAS?$AAc?$AAa?$AAn?$AAn?$AAe?$AAr?$AA?5?$AAc?$AAo?$AAn?$AAt?$AAr?$AAo?$AAl?$AAl?$AAe?$AAr?$AA?$AA@ 000670cc     UefiShellDebug1CommandsLib:Pci.obj
 0002:000080f4       ??_C@_1CI@JKMDFCJL@?$AAG?$AAa?$AAm?$AAe?$AAp?$AAo?$AAr?$AAt?$AA?5?$AAc?$AAo?$AAn?$AAt?$AAr?$AAo?$AAl?$AAl?$AAe?$AAr?$AA?$AA@ 000670f4     UefiShellDebug1CommandsLib:Pci.obj
 0002:0000811c       ??_C@_1CO@PNNLGBCE@?$AAO?$AAt?$AAh?$AAe?$AAr?$AA?5?$AAi?$AAn?$AAp?$AAu?$AAt?$AA?5?$AAc?$AAo?$AAn?$AAt?$AAr?$AAo?$AAl?$AAl?$AAe?$AAr?$AA?$AA@ 0006711c     UefiShellDebug1CommandsLib:Pci.obj
 0002:0000814c       ??_C@_1DA@BIIEBDGB@?$AAG?$AAe?$AAn?$AAe?$AAr?$AAi?$AAc?$AA?5?$AAd?$AAo?$AAc?$AAk?$AAi?$AAn?$AAg?$AA?5?$AAs?$AAt?$AAa?$AAt?$AAi?$AAo?$AAn?$AA?$AA@ 0006714c     UefiShellDebug1CommandsLib:Pci.obj
 0002:0000817c       ??_C@_1DM@GALPNCIO@?$AAO?$AAt?$AAh?$AAe?$AAr?$AA?5?$AAt?$AAy?$AAp?$AAe?$AA?5?$AAo?$AAf?$AA?5?$AAd?$AAo?$AAc?$AAk?$AAi?$AAn?$AAg?$AA?5?$AAs?$AAt?$AAa?$AAt?$AAi?$AAo?$AAn?$AA?$AA@ 0006717c     UefiShellDebug1CommandsLib:Pci.obj
 0002:000081b8       ??_C@_17KMPGFGLF@?$AA3?$AA8?$AA6?$AA?$AA@ 000671b8     UefiShellDebug1CommandsLib:Pci.obj
 0002:000081c0       ??_C@_17KGDDFPKM@?$AA4?$AA8?$AA6?$AA?$AA@ 000671c0     UefiShellDebug1CommandsLib:Pci.obj
 0002:000081c8       ??_C@_1BA@LAKFAPEC@?$AAP?$AAe?$AAn?$AAt?$AAi?$AAu?$AAm?$AA?$AA@ 000671c8     UefiShellDebug1CommandsLib:Pci.obj
 0002:000081d8       ??_C@_1M@CPFKKKDA@?$AAA?$AAl?$AAp?$AAh?$AAa?$AA?$AA@ 000671d8     UefiShellDebug1CommandsLib:Pci.obj
 0002:000081e4       ??_C@_1BA@NBCIJJH@?$AAP?$AAo?$AAw?$AAe?$AAr?$AAP?$AAC?$AA?$AA@ 000671e4     UefiShellDebug1CommandsLib:Pci.obj
 0002:000081f4       ??_C@_19JENFGKOE@?$AAM?$AAI?$AAP?$AAS?$AA?$AA@ 000671f4     UefiShellDebug1CommandsLib:Pci.obj
 0002:00008200       ??_C@_1BK@NEHJAFMH@?$AAC?$AAo?$AA?9?$AAp?$AAr?$AAo?$AAc?$AAe?$AAs?$AAs?$AAo?$AAr?$AA?$AA@ 00067200     UefiShellDebug1CommandsLib:Pci.obj
 0002:0000821c       ??_C@_1CA@GFOGEFGB@?$AAO?$AAt?$AAh?$AAe?$AAr?$AA?5?$AAp?$AAr?$AAo?$AAc?$AAe?$AAs?$AAs?$AAo?$AAr?$AA?$AA@ 0006721c     UefiShellDebug1CommandsLib:Pci.obj
 0002:0000823c       ??_C@_1BE@DKFKNFJE@?$AAI?$AAE?$AAE?$AAE?$AA?5?$AA1?$AA3?$AA9?$AA4?$AA?$AA@ 0006723c     UefiShellDebug1CommandsLib:Pci.obj
 0002:00008250       ??_C@_1BG@OFHNADDF@?$AAA?$AAC?$AAC?$AAE?$AAS?$AAS?$AA?4?$AAb?$AAu?$AAs?$AA?$AA@ 00067250     UefiShellDebug1CommandsLib:Pci.obj
 0002:00008268       ??_C@_17OIMGJBLC@?$AAS?$AAS?$AAA?$AA?$AA@ 00067268     UefiShellDebug1CommandsLib:Pci.obj
 0002:00008270       ??_C@_17DMBMDHNL@?$AAU?$AAS?$AAB?$AA?$AA@ 00067270     UefiShellDebug1CommandsLib:Pci.obj
 0002:00008278       ??_C@_1BM@FLLLFMPO@?$AAF?$AAi?$AAb?$AAr?$AAe?$AA?5?$AAC?$AAh?$AAa?$AAn?$AAn?$AAe?$AAl?$AA?$AA@ 00067278     UefiShellDebug1CommandsLib:Pci.obj
 0002:00008294       ??_C@_1CM@OLOJIGK@?$AAS?$AAy?$AAs?$AAt?$AAe?$AAm?$AA?5?$AAM?$AAa?$AAn?$AAa?$AAg?$AAe?$AAm?$AAe?$AAn?$AAt?$AA?5?$AAB?$AAu?$AAs?$AA?$AA@ 00067294     UefiShellDebug1CommandsLib:Pci.obj
 0002:000082c0       ??_C@_1BG@PKILJGBI@?$AAI?$AAn?$AAf?$AAi?$AAn?$AAi?$AAB?$AAa?$AAn?$AAd?$AA?$AA@ 000672c0     UefiShellDebug1CommandsLib:Pci.obj
 0002:000082d8       ??_C@_19HOCGEGCA@?$AAI?$AAP?$AAM?$AAI?$AA?$AA@ 000672d8     UefiShellDebug1CommandsLib:Pci.obj
 0002:000082e8       ??_C@_1EM@LAEBEEFJ@?$AAS?$AAE?$AAR?$AAC?$AAO?$AAS?$AA?5?$AAI?$AAn?$AAt?$AAe?$AAr?$AAf?$AAa?$AAc?$AAe?$AA?5?$AAS?$AAt?$AAa?$AAn?$AAd?$AAa?$AAr?$AAd?$AA?5?$AA?$CI?$AAI?$AAE?$AAC?$AA?5?$AA6@ 000672e8     UefiShellDebug1CommandsLib:Pci.obj
 0002:00008334       ??_C@_1O@IIICKMFI@?$AAC?$AAA?$AAN?$AAb?$AAu?$AAs?$AA?$AA@ 00067334     UefiShellDebug1CommandsLib:Pci.obj
 0002:00008344       ??_C@_1BO@FPNLADDK@?$AAO?$AAt?$AAh?$AAe?$AAr?$AA?5?$AAb?$AAu?$AAs?$AA?5?$AAt?$AAy?$AAp?$AAe?$AA?$AA@ 00067344     UefiShellDebug1CommandsLib:Pci.obj
 0002:00008364       ??_C@_1DG@DBOMLJPI@?$AAi?$AAR?$AAD?$AAA?$AA?5?$AAc?$AAo?$AAm?$AAp?$AAa?$AAt?$AAi?$AAb?$AAl?$AAe?$AA?5?$AAc?$AAo?$AAn?$AAt?$AAr?$AAo?$AAl?$AAl?$AAe?$AAr?$AA?$AA@ 00067364     UefiShellDebug1CommandsLib:Pci.obj
 0002:0000839c       ??_C@_1BM@FGMCDKAO@?$AAR?$AAF?$AA?5?$AAc?$AAo?$AAn?$AAt?$AAr?$AAo?$AAl?$AAl?$AAe?$AAr?$AA?$AA@ 0006739c     UefiShellDebug1CommandsLib:Pci.obj
 0002:000083b8       ??_C@_1BE@DJCFELKD@?$AAB?$AAl?$AAu?$AAe?$AAt?$AAo?$AAo?$AAt?$AAh?$AA?$AA@ 000673b8     UefiShellDebug1CommandsLib:Pci.obj
 0002:000083cc       ??_C@_1BE@BGEOEKA@?$AAB?$AAr?$AAo?$AAa?$AAd?$AAb?$AAa?$AAn?$AAd?$AA?$AA@ 000673cc     UefiShellDebug1CommandsLib:Pci.obj
 0002:000083e0       ??_C@_1DG@HAKEKOOP@?$AAE?$AAt?$AAh?$AAe?$AAr?$AAn?$AAe?$AAt?$AA?5?$AA?$CI?$AA8?$AA0?$AA2?$AA?4?$AA1?$AA1?$AAa?$AA?5?$AA?9?$AA?5?$AA5?$AA?5?$AAG?$AAH?$AAz?$AA?$CJ?$AA?$AA@ 000673e0     UefiShellDebug1CommandsLib:Pci.obj
 0002:00008418       ??_C@_1DK@LKPANDDE@?$AAE?$AAt?$AAh?$AAe?$AAr?$AAn?$AAe?$AAt?$AA?5?$AA?$CI?$AA8?$AA0?$AA2?$AA?4?$AA1?$AA1?$AAb?$AA?5?$AA?9?$AA?5?$AA2?$AA?4?$AA4?$AA?5?$AAG?$AAH?$AAz?$AA?$CJ?$AA?$AA@ 00067418     UefiShellDebug1CommandsLib:Pci.obj
 0002:00008458       ??_C@_1EE@PIAOLOPJ@?$AAO?$AAt?$AAh?$AAe?$AAr?$AA?5?$AAt?$AAy?$AAp?$AAe?$AA?5?$AAo?$AAf?$AA?5?$AAw?$AAi?$AAr?$AAe?$AAl?$AAe?$AAs?$AAs?$AA?5?$AAc?$AAo?$AAn?$AAt?$AAr?$AAo?$AAl?$AAl?$AAe@ 00067458     UefiShellDebug1CommandsLib:Pci.obj
 0002:0000849c       ??_C@_1CC@MJHFFKLA@?$AAI?$AA2?$AAO?$AA?5?$AAA?$AAr?$AAc?$AAh?$AAi?$AAt?$AAe?$AAc?$AAt?$AAu?$AAr?$AAe?$AA?$AA@ 0006749c     UefiShellDebug1CommandsLib:Pci.obj
 0002:000084c0       ??_C@_15DHEEEEMD@?$AAT?$AAV?$AA?$AA@ 000674c0     UefiShellDebug1CommandsLib:Pci.obj
 0002:000084c8       ??_C@_1M@CHJDJLFF@?$AAA?$AAu?$AAd?$AAi?$AAo?$AA?$AA@ 000674c8     UefiShellDebug1CommandsLib:Pci.obj
 0002:000084d4       ??_C@_1M@DKLMFINE@?$AAV?$AAo?$AAi?$AAc?$AAe?$AA?$AA@ 000674d4     UefiShellDebug1CommandsLib:Pci.obj
 0002:000084e0       ??_C@_19IEEMEPMH@?$AAD?$AAa?$AAt?$AAa?$AA?$AA@ 000674e0     UefiShellDebug1CommandsLib:Pci.obj
 0002:000084f0       ??_C@_1FC@PHCKLFJE@?$AAO?$AAt?$AAh?$AAe?$AAr?$AA?5?$AAs?$AAa?$AAt?$AAe?$AAl?$AAl?$AAi?$AAt?$AAe?$AA?5?$AAc?$AAo?$AAm?$AAm?$AAu?$AAn?$AAi?$AAc?$AAa?$AAt?$AAi?$AAo?$AAn?$AA?5?$AAc?$AAo@ 000674f0     UefiShellDebug1CommandsLib:Pci.obj
 0002:00008548       ??_C@_1EI@GIMDOGOI@?$AAN?$AAe?$AAt?$AAw?$AAo?$AAr?$AAk?$AA?5?$AA?$CG?$AA?5?$AAc?$AAo?$AAm?$AAp?$AAu?$AAt?$AAi?$AAn?$AAg?$AA?5?$AAE?$AAn?$AAc?$AAr?$AAy?$AAp?$AAt?$AA?1?$AAD?$AAe?$AAc?$AAr@ 00067548     UefiShellDebug1CommandsLib:Pci.obj
 0002:00008590       ??_C@_1DM@IIOOLDOK@?$AAE?$AAn?$AAt?$AAe?$AAr?$AAt?$AAa?$AAi?$AAn?$AAm?$AAe?$AAn?$AAt?$AA?5?$AAE?$AAn?$AAc?$AAr?$AAy?$AAp?$AAt?$AA?1?$AAD?$AAe?$AAc?$AAr?$AAy?$AAp?$AAt?$AA?$AA@ 00067590     UefiShellDebug1CommandsLib:Pci.obj
 0002:000085cc       ??_C@_1CM@JNEDPPDM@?$AAO?$AAt?$AAh?$AAe?$AAr?$AA?5?$AAE?$AAn?$AAc?$AAr?$AAy?$AAp?$AAt?$AA?1?$AAD?$AAe?$AAc?$AAr?$AAy?$AAp?$AAt?$AA?$AA@ 000675cc     UefiShellDebug1CommandsLib:Pci.obj
 0002:000085f8       ??_C@_1BK@OAGPPFHN@?$AAD?$AAP?$AAI?$AAO?$AA?5?$AAm?$AAo?$AAd?$AAu?$AAl?$AAe?$AAs?$AA?$AA@ 000675f8     UefiShellDebug1CommandsLib:Pci.obj
 0002:00008614       ??_C@_1CK@LCFFEOGH@?$AAP?$AAe?$AAr?$AAf?$AAo?$AAr?$AAm?$AAa?$AAn?$AAc?$AAe?$AA?5?$AAC?$AAo?$AAu?$AAn?$AAt?$AAe?$AAr?$AAs?$AA?$AA@ 00067614     UefiShellDebug1CommandsLib:Pci.obj
 0002:00008640       ??_C@_1JC@NCFHMIHP@?$AAC?$AAo?$AAm?$AAm?$AAu?$AAn?$AAi?$AAc?$AAa?$AAt?$AAi?$AAo?$AAn?$AAs?$AA?5?$AAs?$AAy?$AAn?$AAc?$AAh?$AAr?$AAo?$AAn?$AAi?$AAz?$AAa?$AAt?$AAi?$AAo?$AAn?$AA?5?$AAp@ 00067640     UefiShellDebug1CommandsLib:Pci.obj
 0002:000086d4       ??_C@_1CA@JGEMEBBN@?$AAM?$AAa?$AAn?$AAa?$AAg?$AAe?$AAm?$AAe?$AAn?$AAt?$AA?5?$AAc?$AAa?$AAr?$AAd?$AA?$AA@ 000676d4     UefiShellDebug1CommandsLib:Pci.obj
 0002:000086f4       ??_C@_1DG@DKBFJFCP@?$AAO?$AAt?$AAh?$AAe?$AAr?$AA?5?$AAD?$AAA?$AAQ?$AA?5?$AA?$CG?$AA?5?$AAS?$AAP?$AA?5?$AAc?$AAo?$AAn?$AAt?$AAr?$AAo?$AAl?$AAl?$AAe?$AAr?$AAs?$AA?$AA@ 000676f4     UefiShellDebug1CommandsLib:Pci.obj
 0002:0000872c       ??_C@_1CO@NDPDJMEK@?$AAP?$AAr?$AAo?$AAc?$AAe?$AAs?$AAs?$AAi?$AAn?$AAg?$AA?5?$AAA?$AAc?$AAc?$AAe?$AAl?$AAe?$AAr?$AAa?$AAt?$AAo?$AAr?$AA?$AA@ 0006772c     UefiShellDebug1CommandsLib:Pci.obj
 0002:00008760       ??_C@_1EO@GLBMBJBC@?$AAN?$AAo?$AAn?$AA?9?$AAE?$AAs?$AAs?$AAe?$AAn?$AAt?$AAi?$AAa?$AAl?$AA?5?$AAI?$AAn?$AAs?$AAt?$AAr?$AAu?$AAm?$AAe?$AAn?$AAt?$AAa?$AAt?$AAi?$AAo?$AAn?$AA?5?$AAF?$AAu@ 00067760     UefiShellDebug1CommandsLib:Pci.obj
 0002:000087b0       ??_C@_1CA@LOKELNGO@?$AAS?$AAC?$AAS?$AAI?$AA?5?$AAc?$AAo?$AAn?$AAt?$AAr?$AAo?$AAl?$AAl?$AAe?$AAr?$AA?$AA@ 000677b0     UefiShellDebug1CommandsLib:Pci.obj
 0002:000087d0       ??_C@_1EE@BFEKJLPP@?$AAS?$AAC?$AAS?$AAI?$AA?5?$AAs?$AAt?$AAo?$AAr?$AAa?$AAg?$AAe?$AA?5?$AAd?$AAe?$AAv?$AAi?$AAc?$AAe?$AA?5?$AAS?$AAO?$AAP?$AA?5?$AAu?$AAs?$AAi?$AAn?$AAg?$AA?5?$AAP?$AAQ@ 000677d0     UefiShellDebug1CommandsLib:Pci.obj
 0002:00008814       ??_C@_1DM@BJOLKNOM@?$AAS?$AAC?$AAS?$AAI?$AA?5?$AAc?$AAo?$AAn?$AAt?$AAr?$AAo?$AAl?$AAl?$AAe?$AAr?$AA?5?$AAS?$AAO?$AAP?$AA?5?$AAu?$AAs?$AAi?$AAn?$AAg?$AA?5?$AAP?$AAQ?$AAI?$AA?$AA@ 00067814     UefiShellDebug1CommandsLib:Pci.obj
 0002:00008850       ??_C@_1GC@PCIOGEHB@?$AAS?$AAC?$AAS?$AAI?$AA?5?$AAs?$AAt?$AAo?$AAr?$AAa?$AAg?$AAe?$AA?5?$AAd?$AAe?$AAv?$AAi?$AAc?$AAe?$AA?5?$AAa?$AAn?$AAd?$AA?5?$AAc?$AAo?$AAn?$AAt?$AAr?$AAo?$AAl?$AAl@ 00067850     UefiShellDebug1CommandsLib:Pci.obj
 0002:000088b8       ??_C@_1EG@FADCFPJB@?$AAS?$AAC?$AAS?$AAI?$AA?5?$AAs?$AAt?$AAo?$AAr?$AAa?$AAg?$AAe?$AA?5?$AAd?$AAe?$AAv?$AAi?$AAc?$AAe?$AA?5?$AAS?$AAO?$AAP?$AA?5?$AAu?$AAs?$AAi?$AAn?$AAg?$AA?5?$AAN?$AAV@ 000678b8     UefiShellDebug1CommandsLib:Pci.obj
 0002:00008900       ??_C@_1BG@GFFPFKKJ@?$AAO?$AAM?$AA?9?$AAp?$AAr?$AAi?$AAm?$AAa?$AAr?$AAy?$AA?$AA@ 00067900     UefiShellDebug1CommandsLib:Pci.obj
 0002:00008918       ??_C@_1BG@FONPODPB@?$AAP?$AAI?$AA?9?$AAp?$AAr?$AAi?$AAm?$AAa?$AAr?$AAy?$AA?$AA@ 00067918     UefiShellDebug1CommandsLib:Pci.obj
 0002:00008930       ??_C@_1BM@FDOGPGGG@?$AAO?$AAM?$AA?1?$AAP?$AAI?$AA?9?$AAp?$AAr?$AAi?$AAm?$AAa?$AAr?$AAy?$AA?$AA@ 00067930     UefiShellDebug1CommandsLib:Pci.obj
 0002:0000894c       ??_C@_1BK@IDONELAO@?$AAO?$AAM?$AA?9?$AAs?$AAe?$AAc?$AAo?$AAn?$AAd?$AAa?$AAr?$AAy?$AA?$AA@ 0006794c     UefiShellDebug1CommandsLib:Pci.obj
 0002:00008968       ??_C@_1DC@HICNPOMK@?$AAO?$AAM?$AA?9?$AAp?$AAr?$AAi?$AAm?$AAa?$AAr?$AAy?$AA?0?$AA?5?$AAO?$AAM?$AA?9?$AAs?$AAe?$AAc?$AAo?$AAn?$AAd?$AAa?$AAr?$AAy?$AA?$AA@ 00067968     UefiShellDebug1CommandsLib:Pci.obj
 0002:0000899c       ??_C@_1DC@HABNGELM@?$AAP?$AAI?$AA?9?$AAp?$AAr?$AAi?$AAm?$AAa?$AAr?$AAy?$AA?0?$AA?5?$AAO?$AAM?$AA?9?$AAs?$AAe?$AAc?$AAo?$AAn?$AAd?$AAa?$AAr?$AAy?$AA?$AA@ 0006799c     UefiShellDebug1CommandsLib:Pci.obj
 0002:000089d0       ??_C@_1DI@BICDKEO@?$AAO?$AAM?$AA?1?$AAP?$AAI?$AA?9?$AAp?$AAr?$AAi?$AAm?$AAa?$AAr?$AAy?$AA?0?$AA?5?$AAO?$AAM?$AA?9?$AAs?$AAe?$AAc?$AAo?$AAn?$AAd?$AAa?$AAr?$AAy?$AA?$AA@ 000679d0     UefiShellDebug1CommandsLib:Pci.obj
 0002:00008a08       ??_C@_1DC@DGJDGNHH@?$AAO?$AAM?$AA?9?$AAp?$AAr?$AAi?$AAm?$AAa?$AAr?$AAy?$AA?0?$AA?5?$AAP?$AAI?$AA?9?$AAs?$AAe?$AAc?$AAo?$AAn?$AAd?$AAa?$AAr?$AAy?$AA?$AA@ 00067a08     UefiShellDebug1CommandsLib:Pci.obj
 0002:00008a3c       ??_C@_1DC@DOKDPHAB@?$AAP?$AAI?$AA?9?$AAp?$AAr?$AAi?$AAm?$AAa?$AAr?$AAy?$AA?0?$AA?5?$AAP?$AAI?$AA?9?$AAs?$AAe?$AAc?$AAo?$AAn?$AAd?$AAa?$AAr?$AAy?$AA?$AA@ 00067a3c     UefiShellDebug1CommandsLib:Pci.obj
 0002:00008a70       ??_C@_1DI@EPDMKJPD@?$AAO?$AAM?$AA?1?$AAP?$AAI?$AA?9?$AAp?$AAr?$AAi?$AAm?$AAa?$AAr?$AAy?$AA?0?$AA?5?$AAP?$AAI?$AA?9?$AAs?$AAe?$AAc?$AAo?$AAn?$AAd?$AAa?$AAr?$AAy?$AA?$AA@ 00067a70     UefiShellDebug1CommandsLib:Pci.obj
 0002:00008aa8       ??_C@_1DI@BKJODIMD@?$AAO?$AAM?$AA?9?$AAp?$AAr?$AAi?$AAm?$AAa?$AAr?$AAy?$AA?0?$AA?5?$AAO?$AAM?$AA?1?$AAP?$AAI?$AA?9?$AAs?$AAe?$AAc?$AAo?$AAn?$AAd?$AAa?$AAr?$AAy?$AA?$AA@ 00067aa8     UefiShellDebug1CommandsLib:Pci.obj
 0002:00008ae0       ??_C@_1DI@KCGLEALH@?$AAP?$AAI?$AA?9?$AAp?$AAr?$AAi?$AAm?$AAa?$AAr?$AAy?$AA?0?$AA?5?$AAO?$AAM?$AA?1?$AAP?$AAI?$AA?9?$AAs?$AAe?$AAc?$AAo?$AAn?$AAd?$AAa?$AAr?$AAy?$AA?$AA@ 00067ae0     UefiShellDebug1CommandsLib:Pci.obj
 0002:00008b18       ??_C@_1DO@MNACHKJK@?$AAO?$AAM?$AA?1?$AAP?$AAI?$AA?9?$AAp?$AAr?$AAi?$AAm?$AAa?$AAr?$AAy?$AA?0?$AA?5?$AAO?$AAM?$AA?1?$AAP?$AAI?$AA?9?$AAs?$AAe?$AAc?$AAo?$AAn?$AAd?$AAa?$AAr?$AAy?$AA?$AA@ 00067b18     UefiShellDebug1CommandsLib:Pci.obj
 0002:00008b58       ??_C@_1O@MHJLHGPK@?$AAM?$AAa?$AAs?$AAt?$AAe?$AAr?$AA?$AA@ 00067b58     UefiShellDebug1CommandsLib:Pci.obj
 0002:00008b68       ??_C@_1CG@PPNKKIGM@?$AAM?$AAa?$AAs?$AAt?$AAe?$AAr?$AA?0?$AA?5?$AAO?$AAM?$AA?9?$AAp?$AAr?$AAi?$AAm?$AAa?$AAr?$AAy?$AA?$AA@ 00067b68     UefiShellDebug1CommandsLib:Pci.obj
 0002:00008b90       ??_C@_1CG@MEFKBBDE@?$AAM?$AAa?$AAs?$AAt?$AAe?$AAr?$AA?0?$AA?5?$AAP?$AAI?$AA?9?$AAp?$AAr?$AAi?$AAm?$AAa?$AAr?$AAy?$AA?$AA@ 00067b90     UefiShellDebug1CommandsLib:Pci.obj
 0002:00008bb8       ??_C@_1CM@KDEABHD@?$AAM?$AAa?$AAs?$AAt?$AAe?$AAr?$AA?0?$AA?5?$AAO?$AAM?$AA?1?$AAP?$AAI?$AA?9?$AAp?$AAr?$AAi?$AAm?$AAa?$AAr?$AAy?$AA?$AA@ 00067bb8     UefiShellDebug1CommandsLib:Pci.obj
 0002:00008be4       ??_C@_1CK@CCBAOENA@?$AAM?$AAa?$AAs?$AAt?$AAe?$AAr?$AA?0?$AA?5?$AAO?$AAM?$AA?9?$AAs?$AAe?$AAc?$AAo?$AAn?$AAd?$AAa?$AAr?$AAy?$AA?$AA@ 00067be4     UefiShellDebug1CommandsLib:Pci.obj
 0002:00008c10       ??_C@_1EC@BNMCFFBJ@?$AAM?$AAa?$AAs?$AAt?$AAe?$AAr?$AA?0?$AA?5?$AAO?$AAM?$AA?9?$AAp?$AAr?$AAi?$AAm?$AAa?$AAr?$AAy?$AA?0?$AA?5?$AAO?$AAM?$AA?9?$AAs?$AAe?$AAc?$AAo?$AAn?$AAd?$AAa?$AAr?$AAy@ 00067c10     UefiShellDebug1CommandsLib:Pci.obj
 0002:00008c58       ??_C@_1EC@BFPCMPGP@?$AAM?$AAa?$AAs?$AAt?$AAe?$AAr?$AA?0?$AA?5?$AAP?$AAI?$AA?9?$AAp?$AAr?$AAi?$AAm?$AAa?$AAr?$AAy?$AA?0?$AA?5?$AAO?$AAM?$AA?9?$AAs?$AAe?$AAc?$AAo?$AAn?$AAd?$AAa?$AAr?$AAy@ 00067c58     UefiShellDebug1CommandsLib:Pci.obj
 0002:00008ca0       ??_C@_1EI@FCNPKCON@?$AAM?$AAa?$AAs?$AAt?$AAe?$AAr?$AA?0?$AA?5?$AAO?$AAM?$AA?1?$AAP?$AAI?$AA?9?$AAp?$AAr?$AAi?$AAm?$AAa?$AAr?$AAy?$AA?0?$AA?5?$AAO?$AAM?$AA?9?$AAs?$AAe?$AAc?$AAo?$AAn?$AAd@ 00067ca0     UefiShellDebug1CommandsLib:Pci.obj
 0002:00008ce8       ??_C@_1EC@FDHMMGKE@?$AAM?$AAa?$AAs?$AAt?$AAe?$AAr?$AA?0?$AA?5?$AAO?$AAM?$AA?9?$AAp?$AAr?$AAi?$AAm?$AAa?$AAr?$AAy?$AA?0?$AA?5?$AAP?$AAI?$AA?9?$AAs?$AAe?$AAc?$AAo?$AAn?$AAd?$AAa?$AAr?$AAy@ 00067ce8     UefiShellDebug1CommandsLib:Pci.obj
 0002:00008d30       ??_C@_1EC@FLEMFMNC@?$AAM?$AAa?$AAs?$AAt?$AAe?$AAr?$AA?0?$AA?5?$AAP?$AAI?$AA?9?$AAp?$AAr?$AAi?$AAm?$AAa?$AAr?$AAy?$AA?0?$AA?5?$AAP?$AAI?$AA?9?$AAs?$AAe?$AAc?$AAo?$AAn?$AAd?$AAa?$AAr?$AAy@ 00067d30     UefiShellDebug1CommandsLib:Pci.obj
 0002:00008d78       ??_C@_1EI@BMGBDBFA@?$AAM?$AAa?$AAs?$AAt?$AAe?$AAr?$AA?0?$AA?5?$AAO?$AAM?$AA?1?$AAP?$AAI?$AA?9?$AAp?$AAr?$AAi?$AAm?$AAa?$AAr?$AAy?$AA?0?$AA?5?$AAP?$AAI?$AA?9?$AAs?$AAe?$AAc?$AAo?$AAn?$AAd@ 00067d78     UefiShellDebug1CommandsLib:Pci.obj
 0002:00008dc0       ??_C@_1EI@EJMDKAGA@?$AAM?$AAa?$AAs?$AAt?$AAe?$AAr?$AA?0?$AA?5?$AAO?$AAM?$AA?9?$AAp?$AAr?$AAi?$AAm?$AAa?$AAr?$AAy?$AA?0?$AA?5?$AAO?$AAM?$AA?1?$AAP?$AAI?$AA?9?$AAs?$AAe?$AAc?$AAo?$AAn?$AAd@ 00067dc0     UefiShellDebug1CommandsLib:Pci.obj
 0002:00008e08       ??_C@_1EI@PBDGNIBE@?$AAM?$AAa?$AAs?$AAt?$AAe?$AAr?$AA?0?$AA?5?$AAP?$AAI?$AA?9?$AAp?$AAr?$AAi?$AAm?$AAa?$AAr?$AAy?$AA?0?$AA?5?$AAO?$AAM?$AA?1?$AAP?$AAI?$AA?9?$AAs?$AAe?$AAc?$AAo?$AAn?$AAd@ 00067e08     UefiShellDebug1CommandsLib:Pci.obj
 0002:00008e50       ??_C@_1EO@OEGBDCJN@?$AAM?$AAa?$AAs?$AAt?$AAe?$AAr?$AA?0?$AA?5?$AAO?$AAM?$AA?1?$AAP?$AAI?$AA?9?$AAp?$AAr?$AAi?$AAm?$AAa?$AAr?$AAy?$AA?0?$AA?5?$AAO?$AAM?$AA?1?$AAP?$AAI?$AA?9?$AAs?$AAe?$AAc@ 00067e50     UefiShellDebug1CommandsLib:Pci.obj
 0002:00008ea0       ??_C@_1CA@KDAMFDGL@?$AAS?$AAi?$AAn?$AAg?$AAl?$AAe?$AA?5?$AAs?$AAt?$AAe?$AAp?$AAp?$AAi?$AAn?$AAg?$AA?$AA@ 00067ea0     UefiShellDebug1CommandsLib:Pci.obj
 0002:00008ec0       ??_C@_1CK@LBNIIJOF@?$AAC?$AAo?$AAn?$AAt?$AAi?$AAn?$AAu?$AAo?$AAu?$AAs?$AA?5?$AAo?$AAp?$AAe?$AAr?$AAa?$AAt?$AAi?$AAo?$AAn?$AA?$AA@ 00067ec0     UefiShellDebug1CommandsLib:Pci.obj
 0002:00008eec       ??_C@_19PIKFENDK@?$AAA?$AAH?$AAC?$AAI?$AA?$AA@ 00067eec     UefiShellDebug1CommandsLib:Pci.obj
 0002:00008ef8       ??_C@_1CG@LEHKELII@?$AAS?$AAe?$AAr?$AAi?$AAa?$AAl?$AA?5?$AAS?$AAt?$AAo?$AAr?$AAa?$AAg?$AAe?$AA?5?$AAB?$AAu?$AAs?$AA?$AA@ 00067ef8     UefiShellDebug1CommandsLib:Pci.obj
 0002:00008f20       ??_C@_1BC@GJKECLHO@?$AAO?$AAb?$AAs?$AAo?$AAl?$AAe?$AAt?$AAe?$AA?$AA@ 00067f20     UefiShellDebug1CommandsLib:Pci.obj
 0002:00008f34       ??_C@_1O@IJMMOBJI@?$AAN?$AAV?$AAM?$AAH?$AAC?$AAI?$AA?$AA@ 00067f34     UefiShellDebug1CommandsLib:Pci.obj
 0002:00008f44       ??_C@_1BI@OAKFAAAF@?$AAN?$AAV?$AAM?$AA?5?$AAE?$AAx?$AAp?$AAr?$AAe?$AAs?$AAs?$AA?$AA@ 00067f44     UefiShellDebug1CommandsLib:Pci.obj
 0002:00008f5c       ??_C@_1O@JFDJLKLO@?$AAU?$AAF?$AAS?$AAH?$AAC?$AAI?$AA?$AA@ 00067f5c     UefiShellDebug1CommandsLib:Pci.obj
 0002:00008f6c       ??_C@_1BO@LDKLHGIO@?$AAV?$AAG?$AAA?$AA?5?$AAc?$AAo?$AAm?$AAp?$AAa?$AAt?$AAi?$AAb?$AAl?$AAe?$AA?$AA@ 00067f6c     UefiShellDebug1CommandsLib:Pci.obj
 0002:00008f8c       ??_C@_1CA@LKBFLGHB@?$AA8?$AA5?$AA1?$AA4?$AA?5?$AAc?$AAo?$AAm?$AAp?$AAa?$AAt?$AAi?$AAb?$AAl?$AAe?$AA?$AA@ 00067f8c     UefiShellDebug1CommandsLib:Pci.obj
 0002:00008fac       ??_C@_1CG@BDOIBFMC@?$AAS?$AAu?$AAb?$AAt?$AAr?$AAa?$AAc?$AAt?$AAi?$AAv?$AAe?$AA?5?$AAd?$AAe?$AAc?$AAo?$AAd?$AAe?$AA?$AA@ 00067fac     UefiShellDebug1CommandsLib:Pci.obj
 0002:00008fd8       ??_C@_1GM@BAGIKEEJ@?$AAP?$AAr?$AAi?$AAm?$AAa?$AAr?$AAy?$AA?5?$AAP?$AAC?$AAI?$AA?5?$AAb?$AAu?$AAs?$AA?5?$AAs?$AAi?$AAd?$AAe?$AA?5?$AAf?$AAa?$AAc?$AAi?$AAn?$AAg?$AA?5?$AAt?$AAh?$AAe?$AA?5@ 00067fd8     UefiShellDebug1CommandsLib:Pci.obj
 0002:00009048       ??_C@_1HA@EIOBAMFG@?$AAS?$AAe?$AAc?$AAo?$AAn?$AAd?$AAa?$AAr?$AAy?$AA?5?$AAP?$AAC?$AAI?$AA?5?$AAb?$AAu?$AAs?$AA?5?$AAs?$AAi?$AAd?$AAe?$AA?5?$AAf?$AAa?$AAc?$AAi?$AAn?$AAg?$AA?5?$AAt?$AAh@ 00068048     UefiShellDebug1CommandsLib:Pci.obj
 0002:000090b8       ??_C@_1O@KKPPJBFG@?$AAC?$AAu?$AAs?$AAt?$AAo?$AAm?$AA?$AA@ 000680b8     UefiShellDebug1CommandsLib:Pci.obj
 0002:000090c8       ??_C@_1CO@KMFHKOFL@?$AAA?$AAS?$AAI?$AA?9?$AAS?$AAI?$AAG?$AA?5?$AAD?$AAe?$AAf?$AAi?$AAn?$AAe?$AAd?$AA?5?$AAP?$AAo?$AAr?$AAt?$AAa?$AAl?$AA?$AA@ 000680c8     UefiShellDebug1CommandsLib:Pci.obj
 0002:000090f8       ??_C@_1CM@BOFGGGIA@?$AAG?$AAe?$AAn?$AAe?$AAr?$AAi?$AAc?$AA?5?$AAX?$AAT?$AA?9?$AAc?$AAo?$AAm?$AAp?$AAa?$AAt?$AAi?$AAb?$AAl?$AAe?$AA?$AA@ 000680f8     UefiShellDebug1CommandsLib:Pci.obj
 0002:00009124       ??_C@_1CC@CIGAJBCK@?$AA1?$AA6?$AA4?$AA5?$AA0?$AA?9?$AAc?$AAo?$AAm?$AAp?$AAa?$AAt?$AAi?$AAb?$AAl?$AAe?$AA?$AA@ 00068124     UefiShellDebug1CommandsLib:Pci.obj
 0002:00009148       ??_C@_1CC@BEAAHCCC@?$AA1?$AA6?$AA5?$AA5?$AA0?$AA?9?$AAc?$AAo?$AAm?$AAp?$AAa?$AAt?$AAi?$AAb?$AAl?$AAe?$AA?$AA@ 00068148     UefiShellDebug1CommandsLib:Pci.obj
 0002:0000916c       ??_C@_1CC@FAKBFHDK@?$AA1?$AA6?$AA6?$AA5?$AA0?$AA?9?$AAc?$AAo?$AAm?$AAp?$AAa?$AAt?$AAi?$AAb?$AAl?$AAe?$AA?$AA@ 0006816c     UefiShellDebug1CommandsLib:Pci.obj
 0002:00009190       ??_C@_1CC@GMMBLEDC@?$AA1?$AA6?$AA7?$AA5?$AA0?$AA?9?$AAc?$AAo?$AAm?$AAp?$AAa?$AAt?$AAi?$AAb?$AAl?$AAe?$AA?$AA@ 00068190     UefiShellDebug1CommandsLib:Pci.obj
 0002:000091b4       ??_C@_1CC@OBJFADAL@?$AA1?$AA6?$AA8?$AA5?$AA0?$AA?9?$AAc?$AAo?$AAm?$AAp?$AAa?$AAt?$AAi?$AAb?$AAl?$AAe?$AA?$AA@ 000681b4     UefiShellDebug1CommandsLib:Pci.obj
 0002:000091d8       ??_C@_1CC@NNPFOAAD@?$AA1?$AA6?$AA9?$AA5?$AA0?$AA?9?$AAc?$AAo?$AAm?$AAp?$AAa?$AAt?$AAi?$AAb?$AAl?$AAe?$AA?$AA@ 000681d8     UefiShellDebug1CommandsLib:Pci.obj
 0002:000091fc       ??_C@_1BO@IFLLGKJH@?$AAB?$AAi?$AA?9?$AAd?$AAi?$AAr?$AAe?$AAc?$AAt?$AAi?$AAo?$AAn?$AAa?$AAl?$AA?$AA@ 000681fc     UefiShellDebug1CommandsLib:Pci.obj
 0002:0000921c       ??_C@_1CE@MAJJBDCC@?$AAE?$AAC?$AAP?$AA?5?$AA1?$AA?4?$AAX?$AA?9?$AAc?$AAo?$AAm?$AAp?$AAl?$AAi?$AAa?$AAn?$AAt?$AA?$AA@ 0006821c     UefiShellDebug1CommandsLib:Pci.obj
 0002:00009240       ??_C@_1BE@DNKMAGKP@?$AAI?$AAE?$AAE?$AAE?$AA?5?$AA1?$AA2?$AA8?$AA4?$AA?$AA@ 00068240     UefiShellDebug1CommandsLib:Pci.obj
 0002:00009258       ??_C@_1EI@FJLDGOLD@?$AAI?$AAE?$AAE?$AAE?$AA?5?$AA1?$AA2?$AA8?$AA4?$AA?5?$AAt?$AAa?$AAr?$AAg?$AAe?$AAt?$AA?5?$AA?$CI?$AAn?$AAo?$AAt?$AA?5?$AAa?$AA?5?$AAc?$AAo?$AAn?$AAt?$AAr?$AAo?$AAl?$AAl@ 00068258     UefiShellDebug1CommandsLib:Pci.obj
 0002:000092a0       ??_C@_1BA@NGANLLNB@?$AAG?$AAe?$AAn?$AAe?$AAr?$AAi?$AAc?$AA?$AA@ 000682a0     UefiShellDebug1CommandsLib:Pci.obj
 0002:000092b0       ??_C@_1CO@OBFAMHI@?$AAH?$AAa?$AAy?$AAe?$AAs?$AA?9?$AAc?$AAo?$AAm?$AAp?$AAa?$AAt?$AAi?$AAb?$AAl?$AAe?$AA?5?$AA1?$AA6?$AA4?$AA5?$AA0?$AA?$AA@ 000682b0     UefiShellDebug1CommandsLib:Pci.obj
 0002:000092e0       ??_C@_1CO@MCLPAMOG@?$AAH?$AAa?$AAy?$AAe?$AAs?$AA?9?$AAc?$AAo?$AAm?$AAp?$AAa?$AAt?$AAi?$AAb?$AAl?$AAe?$AA?5?$AA1?$AA6?$AA5?$AA5?$AA0?$AA?$AA@ 000682e0     UefiShellDebug1CommandsLib:Pci.obj
 0002:00009310       ??_C@_1CO@EMDAALAF@?$AAH?$AAa?$AAy?$AAe?$AAs?$AA?9?$AAc?$AAo?$AAm?$AAp?$AAa?$AAt?$AAi?$AAb?$AAl?$AAe?$AA?5?$AA1?$AA6?$AA6?$AA5?$AA0?$AA?$AA@ 00068310     UefiShellDebug1CommandsLib:Pci.obj
 0002:00009340       ??_C@_1CO@IAJKALJL@?$AAH?$AAa?$AAy?$AAe?$AAs?$AA?9?$AAc?$AAo?$AAm?$AAp?$AAa?$AAt?$AAi?$AAb?$AAl?$AAe?$AA?5?$AA1?$AA6?$AA7?$AA5?$AA0?$AA?$AA@ 00068340     UefiShellDebug1CommandsLib:Pci.obj
 0002:00009370       ??_C@_1BK@FEJNPFJI@?$AAG?$AAe?$AAn?$AAe?$AAr?$AAi?$AAc?$AA?5?$AA8?$AA2?$AA5?$AA9?$AA?$AA@ 00068370     UefiShellDebug1CommandsLib:Pci.obj
 0002:0000938c       ??_C@_17FLNLMFB@?$AAI?$AAS?$AAA?$AA?$AA@ 0006838c     UefiShellDebug1CommandsLib:Pci.obj
 0002:00009394       ??_C@_19PLIGMHKK@?$AAE?$AAI?$AAS?$AAA?$AA?$AA@ 00068394     UefiShellDebug1CommandsLib:Pci.obj
 0002:000093a0       ??_C@_1BA@GKPFOHFO@?$AAI?$AAO?$AA?5?$AAA?$AAP?$AAI?$AAC?$AA?$AA@ 000683a0     UefiShellDebug1CommandsLib:Pci.obj
 0002:000093b0       ??_C@_1EA@DHDEDKEO@?$AAI?$AAO?$AA?$CI?$AAx?$AA?$CJ?$AA?5?$AAA?$AAP?$AAI?$AAC?$AA?5?$AAi?$AAn?$AAt?$AAe?$AAr?$AAr?$AAu?$AAp?$AAt?$AA?5?$AAc?$AAo?$AAn?$AAt?$AAr?$AAo?$AAl?$AAl?$AAe?$AAr?$AA?$AA@ 000683b0     UefiShellDebug1CommandsLib:Pci.obj
 0002:000093f0       ??_C@_1BK@GCBLGBLG@?$AAG?$AAe?$AAn?$AAe?$AAr?$AAi?$AAc?$AA?5?$AA8?$AA2?$AA3?$AA7?$AA?$AA@ 000683f0     UefiShellDebug1CommandsLib:Pci.obj
 0002:0000940c       ??_C@_1BK@KGPHCNEF@?$AAG?$AAe?$AAn?$AAe?$AAr?$AAi?$AAc?$AA?5?$AA8?$AA2?$AA5?$AA4?$AA?$AA@ 0006840c     UefiShellDebug1CommandsLib:Pci.obj
 0002:00009428       ??_C@_1DA@CHHIFNOJ@?$AAU?$AAs?$AAi?$AAn?$AAg?$AA?5?$AA1?$AA3?$AA9?$AA4?$AA?5?$AAO?$AAp?$AAe?$AAn?$AAH?$AAC?$AAI?$AA?5?$AAs?$AAp?$AAe?$AAc?$AA?$AA@ 00068428     UefiShellDebug1CommandsLib:Pci.obj
 0002:00009458       ??_C@_19NGOAGMKI@?$AAU?$AAH?$AAC?$AAI?$AA?$AA@ 00068458     UefiShellDebug1CommandsLib:Pci.obj
 0002:00009464       ??_C@_19OGGMHNIJ@?$AAO?$AAH?$AAC?$AAI?$AA?$AA@ 00068464     UefiShellDebug1CommandsLib:Pci.obj
 0002:00009470       ??_C@_19PBEOONEA@?$AAE?$AAH?$AAC?$AAI?$AA?$AA@ 00068470     UefiShellDebug1CommandsLib:Pci.obj
 0002:0000947c       ??_C@_19GMEDOEMI@?$AAx?$AAH?$AAC?$AAI?$AA?$AA@ 0006847c     UefiShellDebug1CommandsLib:Pci.obj
 0002:00009488       ??_C@_1EE@DFNHODEM@?$AAN?$AAo?$AA?5?$AAs?$AAp?$AAe?$AAc?$AAi?$AAf?$AAi?$AAc?$AA?5?$AAp?$AAr?$AAo?$AAg?$AAr?$AAa?$AAm?$AAm?$AAi?$AAn?$AAg?$AA?5?$AAi?$AAn?$AAt?$AAe?$AAr?$AAf?$AAa?$AAc@ 00068488     UefiShellDebug1CommandsLib:Pci.obj
 0002:000094cc       ??_C@_1CM@KHPKJIHG@?$AA?$CI?$AAN?$AAo?$AAt?$AA?5?$AAH?$AAo?$AAs?$AAt?$AA?5?$AAC?$AAo?$AAn?$AAt?$AAr?$AAo?$AAl?$AAl?$AAe?$AAr?$AA?$CJ?$AA?$AA@ 000684cc     UefiShellDebug1CommandsLib:Pci.obj
 0002:000094f8       ??_C@_19FNDINBIJ@?$AAS?$AAM?$AAI?$AAC?$AA?$AA@ 000684f8     UefiShellDebug1CommandsLib:Pci.obj
 0002:00009504       ??_C@_1DE@JKDCGLGM@?$AAK?$AAe?$AAy?$AAb?$AAo?$AAa?$AAr?$AAd?$AA?5?$AAC?$AAo?$AAn?$AAt?$AAr?$AAo?$AAl?$AAl?$AAe?$AAr?$AA?5?$AAS?$AAt?$AAy?$AAl?$AAe?$AA?$AA@ 00068504     UefiShellDebug1CommandsLib:Pci.obj
 0002:00009538       ??_C@_1BO@NEKAJCNL@?$AAB?$AAl?$AAo?$AAc?$AAk?$AA?5?$AAT?$AAr?$AAa?$AAn?$AAs?$AAf?$AAe?$AAr?$AA?$AA@ 00068538     UefiShellDebug1CommandsLib:Pci.obj
 0002:00009558       ??_C@_1CO@JPLPKLME@?$AAC?$AAo?$AAn?$AAs?$AAu?$AAm?$AAe?$AAr?$AA?5?$AAI?$AAR?$AA?5?$AAc?$AAo?$AAn?$AAt?$AAr?$AAo?$AAl?$AAl?$AAe?$AAr?$AA?$AA@ 00068558     UefiShellDebug1CommandsLib:Pci.obj
 0002:00009588       ??_C@_1CK@HPJMCFFA@?$AAU?$AAW?$AAB?$AA?5?$AAR?$AAa?$AAd?$AAi?$AAo?$AA?5?$AAc?$AAo?$AAn?$AAt?$AAr?$AAo?$AAl?$AAl?$AAe?$AAr?$AA?$AA@ 00068588     UefiShellDebug1CommandsLib:Pci.obj
 0002:000095b4       ??_C@_1DG@ENMJNAED@?$AAM?$AAe?$AAs?$AAs?$AAa?$AAg?$AAe?$AA?5?$AAF?$AAI?$AAF?$AAO?$AA?5?$AAa?$AAt?$AA?5?$AAo?$AAf?$AAf?$AAs?$AAe?$AAt?$AA?5?$AA4?$AA0?$AAh?$AA?$AA@ 000685b4     UefiShellDebug1CommandsLib:Pci.obj
 0002:000095ec       ??_C@_1BE@FIGOEEEG@?$AAU?$AAN?$AAD?$AAE?$AAF?$AAI?$AAN?$AAE?$AAD?$AA?$AA@ 000685ec     UefiShellDebug1CommandsLib:Pci.obj
 0002:00009600       ??_C@_1BK@BKCDPFHG@?$AA?$CF?$AAs?$AA?5?$AA?9?$AA?5?$AA?$CF?$AAs?$AA?5?$AA?9?$AA?5?$AA?$CF?$AAs?$AA?$AA@ 00068600     UefiShellDebug1CommandsLib:Pci.obj
 0002:0000961c       ??_C@_1BA@JNCDCOGG@?$AA?$CF?$AAs?$AA?5?$AA?9?$AA?5?$AA?$CF?$AAs?$AA?$AA@ 0006861c     UefiShellDebug1CommandsLib:Pci.obj
 0002:0000962c       ??_C@_17IJAEJBBF@?$AA?9?$AAe?$AAc?$AA?$AA@ 0006862c     UefiShellDebug1CommandsLib:Pci.obj
 0002:00009634       ??_C@_1CK@LGAIPNNI@?$AAP?$AAC?$AAI?$AA?5?$AAE?$AAx?$AAp?$AAr?$AAe?$AAs?$AAs?$AA?5?$AAE?$AAn?$AAd?$AAp?$AAo?$AAi?$AAn?$AAt?$AA?$AA@ 00068634     UefiShellDebug1CommandsLib:Pci.obj
 0002:00009660       ??_C@_1DI@NBAABCOO@?$AAL?$AAe?$AAg?$AAa?$AAc?$AAy?$AA?5?$AAP?$AAC?$AAI?$AA?5?$AAE?$AAx?$AAp?$AAr?$AAe?$AAs?$AAs?$AA?5?$AAE?$AAn?$AAd?$AAp?$AAo?$AAi?$AAn?$AAt?$AA?$AA@ 00068660     UefiShellDebug1CommandsLib:Pci.obj
 0002:00009698       ??_C@_1BK@NFFICGLM@?$AAU?$AAn?$AAk?$AAn?$AAo?$AAw?$AAn?$AA?5?$AAT?$AAy?$AAp?$AAe?$AA?$AA@ 00068698     UefiShellDebug1CommandsLib:Pci.obj
 0002:000096b4       ??_C@_1BK@CGOANFNA@?$AAU?$AAn?$AAk?$AAn?$AAo?$AAn?$AAw?$AA?5?$AAT?$AAy?$AAp?$AAe?$AA?$AA@ 000686b4     UefiShellDebug1CommandsLib:Pci.obj
 0002:000096d0       ??_C@_1EM@KJGCONCC@?$AAR?$AAo?$AAo?$AAt?$AA?5?$AAP?$AAo?$AAr?$AAt?$AA?5?$AAo?$AAf?$AA?5?$AAP?$AAC?$AAI?$AA?5?$AAE?$AAx?$AAp?$AAr?$AAe?$AAs?$AAs?$AA?5?$AAR?$AAo?$AAo?$AAt?$AA?5?$AAC?$AAo@ 000686d0     UefiShellDebug1CommandsLib:Pci.obj
 0002:00009720       ??_C@_1EI@DOOOOBJL@?$AAU?$AAp?$AAs?$AAt?$AAr?$AAe?$AAa?$AAm?$AA?5?$AAP?$AAo?$AAr?$AAt?$AA?5?$AAo?$AAf?$AA?5?$AAP?$AAC?$AAI?$AA?5?$AAE?$AAx?$AAp?$AAr?$AAe?$AAs?$AAs?$AA?5?$AAS?$AAw?$AAi@ 00068720     UefiShellDebug1CommandsLib:Pci.obj
 0002:00009768       ??_C@_1EM@LHMEPGPD@?$AAD?$AAo?$AAw?$AAn?$AAs?$AAt?$AAr?$AAe?$AAa?$AAm?$AA?5?$AAP?$AAo?$AAr?$AAt?$AA?5?$AAo?$AAf?$AA?5?$AAP?$AAC?$AAI?$AA?5?$AAE?$AAx?$AAp?$AAr?$AAe?$AAs?$AAs?$AA?5?$AAS@ 00068768     UefiShellDebug1CommandsLib:Pci.obj
 0002:000097b8       ??_C@_1EA@IGKOLDOG@?$AAP?$AAC?$AAI?$AA?5?$AAE?$AAx?$AAp?$AAr?$AAe?$AAs?$AAs?$AA?5?$AAt?$AAo?$AA?5?$AAP?$AAC?$AAI?$AA?1?$AAP?$AAC?$AAI?$AA?9?$AAX?$AA?5?$AAB?$AAr?$AAi?$AAd?$AAg?$AAe?$AA?$AA@ 000687b8     UefiShellDebug1CommandsLib:Pci.obj
 0002:000097f8       ??_C@_1EA@KFIDJNJK@?$AAP?$AAC?$AAI?$AA?1?$AAP?$AAC?$AAI?$AA?9?$AAX?$AA?5?$AAt?$AAo?$AA?5?$AAP?$AAC?$AAI?$AA?5?$AAE?$AAx?$AAp?$AAr?$AAe?$AAs?$AAs?$AA?5?$AAB?$AAr?$AAi?$AAd?$AAg?$AAe?$AA?$AA@ 000687f8     UefiShellDebug1CommandsLib:Pci.obj
 0002:00009838       ??_C@_1EC@DNMCNNFH@?$AAR?$AAo?$AAo?$AAt?$AA?5?$AAC?$AAo?$AAm?$AAp?$AAl?$AAe?$AAx?$AA?5?$AAI?$AAn?$AAt?$AAe?$AAg?$AAr?$AAa?$AAt?$AAe?$AAd?$AA?5?$AAE?$AAn?$AAd?$AAp?$AAo?$AAi?$AAn?$AAt@ 00068838     UefiShellDebug1CommandsLib:Pci.obj
 0002:0000987c       ??_C@_1BO@IAHCGMHK@?$AAL?$AAe?$AAs?$AAs?$AA?5?$AAt?$AAh?$AAa?$AAn?$AA?5?$AA6?$AA4?$AAn?$AAs?$AA?$AA@ 0006887c     UefiShellDebug1CommandsLib:Pci.obj
 0002:0000989c       ??_C@_1DA@HJJJPCKH@?$AA6?$AA4?$AAn?$AAs?$AA?5?$AAt?$AAo?$AA?5?$AAl?$AAe?$AAs?$AAs?$AA?5?$AAt?$AAh?$AAa?$AAn?$AA?5?$AA1?$AA2?$AA8?$AAn?$AAs?$AA?$AA@ 0006889c     UefiShellDebug1CommandsLib:Pci.obj
 0002:000098cc       ??_C@_1DC@HICECCOG@?$AA1?$AA2?$AA8?$AAn?$AAs?$AA?5?$AAt?$AAo?$AA?5?$AAl?$AAe?$AAs?$AAs?$AA?5?$AAt?$AAh?$AAa?$AAn?$AA?5?$AA2?$AA5?$AA6?$AAn?$AAs?$AA?$AA@ 000688cc     UefiShellDebug1CommandsLib:Pci.obj
 0002:00009900       ??_C@_1DC@PFEAEAJO@?$AA2?$AA5?$AA6?$AAn?$AAs?$AA?5?$AAt?$AAo?$AA?5?$AAl?$AAe?$AAs?$AAs?$AA?5?$AAt?$AAh?$AAa?$AAn?$AA?5?$AA5?$AA1?$AA2?$AAn?$AAs?$AA?$AA@ 00068900     UefiShellDebug1CommandsLib:Pci.obj
 0002:00009934       ??_C@_1CO@FDINLBAE@?$AA5?$AA1?$AA2?$AAn?$AAs?$AA?5?$AAt?$AAo?$AA?5?$AAl?$AAe?$AAs?$AAs?$AA?5?$AAt?$AAh?$AAa?$AAn?$AA?5?$AA1?$AAu?$AAs?$AA?$AA@ 00068934     UefiShellDebug1CommandsLib:Pci.obj
 0002:00009964       ??_C@_1CK@DFGAJBII@?$AA1?$AAu?$AAs?$AA?5?$AAt?$AAo?$AA?5?$AAl?$AAe?$AAs?$AAs?$AA?5?$AAt?$AAh?$AAa?$AAn?$AA?5?$AA2?$AAu?$AAs?$AA?$AA@ 00068964     UefiShellDebug1CommandsLib:Pci.obj
 0002:00009990       ??_C@_1BA@MBKFBMOB@?$AA2?$AAu?$AAs?$AA?9?$AA4?$AAu?$AAs?$AA?$AA@ 00068990     UefiShellDebug1CommandsLib:Pci.obj
 0002:000099a0       ??_C@_1BM@IHLKEDHF@?$AAM?$AAo?$AAr?$AAe?$AA?5?$AAt?$AAh?$AAa?$AAn?$AA?5?$AA4?$AAu?$AAs?$AA?$AA@ 000689a0     UefiShellDebug1CommandsLib:Pci.obj
 0002:000099bc       ??_C@_1BM@NEKPKDDJ@?$AAL?$AAe?$AAs?$AAs?$AA?5?$AAt?$AAh?$AAa?$AAn?$AA?5?$AA1?$AAu?$AAs?$AA?$AA@ 000689bc     UefiShellDebug1CommandsLib:Pci.obj
 0002:000099d8       ??_C@_1CK@MLDEBDHM@?$AA2?$AAu?$AAs?$AA?5?$AAt?$AAo?$AA?5?$AAl?$AAe?$AAs?$AAs?$AA?5?$AAt?$AAh?$AAa?$AAn?$AA?5?$AA4?$AAu?$AAs?$AA?$AA@ 000689d8     UefiShellDebug1CommandsLib:Pci.obj
 0002:00009a04       ??_C@_1CK@OMOMBANF@?$AA4?$AAu?$AAs?$AA?5?$AAt?$AAo?$AA?5?$AAl?$AAe?$AAs?$AAs?$AA?5?$AAt?$AAh?$AAa?$AAn?$AA?5?$AA8?$AAu?$AAs?$AA?$AA@ 00068a04     UefiShellDebug1CommandsLib:Pci.obj
 0002:00009a30       ??_C@_1CM@DHLMOLKA@?$AA8?$AAu?$AAs?$AA?5?$AAt?$AAo?$AA?5?$AAl?$AAe?$AAs?$AAs?$AA?5?$AAt?$AAh?$AAa?$AAn?$AA?5?$AA1?$AA6?$AAu?$AAs?$AA?$AA@ 00068a30     UefiShellDebug1CommandsLib:Pci.obj
 0002:00009a5c       ??_C@_1CO@FGMGHCAD@?$AA1?$AA6?$AAu?$AAs?$AA?5?$AAt?$AAo?$AA?5?$AAl?$AAe?$AAs?$AAs?$AA?5?$AAt?$AAh?$AAa?$AAn?$AA?5?$AA3?$AA2?$AAu?$AAs?$AA?$AA@ 00068a5c     UefiShellDebug1CommandsLib:Pci.obj
 0002:00009a8c       ??_C@_1BE@CACIEDEC@?$AA3?$AA2?$AAu?$AAs?$AA?9?$AA6?$AA4?$AAu?$AAs?$AA?$AA@ 00068a8c     UefiShellDebug1CommandsLib:Pci.obj
 0002:00009aa0       ??_C@_1BO@PDIMOEAC@?$AAM?$AAo?$AAr?$AAe?$AA?5?$AAt?$AAh?$AAa?$AAn?$AA?5?$AA6?$AA4?$AAu?$AAs?$AA?$AA@ 00068aa0     UefiShellDebug1CommandsLib:Pci.obj
 0002:00009ac0       ??_C@_1BC@FGCJDNHA@?$AAD?$AAi?$AAs?$AAa?$AAb?$AAl?$AAe?$AAd?$AA?$AA@ 00068ac0     UefiShellDebug1CommandsLib:Pci.obj
 0002:00009ad4       ??_C@_1CE@MOLMINKE@?$AAL?$AA0?$AAs?$AA?5?$AAE?$AAn?$AAt?$AAr?$AAy?$AA?5?$AAE?$AAn?$AAa?$AAb?$AAl?$AAe?$AAd?$AA?$AA@ 00068ad4     UefiShellDebug1CommandsLib:Pci.obj
 0002:00009af8       ??_C@_1CC@EGKEAOOB@?$AAL?$AA1?$AA?5?$AAE?$AAn?$AAt?$AAr?$AAy?$AA?5?$AAE?$AAn?$AAa?$AAb?$AAl?$AAe?$AAd?$AA?$AA@ 00068af8     UefiShellDebug1CommandsLib:Pci.obj
 0002:00009b1c       ??_C@_1DC@OOCMPFKO@?$AAL?$AA0?$AAs?$AA?5?$AAa?$AAn?$AAd?$AA?5?$AAL?$AA1?$AA?5?$AAE?$AAn?$AAt?$AAr?$AAy?$AA?5?$AAE?$AAn?$AAa?$AAb?$AAl?$AAe?$AAd?$AA?$AA@ 00068b1c     UefiShellDebug1CommandsLib:Pci.obj
 0002:00009b50       ??_C@_19NNEJIBDF@?$AA1?$AA?4?$AA0?$AAx?$AA?$AA@ 00068b50     UefiShellDebug1CommandsLib:Pci.obj
 0002:00009b5c       ??_C@_19PJNHDJKO@?$AA0?$AA?4?$AA1?$AAx?$AA?$AA@ 00068b5c     UefiShellDebug1CommandsLib:Pci.obj
 0002:00009b68       ??_C@_1M@CFPHDDPB@?$AA0?$AA?4?$AA0?$AA1?$AAx?$AA?$AA@ 00068b68     UefiShellDebug1CommandsLib:Pci.obj
 0002:00009b74       ??_C@_1O@PIABEHFE@?$AA0?$AA?4?$AA0?$AA0?$AA1?$AAx?$AA?$AA@ 00068b74     UefiShellDebug1CommandsLib:Pci.obj
 0002:00009b84       ??_C@_1BC@BIAHJJFB@?$AAR?$AAe?$AAs?$AAe?$AAr?$AAv?$AAe?$AAd?$AA?$AA@ 00068b84     UefiShellDebug1CommandsLib:Pci.obj
 0002:00009b98       ??_C@_15GLMKGGNF@?$AAO?$AAn?$AA?$AA@ 00068b98     UefiShellDebug1CommandsLib:Pci.obj
 0002:00009ba0       ??_C@_1M@ICNEFBLJ@?$AAB?$AAl?$AAi?$AAn?$AAk?$AA?$AA@ 00068ba0     UefiShellDebug1CommandsLib:Pci.obj
 0002:00009bac       ??_C@_17KKIALEEP@?$AAO?$AAf?$AAf?$AA?$AA@ 00068bac     UefiShellDebug1CommandsLib:Pci.obj
 0002:00009bb4       ??_C@_0DK@HOMABGOB@c?3?2edk2?2ShellPkg?2Library?2UefiShe@ 00068bb4     UefiShellDebug1CommandsLib:Pci.obj
 0002:00009bf0       ??_C@_1JI@DIBCOKEL@?$AA?$AN?$AA?6?$AA?$CF?$AAH?$AAS?$AAt?$AAa?$AAr?$AAt?$AA?5?$AAd?$AAu?$AAm?$AAp?$AAi?$AAn?$AAg?$AA?5?$AAP?$AAC?$AAI?$AAe?$AAx?$AA?5?$AAe?$AAx?$AAt?$AAe?$AAn?$AAd?$AAe?$AAd@ 00068bf0     UefiShellDebug1CommandsLib:Pci.obj
 0002:00009c88       ??_C@_1GC@IOBLCMJB@?$AA?5?$AA?5?$AAC?$AAa?$AAp?$AAa?$AAb?$AAi?$AAl?$AAi?$AAt?$AAy?$AA?5?$AAV?$AAe?$AAr?$AAs?$AAi?$AAo?$AAn?$AA?$CI?$AA3?$AA?3?$AA0?$AA?$CJ?$AA?3?$AA?5?$AA?5?$AA?5?$AA?5?$AA?5?$AA?5@ 00068c88     UefiShellDebug1CommandsLib:Pci.obj
 0002:00009cf0       ??_C@_1FK@OIGKJCNB@?$AA?5?$AA?5?$AAD?$AAe?$AAv?$AAi?$AAc?$AAe?$AA?1?$AAP?$AAo?$AAr?$AAt?$AAT?$AAy?$AAp?$AAe?$AA?$CI?$AA7?$AA?3?$AA4?$AA?$CJ?$AA?3?$AA?5?$AA?5?$AA?5?$AA?5?$AA?5?$AA?5?$AA?5?$AA?5?$AA?5@ 00068cf0     UefiShellDebug1CommandsLib:Pci.obj
 0002:00009d50       ??_C@_1FK@KEMDJDCE@?$AA?5?$AA?5?$AAS?$AAl?$AAo?$AAt?$AA?5?$AAI?$AAm?$AAp?$AAl?$AAe?$AAm?$AAe?$AAn?$AAt?$AAe?$AAd?$AA?$CI?$AA8?$AA?$CJ?$AA?3?$AA?5?$AA?5?$AA?5?$AA?5?$AA?5?$AA?5?$AA?5?$AA?5?$AA?5?$AA?5@ 00068d50     UefiShellDebug1CommandsLib:Pci.obj
 0002:00009db0       ??_C@_1GC@FONILIJO@?$AA?5?$AA?5?$AAI?$AAn?$AAt?$AAe?$AAr?$AAr?$AAu?$AAp?$AAt?$AA?5?$AAM?$AAe?$AAs?$AAs?$AAa?$AAg?$AAe?$AA?5?$AAN?$AAu?$AAm?$AAb?$AAe?$AAr?$AA?$CI?$AA1?$AA3?$AA?3?$AA9?$AA?$CJ@ 00068db0     UefiShellDebug1CommandsLib:Pci.obj
 0002:00009e18       ??_C@_1FK@NPFDPGMM@?$AA?5?$AA?5?$AAM?$AAa?$AAx?$AA_?$AAP?$AAa?$AAy?$AAl?$AAo?$AAa?$AAd?$AA_?$AAS?$AAi?$AAz?$AAe?$AA?5?$AAS?$AAu?$AAp?$AAp?$AAo?$AAr?$AAt?$AAe?$AAd?$AA?$CI?$AA2?$AA?3?$AA0@ 00068e18     UefiShellDebug1CommandsLib:Pci.obj
 0002:00009e74       ??_C@_1BO@OLMPP@?$AA?$CF?$AAE?$AA?$CF?$AAd?$AA?5?$AAb?$AAy?$AAt?$AAe?$AAs?$AA?$CF?$AAN?$AA?$AN?$AA?6?$AA?$AA@ 00068e74     UefiShellDebug1CommandsLib:Pci.obj
 0002:00009e94       ??_C@_1BM@CDEMNAKC@?$AA?$CF?$AAE?$AAU?$AAn?$AAk?$AAn?$AAo?$AAw?$AAn?$AA?$CF?$AAN?$AA?$AN?$AA?6?$AA?$AA@ 00068e94     UefiShellDebug1CommandsLib:Pci.obj
 0002:00009eb0       ??_C@_1GK@FMJEGDJO@?$AA?5?$AA?5?$AAP?$AAh?$AAa?$AAn?$AAt?$AAo?$AAm?$AA?5?$AAF?$AAu?$AAn?$AAc?$AAt?$AAi?$AAo?$AAn?$AAs?$AA?5?$AAS?$AAu?$AAp?$AAp?$AAo?$AAr?$AAt?$AAe?$AAd?$AA?$CI?$AA4?$AA?3@ 00068eb0     UefiShellDebug1CommandsLib:Pci.obj
 0002:00009f20       ??_C@_1JK@GDJHHFPD@?$AA?5?$AA?5?$AAE?$AAx?$AAt?$AAe?$AAn?$AAd?$AAe?$AAd?$AA?5?$AAT?$AAa?$AAg?$AA?5?$AAF?$AAi?$AAe?$AAl?$AAd?$AA?5?$AAS?$AAu?$AAp?$AAp?$AAo?$AAr?$AAt?$AAe?$AAd?$AA?$CI?$AA5@ 00068f20     UefiShellDebug1CommandsLib:Pci.obj
 0002:00009fc0       ??_C@_1FK@DEGMCBMF@?$AA?5?$AA?5?$AAE?$AAn?$AAd?$AAp?$AAo?$AAi?$AAn?$AAt?$AA?5?$AAL?$AA0?$AAs?$AA?5?$AAA?$AAc?$AAc?$AAe?$AAp?$AAt?$AAa?$AAb?$AAl?$AAe?$AA?5?$AAL?$AAa?$AAt?$AAe?$AAn?$AAc@ 00068fc0     UefiShellDebug1CommandsLib:Pci.obj
 0002:0000a01c       ??_C@_1CO@KHCIHDMD@?$AA?$CF?$AAE?$AAM?$AAa?$AAx?$AAi?$AAm?$AAu?$AAm?$AA?5?$AAo?$AAf?$AA?5?$AA?$CF?$AAd?$AA?5?$AAn?$AAs?$AA?$CF?$AAN?$AA?$AN?$AA?6?$AA?$AA@ 0006901c     UefiShellDebug1CommandsLib:Pci.obj
 0002:0000a04c       ??_C@_1CO@IOKCHEEC@?$AA?$CF?$AAE?$AAM?$AAa?$AAx?$AAi?$AAm?$AAu?$AAm?$AA?5?$AAo?$AAf?$AA?5?$AA?$CF?$AAd?$AA?5?$AAu?$AAs?$AA?$CF?$AAN?$AA?$AN?$AA?6?$AA?$AA@ 0006904c     UefiShellDebug1CommandsLib:Pci.obj
 0002:0000a07c       ??_C@_1BO@DEAGGBCC@?$AA?$CF?$AAE?$AAN?$AAo?$AA?5?$AAl?$AAi?$AAm?$AAi?$AAt?$AA?$CF?$AAN?$AA?$AN?$AA?6?$AA?$AA@ 0006907c     UefiShellDebug1CommandsLib:Pci.obj
 0002:0000a0a0       ??_C@_1FK@IEAAEIBG@?$AA?5?$AA?5?$AAE?$AAn?$AAd?$AAp?$AAo?$AAi?$AAn?$AAt?$AA?5?$AAL?$AA1?$AA?5?$AAA?$AAc?$AAc?$AAe?$AAp?$AAt?$AAa?$AAb?$AAl?$AAe?$AA?5?$AAL?$AAa?$AAt?$AAe?$AAn?$AAc?$AAy@ 000690a0     UefiShellDebug1CommandsLib:Pci.obj
 0002:0000a100       ??_C@_1GK@GIGLEIEC@?$AA?5?$AA?5?$AAR?$AAo?$AAl?$AAe?$AA?9?$AAb?$AAa?$AAs?$AAe?$AAd?$AA?5?$AAE?$AAr?$AAr?$AAo?$AAr?$AA?5?$AAR?$AAe?$AAp?$AAo?$AAr?$AAt?$AAi?$AAn?$AAg?$AA?$CI?$AA1?$AA5?$AA?$CJ@ 00069100     UefiShellDebug1CommandsLib:Pci.obj
 0002:0000a170       ??_C@_1HC@CBDBOADF@?$AA?5?$AA?5?$AAC?$AAa?$AAp?$AAt?$AAu?$AAr?$AAe?$AAd?$AA?5?$AAS?$AAl?$AAo?$AAt?$AA?5?$AAP?$AAo?$AAw?$AAe?$AAr?$AA?5?$AAL?$AAi?$AAm?$AAi?$AAt?$AA?5?$AAV?$AAa?$AAl?$AAu@ 00069170     UefiShellDebug1CommandsLib:Pci.obj
 0002:0000a1e8       ??_C@_1GK@NGJPMHJI@?$AA?5?$AA?5?$AAC?$AAa?$AAp?$AAt?$AAu?$AAr?$AAe?$AAd?$AA?5?$AAS?$AAl?$AAo?$AAt?$AA?5?$AAP?$AAo?$AAw?$AAe?$AAr?$AA?5?$AAL?$AAi?$AAm?$AAi?$AAt?$AA?5?$AAS?$AAc?$AAa?$AAl@ 000691e8     UefiShellDebug1CommandsLib:Pci.obj
 0002:0000a258       ??_C@_1GK@JIFHJGKP@?$AA?5?$AA?5?$AAF?$AAu?$AAn?$AAc?$AAt?$AAi?$AAo?$AAn?$AA?5?$AAL?$AAe?$AAv?$AAe?$AAl?$AA?5?$AAR?$AAe?$AAs?$AAe?$AAt?$AA?5?$AAC?$AAa?$AAp?$AAa?$AAb?$AAi?$AAl?$AAi?$AAt@ 00069258     UefiShellDebug1CommandsLib:Pci.obj
 0002:0000a2c8       ??_C@_1GK@FGJNFMLD@?$AA?5?$AA?5?$AAC?$AAo?$AAr?$AAr?$AAe?$AAc?$AAt?$AAa?$AAb?$AAl?$AAe?$AA?5?$AAE?$AAr?$AAr?$AAo?$AAr?$AA?5?$AAR?$AAe?$AAp?$AAo?$AAr?$AAt?$AAi?$AAn?$AAg?$AA?5?$AAE?$AAn@ 000692c8     UefiShellDebug1CommandsLib:Pci.obj
 0002:0000a338       ??_C@_1GK@ENPGOHN@?$AA?5?$AA?5?$AAN?$AAo?$AAn?$AA?9?$AAF?$AAa?$AAt?$AAa?$AAl?$AA?5?$AAE?$AAr?$AAr?$AAo?$AAr?$AA?5?$AAR?$AAe?$AAp?$AAo?$AAr?$AAt?$AAi?$AAn?$AAg?$AA?5?$AAE?$AAn?$AAa?$AAb@ 00069338     UefiShellDebug1CommandsLib:Pci.obj
 0002:0000a3a8       ??_C@_1GK@KNGICADE@?$AA?5?$AA?5?$AAF?$AAa?$AAt?$AAa?$AAl?$AA?5?$AAE?$AAr?$AAr?$AAo?$AAr?$AA?5?$AAR?$AAe?$AAp?$AAo?$AAr?$AAt?$AAi?$AAn?$AAg?$AA?5?$AAE?$AAn?$AAa?$AAb?$AAl?$AAe?$AA?$CI?$AA2@ 000693a8     UefiShellDebug1CommandsLib:Pci.obj
 0002:0000a418       ??_C@_1GK@PEFNOOJJ@?$AA?5?$AA?5?$AAU?$AAn?$AAs?$AAu?$AAp?$AAp?$AAo?$AAr?$AAt?$AAe?$AAd?$AA?5?$AAR?$AAe?$AAq?$AAu?$AAe?$AAs?$AAt?$AA?5?$AAR?$AAe?$AAp?$AAo?$AAr?$AAt?$AAi?$AAn?$AAg?$AA?5@ 00069418     UefiShellDebug1CommandsLib:Pci.obj
 0002:0000a488       ??_C@_1GK@KNAFJEEN@?$AA?5?$AA?5?$AAE?$AAn?$AAa?$AAb?$AAl?$AAe?$AA?5?$AAR?$AAe?$AAl?$AAa?$AAx?$AAe?$AAd?$AA?5?$AAO?$AAr?$AAd?$AAe?$AAr?$AAi?$AAn?$AAg?$AA?$CI?$AA4?$AA?$CJ?$AA?3?$AA?5?$AA?5?$AA?5@ 00069488     UefiShellDebug1CommandsLib:Pci.obj
 0002:0000a4f8       ??_C@_1FK@DOIMONG@?$AA?5?$AA?5?$AAM?$AAa?$AAx?$AA_?$AAP?$AAa?$AAy?$AAl?$AAo?$AAa?$AAd?$AA_?$AAS?$AAi?$AAz?$AAe?$AA?$CI?$AA7?$AA?3?$AA5?$AA?$CJ?$AA?3?$AA?5?$AA?5?$AA?5?$AA?5?$AA?5?$AA?5?$AA?5?$AA?5@ 000694f8     UefiShellDebug1CommandsLib:Pci.obj
 0002:0000a558       ??_C@_1GK@NDFLOBEB@?$AA?5?$AA?5?$AAE?$AAx?$AAt?$AAe?$AAn?$AAd?$AAe?$AAd?$AA?5?$AAT?$AAa?$AAg?$AA?5?$AAF?$AAi?$AAe?$AAl?$AAd?$AA?5?$AAE?$AAn?$AAa?$AAb?$AAl?$AAe?$AA?$CI?$AA8?$AA?$CJ?$AA?3?$AA?5@ 00069558     UefiShellDebug1CommandsLib:Pci.obj
 0002:0000a5c8       ??_C@_1GK@JOCEMCGI@?$AA?5?$AA?5?$AAP?$AAh?$AAa?$AAn?$AAt?$AAo?$AAm?$AA?5?$AAF?$AAu?$AAn?$AAc?$AAt?$AAi?$AAo?$AAn?$AAs?$AA?5?$AAE?$AAn?$AAa?$AAb?$AAl?$AAe?$AA?$CI?$AA9?$AA?$CJ?$AA?3?$AA?5?$AA?5@ 000695c8     UefiShellDebug1CommandsLib:Pci.obj
 0002:0000a638       ??_C@_1GK@DIPPPKNF@?$AA?5?$AA?5?$AAA?$AAu?$AAx?$AAi?$AAl?$AAi?$AAa?$AAr?$AAy?$AA?5?$AA?$CI?$AAA?$AAU?$AAX?$AA?$CJ?$AA?5?$AAP?$AAo?$AAw?$AAe?$AAr?$AA?5?$AAP?$AAM?$AA?5?$AAE?$AAn?$AAa?$AAb?$AAl@ 00069638     UefiShellDebug1CommandsLib:Pci.obj
 0002:0000a6a8       ??_C@_1GK@BHBAOJJF@?$AA?5?$AA?5?$AAE?$AAn?$AAa?$AAb?$AAl?$AAe?$AA?5?$AAN?$AAo?$AA?5?$AAS?$AAn?$AAo?$AAo?$AAp?$AA?$CI?$AA1?$AA1?$AA?$CJ?$AA?3?$AA?5?$AA?5?$AA?5?$AA?5?$AA?5?$AA?5?$AA?5?$AA?5?$AA?5?$AA?5@ 000696a8     UefiShellDebug1CommandsLib:Pci.obj
 0002:0000a718       ??_C@_1FK@LLANKGGK@?$AA?5?$AA?5?$AAM?$AAa?$AAx?$AA_?$AAR?$AAe?$AAa?$AAd?$AA_?$AAR?$AAe?$AAq?$AAu?$AAe?$AAs?$AAt?$AA_?$AAS?$AAi?$AAz?$AAe?$AA?$CI?$AA1?$AA4?$AA?3?$AA1?$AA2?$AA?$CJ?$AA?3?$AA?5@ 00069718     UefiShellDebug1CommandsLib:Pci.obj
 0002:0000a778       ??_C@_1GG@OFHJCJFD@?$AA?5?$AA?5?$AAB?$AAr?$AAi?$AAd?$AAg?$AAe?$AA?5?$AAC?$AAo?$AAn?$AAf?$AAi?$AAg?$AAu?$AAr?$AAa?$AAt?$AAi?$AAo?$AAn?$AA?5?$AAR?$AAe?$AAt?$AAr?$AAy?$AA?5?$AAE?$AAn?$AAa@ 00069778     UefiShellDebug1CommandsLib:Pci.obj
 0002:0000a7e0       ??_C@_1GK@BINMDEJF@?$AA?5?$AA?5?$AAC?$AAo?$AAr?$AAr?$AAe?$AAc?$AAt?$AAa?$AAb?$AAl?$AAe?$AA?5?$AAE?$AAr?$AAr?$AAo?$AAr?$AA?5?$AAD?$AAe?$AAt?$AAe?$AAc?$AAt?$AAe?$AAd?$AA?$CI?$AA0?$AA?$CJ?$AA?3@ 000697e0     UefiShellDebug1CommandsLib:Pci.obj
 0002:0000a850       ??_C@_1GK@EDPIDOEM@?$AA?5?$AA?5?$AAN?$AAo?$AAn?$AA?9?$AAF?$AAa?$AAt?$AAa?$AAl?$AA?5?$AAE?$AAr?$AAr?$AAo?$AAr?$AA?5?$AAD?$AAe?$AAt?$AAe?$AAc?$AAt?$AAe?$AAd?$AA?$CI?$AA1?$AA?$CJ?$AA?3?$AA?5?$AA?5@ 00069850     UefiShellDebug1CommandsLib:Pci.obj
 0002:0000a8c0       ??_C@_1GK@MNNNPGMB@?$AA?5?$AA?5?$AAF?$AAa?$AAt?$AAa?$AAl?$AA?5?$AAE?$AAr?$AAr?$AAo?$AAr?$AA?5?$AAD?$AAe?$AAt?$AAe?$AAc?$AAt?$AAe?$AAd?$AA?$CI?$AA2?$AA?$CJ?$AA?3?$AA?5?$AA?5?$AA?5?$AA?5?$AA?5?$AA?5@ 000698c0     UefiShellDebug1CommandsLib:Pci.obj
 0002:0000a930       ??_C@_1GK@BJCBKOPC@?$AA?5?$AA?5?$AAU?$AAn?$AAs?$AAu?$AAp?$AAp?$AAo?$AAr?$AAt?$AAe?$AAd?$AA?5?$AAR?$AAe?$AAq?$AAu?$AAe?$AAs?$AAt?$AA?5?$AAD?$AAe?$AAt?$AAe?$AAc?$AAt?$AAe?$AAd?$AA?$CI?$AA3@ 00069930     UefiShellDebug1CommandsLib:Pci.obj
 0002:0000a9a0       ??_C@_1GK@HPMFLNAP@?$AA?5?$AA?5?$AAA?$AAU?$AAX?$AA?5?$AAP?$AAo?$AAw?$AAe?$AAr?$AA?5?$AAD?$AAe?$AAt?$AAe?$AAc?$AAt?$AAe?$AAd?$AA?$CI?$AA4?$AA?$CJ?$AA?3?$AA?5?$AA?5?$AA?5?$AA?5?$AA?5?$AA?5?$AA?5?$AA?5@ 000699a0     UefiShellDebug1CommandsLib:Pci.obj
 0002:0000aa10       ??_C@_1GK@LEJACGLB@?$AA?5?$AA?5?$AAT?$AAr?$AAa?$AAn?$AAs?$AAa?$AAc?$AAt?$AAi?$AAo?$AAn?$AAs?$AA?5?$AAP?$AAe?$AAn?$AAd?$AAi?$AAn?$AAg?$AA?$CI?$AA5?$AA?$CJ?$AA?3?$AA?5?$AA?5?$AA?5?$AA?5?$AA?5?$AA?5@ 00069a10     UefiShellDebug1CommandsLib:Pci.obj
 0002:0000aa7c       ??_C@_1BC@MMFGJKJK@?$AA2?$AA?4?$AA5?$AA?5?$AAG?$AAT?$AA?1?$AAs?$AA?$AA@ 00069a7c     UefiShellDebug1CommandsLib:Pci.obj
 0002:0000aa90       ??_C@_1BC@KJNLPOJD@?$AA5?$AA?4?$AA0?$AA?5?$AAG?$AAT?$AA?1?$AAs?$AA?$AA@ 00069a90     UefiShellDebug1CommandsLib:Pci.obj
 0002:0000aaa4       ??_C@_1BC@FKHADBHI@?$AA8?$AA?4?$AA0?$AA?5?$AAG?$AAT?$AA?1?$AAs?$AA?$AA@ 00069aa4     UefiShellDebug1CommandsLib:Pci.obj
 0002:0000aab8       ??_C@_1HO@BFOKIJPF@?$AA?5?$AA?5?$AAM?$AAa?$AAx?$AAi?$AAm?$AAu?$AAm?$AA?5?$AAL?$AAi?$AAn?$AAk?$AA?5?$AAS?$AAp?$AAe?$AAe?$AAd?$AA?$CI?$AA3?$AA?3?$AA0?$AA?$CJ?$AA?3?$AA?5?$AA?5?$AA?5?$AA?5?$AA?5?$AA?5@ 00069ab8     UefiShellDebug1CommandsLib:Pci.obj
 0002:0000ab38       ??_C@_1IA@FKPHADIH@?$AA?5?$AA?5?$AAM?$AAa?$AAx?$AAi?$AAm?$AAu?$AAm?$AA?5?$AAL?$AAi?$AAn?$AAk?$AA?5?$AAW?$AAi?$AAd?$AAt?$AAh?$AA?$CI?$AA9?$AA?3?$AA4?$AA?$CJ?$AA?3?$AA?5?$AA?5?$AA?5?$AA?5?$AA?5?$AA?5@ 00069b38     UefiShellDebug1CommandsLib:Pci.obj
 0002:0000abb8       ??_C@_17LLDFHKAN@?$AAN?$AAo?$AAt?$AA?$AA@ 00069bb8     UefiShellDebug1CommandsLib:Pci.obj
 0002:0000abc0       ??_C@_17JJBPPPOL@?$AAL?$AA0?$AAs?$AA?$AA@ 00069bc0     UefiShellDebug1CommandsLib:Pci.obj
 0002:0000abc8       ??_C@_15HODAALIP@?$AAL?$AA1?$AA?$AA@ 00069bc8     UefiShellDebug1CommandsLib:Pci.obj
 0002:0000abd0       ??_C@_1BG@HHFHFDGH@?$AAL?$AA0?$AAs?$AA?5?$AAa?$AAn?$AAd?$AA?5?$AAL?$AA1?$AA?$AA@ 00069bd0     UefiShellDebug1CommandsLib:Pci.obj
 0002:0000abe8       ??_C@_1JC@POMDGFJL@?$AA?5?$AA?5?$AAA?$AAc?$AAt?$AAi?$AAv?$AAe?$AA?5?$AAS?$AAt?$AAa?$AAt?$AAe?$AA?5?$AAP?$AAo?$AAw?$AAe?$AAr?$AA?5?$AAM?$AAa?$AAn?$AAa?$AAg?$AAe?$AAm?$AAe?$AAn?$AAt?$AA?5@ 00069be8     UefiShellDebug1CommandsLib:Pci.obj
 0002:0000ac80       ??_C@_1HO@NKEIDOOB@?$AA?5?$AA?5?$AAL?$AA0?$AAs?$AA?5?$AAE?$AAx?$AAi?$AAt?$AA?5?$AAL?$AAa?$AAt?$AAe?$AAn?$AAc?$AAy?$AA?$CI?$AA1?$AA4?$AA?3?$AA1?$AA2?$AA?$CJ?$AA?3?$AA?5?$AA?5?$AA?5?$AA?5?$AA?5?$AA?5@ 00069c80     UefiShellDebug1CommandsLib:Pci.obj
 0002:0000ad00       ??_C@_1HO@BLGJHOAB@?$AA?5?$AA?5?$AAL?$AA1?$AA?5?$AAE?$AAx?$AAi?$AAt?$AA?5?$AAL?$AAa?$AAt?$AAe?$AAn?$AAc?$AAy?$AA?$CI?$AA1?$AA7?$AA?3?$AA1?$AA5?$AA?$CJ?$AA?3?$AA?5?$AA?5?$AA?5?$AA?5?$AA?5?$AA?5?$AA?5@ 00069d00     UefiShellDebug1CommandsLib:Pci.obj
 0002:0000ad80       ??_C@_1HO@HGACLBBN@?$AA?5?$AA?5?$AAC?$AAl?$AAo?$AAc?$AAk?$AA?5?$AAP?$AAo?$AAw?$AAe?$AAr?$AA?5?$AAM?$AAa?$AAn?$AAa?$AAg?$AAe?$AAm?$AAe?$AAn?$AAt?$AA?$CI?$AA1?$AA8?$AA?$CJ?$AA?3?$AA?5?$AA?5?$AA?5@ 00069d80     UefiShellDebug1CommandsLib:Pci.obj
 0002:0000ae00       ??_C@_1HO@MGNBADFC@?$AA?5?$AA?5?$AAS?$AAu?$AAr?$AAp?$AAr?$AAi?$AAs?$AAe?$AA?5?$AAD?$AAo?$AAw?$AAn?$AA?5?$AAE?$AAr?$AAr?$AAo?$AAr?$AA?5?$AAR?$AAe?$AAp?$AAo?$AAr?$AAt?$AAi?$AAn?$AAg?$AA?5@ 00069e00     UefiShellDebug1CommandsLib:Pci.obj
 0002:0000ae80       ??_C@_1HO@EKMMKHE@?$AA?5?$AA?5?$AAD?$AAa?$AAt?$AAa?$AA?5?$AAL?$AAi?$AAn?$AAk?$AA?5?$AAL?$AAa?$AAy?$AAe?$AAr?$AA?5?$AAL?$AAi?$AAn?$AAk?$AA?5?$AAA?$AAc?$AAt?$AAi?$AAv?$AAe?$AA?5?$AAR?$AAe@ 00069e80     UefiShellDebug1CommandsLib:Pci.obj
 0002:0000af00       ??_C@_1HO@BLBMJKEI@?$AA?5?$AA?5?$AAL?$AAi?$AAn?$AAk?$AA?5?$AAB?$AAa?$AAn?$AAd?$AAw?$AAi?$AAd?$AAt?$AAh?$AA?5?$AAN?$AAo?$AAt?$AAi?$AAf?$AAi?$AAc?$AAa?$AAt?$AAi?$AAo?$AAn?$AA?5?$AAC?$AAa@ 00069f00     UefiShellDebug1CommandsLib:Pci.obj
 0002:0000af80       ??_C@_1IG@BGGCJOF@?$AA?5?$AA?5?$AAP?$AAo?$AAr?$AAt?$AA?5?$AAN?$AAu?$AAm?$AAb?$AAe?$AAr?$AA?$CI?$AA3?$AA1?$AA?3?$AA2?$AA4?$AA?$CJ?$AA?3?$AA?5?$AA?5?$AA?5?$AA?5?$AA?5?$AA?5?$AA?5?$AA?5?$AA?5?$AA?5?$AA?5@ 00069f80     UefiShellDebug1CommandsLib:Pci.obj
 0002:0000b008       ??_C@_1HO@PGCJOKAE@?$AA?5?$AA?5?$AAA?$AAc?$AAt?$AAi?$AAv?$AAe?$AA?5?$AAS?$AAt?$AAa?$AAt?$AAe?$AA?5?$AAP?$AAo?$AAw?$AAe?$AAr?$AA?5?$AAM?$AAa?$AAn?$AAa?$AAg?$AAe?$AAm?$AAe?$AAn?$AAt?$AA?5@ 0006a008     UefiShellDebug1CommandsLib:Pci.obj
 0002:0000b088       ??_C@_1II@IFDMMLML@?$AA?5?$AA?5?$AAR?$AAe?$AAa?$AAd?$AA?5?$AAC?$AAo?$AAm?$AAp?$AAl?$AAe?$AAt?$AAi?$AAo?$AAn?$AA?5?$AAB?$AAo?$AAu?$AAn?$AAd?$AAa?$AAr?$AAy?$AA?5?$AA?$CI?$AAR?$AAC?$AAB?$AA?$CJ@ 0006a088     UefiShellDebug1CommandsLib:Pci.obj
 0002:0000b110       ??_C@_1HO@KENJMJBG@?$AA?5?$AA?5?$AAL?$AAi?$AAn?$AAk?$AA?5?$AAD?$AAi?$AAs?$AAa?$AAb?$AAl?$AAe?$AA?$CI?$AA4?$AA?$CJ?$AA?3?$AA?5?$AA?5?$AA?5?$AA?5?$AA?5?$AA?5?$AA?5?$AA?5?$AA?5?$AA?5?$AA?5?$AA?5?$AA?5?$AA?5@ 0006a110     UefiShellDebug1CommandsLib:Pci.obj
 0002:0000b190       ??_C@_1HO@EOPOHPHO@?$AA?5?$AA?5?$AAC?$AAo?$AAm?$AAm?$AAo?$AAn?$AA?5?$AAC?$AAl?$AAo?$AAc?$AAk?$AA?5?$AAC?$AAo?$AAn?$AAf?$AAi?$AAg?$AAu?$AAr?$AAa?$AAt?$AAi?$AAo?$AAn?$AA?$CI?$AA6?$AA?$CJ?$AA?3@ 0006a190     UefiShellDebug1CommandsLib:Pci.obj
 0002:0000b210       ??_C@_1HO@PCFCBCBK@?$AA?5?$AA?5?$AAE?$AAx?$AAt?$AAe?$AAn?$AAd?$AAe?$AAd?$AA?5?$AAS?$AAy?$AAn?$AAc?$AAh?$AA?$CI?$AA7?$AA?$CJ?$AA?3?$AA?5?$AA?5?$AA?5?$AA?5?$AA?5?$AA?5?$AA?5?$AA?5?$AA?5?$AA?5?$AA?5?$AA?5@ 0006a210     UefiShellDebug1CommandsLib:Pci.obj
 0002:0000b290       ??_C@_1HO@ONMDCMJB@?$AA?5?$AA?5?$AAE?$AAn?$AAa?$AAb?$AAl?$AAe?$AA?5?$AAC?$AAl?$AAo?$AAc?$AAk?$AA?5?$AAP?$AAo?$AAw?$AAe?$AAr?$AA?5?$AAM?$AAa?$AAn?$AAa?$AAg?$AAe?$AAm?$AAe?$AAn?$AAt?$AA?$CI@ 0006a290     UefiShellDebug1CommandsLib:Pci.obj
 0002:0000b310       ??_C@_1HO@KLHLOFFG@?$AA?5?$AA?5?$AAH?$AAa?$AAr?$AAd?$AAw?$AAa?$AAr?$AAe?$AA?5?$AAA?$AAu?$AAt?$AAo?$AAn?$AAo?$AAm?$AAo?$AAu?$AAs?$AA?5?$AAW?$AAi?$AAd?$AAt?$AAh?$AA?5?$AAD?$AAi?$AAs?$AAa@ 0006a310     UefiShellDebug1CommandsLib:Pci.obj
 0002:0000b390       ??_C@_1HO@OLNOLBIG@?$AA?5?$AA?5?$AAL?$AAi?$AAn?$AAk?$AA?5?$AAB?$AAa?$AAn?$AAd?$AAw?$AAi?$AAd?$AAt?$AAh?$AA?5?$AAM?$AAa?$AAn?$AAa?$AAg?$AAe?$AAm?$AAe?$AAn?$AAt?$AA?5?$AAI?$AAn?$AAt?$AAe@ 0006a390     UefiShellDebug1CommandsLib:Pci.obj
 0002:0000b410       ??_C@_1HO@CKJDBHKB@?$AA?5?$AA?5?$AAL?$AAi?$AAn?$AAk?$AA?5?$AAA?$AAu?$AAt?$AAo?$AAn?$AAo?$AAm?$AAo?$AAu?$AAs?$AA?5?$AAB?$AAa?$AAn?$AAd?$AAw?$AAi?$AAd?$AAt?$AAh?$AA?5?$AAI?$AAn?$AAt?$AAe@ 0006a410     UefiShellDebug1CommandsLib:Pci.obj
 0002:0000b490       ??_C@_1HO@FACFEDDH@?$AA?5?$AA?5?$AAC?$AAu?$AAr?$AAr?$AAe?$AAn?$AAt?$AA?5?$AAL?$AAi?$AAn?$AAk?$AA?5?$AAS?$AAp?$AAe?$AAe?$AAd?$AA?$CI?$AA3?$AA?3?$AA0?$AA?$CJ?$AA?3?$AA?5?$AA?5?$AA?5?$AA?5?$AA?5?$AA?5@ 0006a490     UefiShellDebug1CommandsLib:Pci.obj
 0002:0000b510       ??_C@_1IA@FLJDNCHJ@?$AA?5?$AA?5?$AAN?$AAe?$AAg?$AAo?$AAt?$AAi?$AAa?$AAt?$AAe?$AAd?$AA?5?$AAL?$AAi?$AAn?$AAk?$AA?5?$AAW?$AAi?$AAd?$AAt?$AAh?$AA?$CI?$AA9?$AA?3?$AA4?$AA?$CJ?$AA?3?$AA?5?$AA?5?$AA?5@ 0006a510     UefiShellDebug1CommandsLib:Pci.obj
 0002:0000b590       ??_C@_1HO@GEMKBANG@?$AA?5?$AA?5?$AAL?$AAi?$AAn?$AAk?$AA?5?$AAT?$AAr?$AAa?$AAi?$AAn?$AAi?$AAn?$AAg?$AA?$CI?$AA1?$AA1?$AA?$CJ?$AA?3?$AA?5?$AA?5?$AA?5?$AA?5?$AA?5?$AA?5?$AA?5?$AA?5?$AA?5?$AA?5?$AA?5?$AA?5@ 0006a590     UefiShellDebug1CommandsLib:Pci.obj
 0002:0000b610       ??_C@_1HO@EJKKKOMM@?$AA?5?$AA?5?$AAS?$AAl?$AAo?$AAt?$AA?5?$AAC?$AAl?$AAo?$AAc?$AAk?$AA?5?$AAC?$AAo?$AAn?$AAf?$AAi?$AAg?$AAu?$AAr?$AAa?$AAt?$AAi?$AAo?$AAn?$AA?$CI?$AA1?$AA2?$AA?$CJ?$AA?3?$AA?5@ 0006a610     UefiShellDebug1CommandsLib:Pci.obj
 0002:0000b690       ??_C@_1HO@OCIHIJDB@?$AA?5?$AA?5?$AAD?$AAa?$AAt?$AAa?$AA?5?$AAL?$AAi?$AAn?$AAk?$AA?5?$AAL?$AAa?$AAy?$AAe?$AAr?$AA?5?$AAL?$AAi?$AAn?$AAk?$AA?5?$AAA?$AAc?$AAt?$AAi?$AAv?$AAe?$AA?$CI?$AA1?$AA3@ 0006a690     UefiShellDebug1CommandsLib:Pci.obj
 0002:0000b710       ??_C@_1HO@GNJLEODF@?$AA?5?$AA?5?$AAL?$AAi?$AAn?$AAk?$AA?5?$AAB?$AAa?$AAn?$AAd?$AAw?$AAi?$AAd?$AAt?$AAh?$AA?5?$AAM?$AAa?$AAn?$AAa?$AAg?$AAe?$AAm?$AAe?$AAn?$AAt?$AA?5?$AAS?$AAt?$AAa?$AAt@ 0006a710     UefiShellDebug1CommandsLib:Pci.obj
 0002:0000b790       ??_C@_1HO@IJPBBAJC@?$AA?5?$AA?5?$AAL?$AAi?$AAn?$AAk?$AA?5?$AAA?$AAu?$AAt?$AAo?$AAn?$AAo?$AAm?$AAo?$AAu?$AAs?$AA?5?$AAB?$AAa?$AAn?$AAd?$AAw?$AAi?$AAd?$AAt?$AAh?$AA?5?$AAS?$AAt?$AAa?$AAt@ 0006a790     UefiShellDebug1CommandsLib:Pci.obj
 0002:0000b810       ??_C@_1HO@JJFLBGML@?$AA?5?$AA?5?$AAA?$AAt?$AAt?$AAe?$AAn?$AAt?$AAi?$AAo?$AAn?$AA?5?$AAB?$AAu?$AAt?$AAt?$AAo?$AAn?$AA?5?$AAP?$AAr?$AAe?$AAs?$AAe?$AAn?$AAt?$AA?$CI?$AA0?$AA?$CJ?$AA?3?$AA?5?$AA?5@ 0006a810     UefiShellDebug1CommandsLib:Pci.obj
 0002:0000b890       ??_C@_1HO@IEGGKKNI@?$AA?5?$AA?5?$AAP?$AAo?$AAw?$AAe?$AAr?$AA?5?$AAC?$AAo?$AAn?$AAt?$AAr?$AAo?$AAl?$AAl?$AAe?$AAr?$AA?5?$AAP?$AAr?$AAe?$AAs?$AAe?$AAn?$AAt?$AA?$CI?$AA1?$AA?$CJ?$AA?3?$AA?5?$AA?5@ 0006a890     UefiShellDebug1CommandsLib:Pci.obj
 0002:0000b910       ??_C@_1HO@JLADNJFD@?$AA?5?$AA?5?$AAM?$AAR?$AAL?$AA?5?$AAS?$AAe?$AAn?$AAs?$AAo?$AAr?$AA?5?$AAP?$AAr?$AAe?$AAs?$AAe?$AAn?$AAt?$AA?$CI?$AA2?$AA?$CJ?$AA?3?$AA?5?$AA?5?$AA?5?$AA?5?$AA?5?$AA?5?$AA?5?$AA?5@ 0006a910     UefiShellDebug1CommandsLib:Pci.obj
 0002:0000b990       ??_C@_1HO@DIFAEIHC@?$AA?5?$AA?5?$AAA?$AAt?$AAt?$AAe?$AAn?$AAt?$AAi?$AAo?$AAn?$AA?5?$AAI?$AAn?$AAd?$AAi?$AAc?$AAa?$AAt?$AAo?$AAr?$AA?5?$AAP?$AAr?$AAe?$AAs?$AAe?$AAn?$AAt?$AA?$CI?$AA3?$AA?$CJ@ 0006a990     UefiShellDebug1CommandsLib:Pci.obj
 0002:0000ba10       ??_C@_1HO@BCFFALPG@?$AA?5?$AA?5?$AAP?$AAo?$AAw?$AAe?$AAr?$AA?5?$AAI?$AAn?$AAd?$AAi?$AAc?$AAa?$AAt?$AAo?$AAr?$AA?5?$AAP?$AAr?$AAe?$AAs?$AAe?$AAn?$AAt?$AA?$CI?$AA4?$AA?$CJ?$AA?3?$AA?5?$AA?5?$AA?5@ 0006aa10     UefiShellDebug1CommandsLib:Pci.obj
 0002:0000ba90       ??_C@_1HO@MCHNEOFL@?$AA?5?$AA?5?$AAH?$AAo?$AAt?$AA?9?$AAP?$AAl?$AAu?$AAg?$AA?5?$AAS?$AAu?$AAr?$AAp?$AAr?$AAi?$AAs?$AAe?$AA?$CI?$AA5?$AA?$CJ?$AA?3?$AA?5?$AA?5?$AA?5?$AA?5?$AA?5?$AA?5?$AA?5?$AA?5?$AA?5@ 0006aa90     UefiShellDebug1CommandsLib:Pci.obj
 0002:0000bb10       ??_C@_1HO@GGDJFIAL@?$AA?5?$AA?5?$AAH?$AAo?$AAt?$AA?9?$AAP?$AAl?$AAu?$AAg?$AA?5?$AAC?$AAa?$AAp?$AAa?$AAb?$AAl?$AAe?$AA?$CI?$AA6?$AA?$CJ?$AA?3?$AA?5?$AA?5?$AA?5?$AA?5?$AA?5?$AA?5?$AA?5?$AA?5?$AA?5?$AA?5@ 0006ab10     UefiShellDebug1CommandsLib:Pci.obj
 0002:0000bb90       ??_C@_1IG@ELHKLOAO@?$AA?5?$AA?5?$AAS?$AAl?$AAo?$AAt?$AA?5?$AAP?$AAo?$AAw?$AAe?$AAr?$AA?5?$AAL?$AAi?$AAm?$AAi?$AAt?$AA?5?$AAV?$AAa?$AAl?$AAu?$AAe?$AA?$CI?$AA1?$AA4?$AA?3?$AA7?$AA?$CJ?$AA?3?$AA?5@ 0006ab90     UefiShellDebug1CommandsLib:Pci.obj
 0002:0000bc18       ??_C@_1HO@POKCLING@?$AA?5?$AA?5?$AAS?$AAl?$AAo?$AAt?$AA?5?$AAP?$AAo?$AAw?$AAe?$AAr?$AA?5?$AAL?$AAi?$AAm?$AAi?$AAt?$AA?5?$AAS?$AAc?$AAa?$AAl?$AAe?$AA?$CI?$AA1?$AA6?$AA?3?$AA1?$AA5?$AA?$CJ?$AA?3@ 0006ac18     UefiShellDebug1CommandsLib:Pci.obj
 0002:0000bc98       ??_C@_1HO@LPCJLOLK@?$AA?5?$AA?5?$AAE?$AAl?$AAe?$AAc?$AAt?$AAr?$AAo?$AAm?$AAe?$AAc?$AAh?$AAa?$AAn?$AAi?$AAc?$AAa?$AAl?$AA?5?$AAI?$AAn?$AAt?$AAe?$AAr?$AAl?$AAo?$AAc?$AAk?$AA?5?$AAP?$AAr@ 0006ac98     UefiShellDebug1CommandsLib:Pci.obj
 0002:0000bd18       ??_C@_1HO@CHMPHHCK@?$AA?5?$AA?5?$AAN?$AAo?$AA?5?$AAC?$AAo?$AAm?$AAm?$AAa?$AAn?$AAd?$AA?5?$AAC?$AAo?$AAm?$AAp?$AAl?$AAe?$AAt?$AAe?$AAd?$AA?5?$AAS?$AAu?$AAp?$AAp?$AAo?$AAr?$AAt?$AA?$CI?$AA1@ 0006ad18     UefiShellDebug1CommandsLib:Pci.obj
 0002:0000bd98       ??_C@_1HO@FFMFLOGE@?$AA?5?$AA?5?$AAP?$AAh?$AAy?$AAs?$AAi?$AAc?$AAa?$AAl?$AA?5?$AAS?$AAl?$AAo?$AAt?$AA?5?$AAN?$AAu?$AAm?$AAb?$AAe?$AAr?$AA?$CI?$AA3?$AA1?$AA?3?$AA1?$AA9?$AA?$CJ?$AA?3?$AA?5?$AA?5@ 0006ad98     UefiShellDebug1CommandsLib:Pci.obj
 0002:0000be18       ??_C@_1HO@CHENGLMM@?$AA?5?$AA?5?$AAA?$AAt?$AAt?$AAe?$AAn?$AAt?$AAi?$AAo?$AAn?$AA?5?$AAB?$AAu?$AAt?$AAt?$AAo?$AAn?$AA?5?$AAP?$AAr?$AAe?$AAs?$AAs?$AAe?$AAd?$AA?5?$AAE?$AAn?$AAa?$AAb?$AAl@ 0006ae18     UefiShellDebug1CommandsLib:Pci.obj
 0002:0000be98       ??_C@_1HO@IMMNLBNA@?$AA?5?$AA?5?$AAP?$AAo?$AAw?$AAe?$AAr?$AA?5?$AAF?$AAa?$AAu?$AAl?$AAt?$AA?5?$AAD?$AAe?$AAt?$AAe?$AAc?$AAt?$AAe?$AAd?$AA?5?$AAE?$AAn?$AAa?$AAb?$AAl?$AAe?$AA?$CI?$AA1?$AA?$CJ@ 0006ae98     UefiShellDebug1CommandsLib:Pci.obj
 0002:0000bf18       ??_C@_1HO@OOACDIEJ@?$AA?5?$AA?5?$AAM?$AAR?$AAL?$AA?5?$AAS?$AAe?$AAn?$AAs?$AAo?$AAr?$AA?5?$AAC?$AAh?$AAa?$AAn?$AAg?$AAe?$AAd?$AA?5?$AAE?$AAn?$AAa?$AAb?$AAl?$AAe?$AA?$CI?$AA2?$AA?$CJ?$AA?3?$AA?5@ 0006af18     UefiShellDebug1CommandsLib:Pci.obj
 0002:0000bf98       ??_C@_1HO@NFCLABLC@?$AA?5?$AA?5?$AAP?$AAr?$AAe?$AAs?$AAe?$AAn?$AAc?$AAe?$AA?5?$AAD?$AAe?$AAt?$AAe?$AAc?$AAt?$AA?5?$AAC?$AAh?$AAa?$AAn?$AAg?$AAe?$AAd?$AA?5?$AAE?$AAn?$AAa?$AAb?$AAl?$AAe@ 0006af98     UefiShellDebug1CommandsLib:Pci.obj
 0002:0000c018       ??_C@_1HO@CBGCGHCH@?$AA?5?$AA?5?$AAC?$AAo?$AAm?$AAm?$AAa?$AAn?$AAd?$AA?5?$AAC?$AAo?$AAm?$AAp?$AAl?$AAe?$AAt?$AAe?$AAd?$AA?5?$AAI?$AAn?$AAt?$AAe?$AAr?$AAr?$AAu?$AAp?$AAt?$AA?5?$AAE?$AAn@ 0006b018     UefiShellDebug1CommandsLib:Pci.obj
 0002:0000c098       ??_C@_1HO@OFHDEMPC@?$AA?5?$AA?5?$AAH?$AAo?$AAt?$AA?9?$AAP?$AAl?$AAu?$AAg?$AA?5?$AAI?$AAn?$AAt?$AAe?$AAr?$AAr?$AAu?$AAp?$AAt?$AA?5?$AAE?$AAn?$AAa?$AAb?$AAl?$AAe?$AA?$CI?$AA5?$AA?$CJ?$AA?3?$AA?5@ 0006b098     UefiShellDebug1CommandsLib:Pci.obj
 0002:0000c118       ??_C@_1HO@CBADMLH@?$AA?5?$AA?5?$AAA?$AAt?$AAt?$AAe?$AAn?$AAt?$AAi?$AAo?$AAn?$AA?5?$AAI?$AAn?$AAd?$AAi?$AAc?$AAa?$AAt?$AAo?$AAr?$AA?5?$AAC?$AAo?$AAn?$AAt?$AAr?$AAo?$AAl?$AA?$CI?$AA7?$AA?3@ 0006b118     UefiShellDebug1CommandsLib:Pci.obj
 0002:0000c198       ??_C@_1HO@LPIMLJDE@?$AA?5?$AA?5?$AAP?$AAo?$AAw?$AAe?$AAr?$AA?5?$AAI?$AAn?$AAd?$AAi?$AAc?$AAa?$AAt?$AAo?$AAr?$AA?5?$AAC?$AAo?$AAn?$AAt?$AAr?$AAo?$AAl?$AA?$CI?$AA9?$AA?3?$AA8?$AA?$CJ?$AA?3?$AA?5@ 0006b198     UefiShellDebug1CommandsLib:Pci.obj
 0002:0000c218       ??_C@_1HO@LKCCCMED@?$AA?5?$AA?5?$AAP?$AAo?$AAw?$AAe?$AAr?$AA?5?$AAC?$AAo?$AAn?$AAt?$AAr?$AAo?$AAl?$AAl?$AAe?$AAr?$AA?5?$AAC?$AAo?$AAn?$AAt?$AAr?$AAo?$AAl?$AA?$CI?$AA1?$AA0?$AA?$CJ?$AA?3?$AA?5@ 0006b218     UefiShellDebug1CommandsLib:Pci.obj
 0002:0000c298       ??_C@_1BA@EGOAMDOM@?$AAO?$AAf?$AAf?$AA?$CF?$AAN?$AA?$AN?$AA?6?$AA?$AA@ 0006b298     UefiShellDebug1CommandsLib:Pci.obj
 0002:0000c2a8       ??_C@_1O@LOEKJBNI@?$AAO?$AAn?$AA?$CF?$AAN?$AA?$AN?$AA?6?$AA?$AA@ 0006b2a8     UefiShellDebug1CommandsLib:Pci.obj
 0002:0000c2b8       ??_C@_1HO@LFHFGPOF@?$AA?5?$AA?5?$AAE?$AAl?$AAe?$AAc?$AAt?$AAr?$AAo?$AAm?$AAe?$AAc?$AAh?$AAa?$AAn?$AAi?$AAc?$AAa?$AAl?$AA?5?$AAI?$AAn?$AAt?$AAe?$AAr?$AAl?$AAo?$AAc?$AAk?$AA?5?$AAC?$AAo@ 0006b2b8     UefiShellDebug1CommandsLib:Pci.obj
 0002:0000c338       ??_C@_1HO@PLMJPIOI@?$AA?5?$AA?5?$AAD?$AAa?$AAt?$AAa?$AA?5?$AAL?$AAi?$AAn?$AAk?$AA?5?$AAL?$AAa?$AAy?$AAe?$AAr?$AA?5?$AAS?$AAt?$AAa?$AAt?$AAe?$AA?5?$AAC?$AAh?$AAa?$AAn?$AAg?$AAe?$AAd?$AA?5@ 0006b338     UefiShellDebug1CommandsLib:Pci.obj
 0002:0000c3b8       ??_C@_1GE@ODBNHABI@?$AA?5?$AA?5?$AAA?$AAt?$AAt?$AAe?$AAn?$AAt?$AAi?$AAo?$AAn?$AA?5?$AAB?$AAu?$AAt?$AAt?$AAo?$AAn?$AA?5?$AAP?$AAr?$AAe?$AAs?$AAs?$AAe?$AAd?$AA?$CI?$AA0?$AA?$CJ?$AA?3?$AA?5?$AA?5@ 0006b3b8     UefiShellDebug1CommandsLib:Pci.obj
 0002:0000c420       ??_C@_1GE@DDHGKGBN@?$AA?5?$AA?5?$AAP?$AAo?$AAw?$AAe?$AAr?$AA?5?$AAF?$AAa?$AAu?$AAl?$AAt?$AA?5?$AAD?$AAe?$AAt?$AAe?$AAc?$AAt?$AAe?$AAd?$AA?$CI?$AA1?$AA?$CJ?$AA?3?$AA?5?$AA?5?$AA?5?$AA?5?$AA?5?$AA?5@ 0006b420     UefiShellDebug1CommandsLib:Pci.obj
 0002:0000c488       ??_C@_1GE@MLGNJMHN@?$AA?5?$AA?5?$AAM?$AAR?$AAL?$AA?5?$AAS?$AAe?$AAn?$AAs?$AAo?$AAr?$AA?5?$AAC?$AAh?$AAa?$AAn?$AAg?$AAe?$AAd?$AA?$CI?$AA2?$AA?$CJ?$AA?3?$AA?5?$AA?5?$AA?5?$AA?5?$AA?5?$AA?5?$AA?5?$AA?5@ 0006b488     UefiShellDebug1CommandsLib:Pci.obj
 0002:0000c4f0       ??_C@_1GE@EJGOJMEO@?$AA?5?$AA?5?$AAP?$AAr?$AAe?$AAs?$AAe?$AAn?$AAc?$AAe?$AA?5?$AAD?$AAe?$AAt?$AAe?$AAc?$AAt?$AA?5?$AAC?$AAh?$AAa?$AAn?$AAg?$AAe?$AAd?$AA?$CI?$AA3?$AA?$CJ?$AA?3?$AA?5?$AA?5?$AA?5@ 0006b4f0     UefiShellDebug1CommandsLib:Pci.obj
 0002:0000c558       ??_C@_1GE@MAOPPEGL@?$AA?5?$AA?5?$AAC?$AAo?$AAm?$AAm?$AAa?$AAn?$AAd?$AA?5?$AAC?$AAo?$AAm?$AAp?$AAl?$AAe?$AAt?$AAe?$AAd?$AA?$CI?$AA4?$AA?$CJ?$AA?3?$AA?5?$AA?5?$AA?5?$AA?5?$AA?5?$AA?5?$AA?5?$AA?5?$AA?5@ 0006b558     UefiShellDebug1CommandsLib:Pci.obj
 0002:0000c5c0       ??_C@_1GA@PBCKMNIP@?$AA?5?$AA?5?$AAM?$AAR?$AAL?$AA?5?$AAS?$AAe?$AAn?$AAs?$AAo?$AAr?$AA?5?$AAS?$AAt?$AAa?$AAt?$AAe?$AA?$CI?$AA5?$AA?$CJ?$AA?3?$AA?5?$AA?5?$AA?5?$AA?5?$AA?5?$AA?5?$AA?5?$AA?5?$AA?5?$AA?5@ 0006b5c0     UefiShellDebug1CommandsLib:Pci.obj
 0002:0000c620       ??_C@_1BI@EGGCEED@?$AA?5?$AAO?$AAp?$AAe?$AAn?$AAe?$AAd?$AA?$CF?$AAN?$AA?$AN?$AA?6?$AA?$AA@ 0006b620     UefiShellDebug1CommandsLib:Pci.obj
 0002:0000c638       ??_C@_1BI@CPJMLOMF@?$AA?5?$AAC?$AAl?$AAo?$AAs?$AAe?$AAd?$AA?$CF?$AAN?$AA?$AN?$AA?6?$AA?$AA@ 0006b638     UefiShellDebug1CommandsLib:Pci.obj
 0002:0000c650       ??_C@_1FE@IDHMEKEC@?$AA?5?$AA?5?$AAP?$AAr?$AAe?$AAs?$AAe?$AAn?$AAc?$AAe?$AA?5?$AAD?$AAe?$AAt?$AAe?$AAc?$AAt?$AA?5?$AAS?$AAt?$AAa?$AAt?$AAe?$AA?$CI?$AA6?$AA?$CJ?$AA?3?$AA?5?$AA?5?$AA?5?$AA?5?$AA?5@ 0006b650     UefiShellDebug1CommandsLib:Pci.obj
 0002:0000c6a4       ??_C@_1DG@HDMNCNJO@?$AA?$CF?$AAE?$AAC?$AAa?$AAr?$AAd?$AA?5?$AAP?$AAr?$AAe?$AAs?$AAe?$AAn?$AAt?$AA?5?$AAi?$AAn?$AA?5?$AAs?$AAl?$AAo?$AAt?$AA?$CF?$AAN?$AA?$AN?$AA?6?$AA?$AA@ 0006b6a4     UefiShellDebug1CommandsLib:Pci.obj
 0002:0000c6dc       ??_C@_1CC@JDGBFIHB@?$AA?$CF?$AAE?$AAS?$AAl?$AAo?$AAt?$AA?5?$AAE?$AAm?$AAp?$AAt?$AAy?$AA?$CF?$AAN?$AA?$AN?$AA?6?$AA?$AA@ 0006b6dc     UefiShellDebug1CommandsLib:Pci.obj
 0002:0000c700       ??_C@_1JA@FGMPOLDD@?$AA?5?$AA?5?$AAE?$AAl?$AAe?$AAc?$AAt?$AAr?$AAo?$AAm?$AAe?$AAc?$AAh?$AAa?$AAn?$AAi?$AAc?$AAa?$AAl?$AA?5?$AAI?$AAn?$AAt?$AAe?$AAr?$AAl?$AAo?$AAc?$AAk?$AA?5?$AAS?$AAt@ 0006b700     UefiShellDebug1CommandsLib:Pci.obj
 0002:0000c790       ??_C@_1BI@HMKJPJJJ@?$AAE?$AAn?$AAg?$AAa?$AAg?$AAe?$AAd?$AA?$CF?$AAN?$AA?$AN?$AA?6?$AA?$AA@ 0006b790     UefiShellDebug1CommandsLib:Pci.obj
 0002:0000c7a8       ??_C@_1BO@IMCIBJBI@?$AAD?$AAi?$AAs?$AAe?$AAn?$AAg?$AAa?$AAg?$AAe?$AAd?$AA?$CF?$AAN?$AA?$AN?$AA?6?$AA?$AA@ 0006b7a8     UefiShellDebug1CommandsLib:Pci.obj
 0002:0000c7c8       ??_C@_1GE@IGGKHOAG@?$AA?5?$AA?5?$AAD?$AAa?$AAt?$AAa?$AA?5?$AAL?$AAi?$AAn?$AAk?$AA?5?$AAL?$AAa?$AAy?$AAe?$AAr?$AA?5?$AAS?$AAt?$AAa?$AAt?$AAe?$AA?5?$AAC?$AAh?$AAa?$AAn?$AAg?$AAe?$AAd?$AA?$CI@ 0006b7c8     UefiShellDebug1CommandsLib:Pci.obj
 0002:0000c830       ??_C@_1HC@JBPDHMHJ@?$AA?5?$AA?5?$AAS?$AAy?$AAs?$AAt?$AAe?$AAm?$AA?5?$AAE?$AAr?$AAr?$AAo?$AAr?$AA?5?$AAo?$AAn?$AA?5?$AAC?$AAo?$AAr?$AAr?$AAe?$AAc?$AAt?$AAa?$AAb?$AAl?$AAe?$AA?5?$AAE?$AAr@ 0006b830     UefiShellDebug1CommandsLib:Pci.obj
 0002:0000c8a8       ??_C@_1HC@JLDOKAK@?$AA?5?$AA?5?$AAS?$AAy?$AAs?$AAt?$AAe?$AAm?$AA?5?$AAE?$AAr?$AAr?$AAo?$AAr?$AA?5?$AAo?$AAn?$AA?5?$AAN?$AAo?$AAn?$AA?9?$AAF?$AAa?$AAt?$AAa?$AAl?$AA?5?$AAE?$AAr?$AAr?$AAo@ 0006b8a8     UefiShellDebug1CommandsLib:Pci.obj
 0002:0000c920       ??_C@_1HC@NCFIIDHK@?$AA?5?$AA?5?$AAS?$AAy?$AAs?$AAt?$AAe?$AAm?$AA?5?$AAE?$AAr?$AAr?$AAo?$AAr?$AA?5?$AAo?$AAn?$AA?5?$AAF?$AAa?$AAt?$AAa?$AAl?$AA?5?$AAE?$AAr?$AAr?$AAo?$AAr?$AA?5?$AAE?$AAn@ 0006b920     UefiShellDebug1CommandsLib:Pci.obj
 0002:0000c998       ??_C@_1HC@PBPODCFJ@?$AA?5?$AA?5?$AAP?$AAM?$AAE?$AA?5?$AAI?$AAn?$AAt?$AAe?$AAr?$AAr?$AAu?$AAp?$AAt?$AA?5?$AAE?$AAn?$AAa?$AAb?$AAl?$AAe?$AA?$CI?$AA3?$AA?$CJ?$AA?3?$AA?5?$AA?5?$AA?5?$AA?5?$AA?5?$AA?5@ 0006b998     UefiShellDebug1CommandsLib:Pci.obj
 0002:0000ca10       ??_C@_1HC@JCCDDEEI@?$AA?5?$AA?5?$AAC?$AAR?$AAS?$AA?5?$AAS?$AAo?$AAf?$AAt?$AAw?$AAa?$AAr?$AAe?$AA?5?$AAV?$AAi?$AAs?$AAi?$AAb?$AAi?$AAl?$AAi?$AAt?$AAy?$AA?5?$AAE?$AAn?$AAa?$AAb?$AAl?$AAe@ 0006ba10     UefiShellDebug1CommandsLib:Pci.obj
 0002:0000ca88       ??_C@_1HC@OIKKOENE@?$AA?5?$AA?5?$AAC?$AAR?$AAS?$AA?5?$AAS?$AAo?$AAf?$AAt?$AAw?$AAa?$AAr?$AAe?$AA?5?$AAV?$AAi?$AAs?$AAi?$AAb?$AAi?$AAl?$AAi?$AAt?$AAy?$AA?$CI?$AA0?$AA?$CJ?$AA?3?$AA?5?$AA?5?$AA?5@ 0006ba88     UefiShellDebug1CommandsLib:Pci.obj
 0002:0000cb00       ??_C@_1HK@BNFJOPIN@?$AA?5?$AA?5?$AAP?$AAM?$AAE?$AA?5?$AAR?$AAe?$AAq?$AAu?$AAe?$AAs?$AAt?$AAe?$AAr?$AA?5?$AAI?$AAD?$AA?$CI?$AA1?$AA5?$AA?3?$AA0?$AA?$CJ?$AA?3?$AA?5?$AA?5?$AA?5?$AA?5?$AA?5?$AA?5?$AA?5@ 0006bb00     UefiShellDebug1CommandsLib:Pci.obj
 0002:0000cb80       ??_C@_1HC@JILFODAC@?$AA?5?$AA?5?$AAP?$AAM?$AAE?$AA?5?$AAS?$AAt?$AAa?$AAt?$AAu?$AAs?$AA?$CI?$AA1?$AA6?$AA?$CJ?$AA?3?$AA?5?$AA?5?$AA?5?$AA?5?$AA?5?$AA?5?$AA?5?$AA?5?$AA?5?$AA?5?$AA?5?$AA?5?$AA?5?$AA?5?$AA?5@ 0006bb80     UefiShellDebug1CommandsLib:Pci.obj
 0002:0000cbf8       ??_C@_1HC@BBKGBKAD@?$AA?5?$AA?5?$AAP?$AAM?$AAE?$AA?5?$AAP?$AAe?$AAn?$AAd?$AAi?$AAn?$AAg?$AA?$CI?$AA1?$AA7?$AA?$CJ?$AA?3?$AA?5?$AA?5?$AA?5?$AA?5?$AA?5?$AA?5?$AA?5?$AA?5?$AA?5?$AA?5?$AA?5?$AA?5?$AA?5?$AA?5@ 0006bbf8     UefiShellDebug1CommandsLib:Pci.obj
 0002:0000cc70       ??_C@_1JK@KBMBBAMM@?$AAU?$AAn?$AAk?$AAn?$AAo?$AAw?$AAn?$AA?5?$AAP?$AAC?$AAI?$AAe?$AA?5?$AAe?$AAx?$AAt?$AAe?$AAn?$AAd?$AAe?$AAd?$AA?5?$AAc?$AAa?$AAp?$AAa?$AAb?$AAi?$AAl?$AAi?$AAt?$AAy@ 0006bc70     UefiShellDebug1CommandsLib:Pci.obj
 0002:0000cd10       ??_C@_1FK@DDPMPKMG@?$AA?$AN?$AA?6?$AAP?$AAc?$AAi?$AA?5?$AAE?$AAx?$AAp?$AAr?$AAe?$AAs?$AAs?$AA?5?$AAd?$AAe?$AAv?$AAi?$AAc?$AAe?$AA?5?$AAc?$AAa?$AAp?$AAa?$AAb?$AAi?$AAl?$AAi?$AAt?$AAy?$AA?5@ 0006bd10     UefiShellDebug1CommandsLib:Pci.obj
 0002:0000cd6c       _L0sLatencyStrTable        0006bd6c     UefiShellDebug1CommandsLib:Pci.obj
 0002:0000cd8c       _L1LatencyStrTable         0006bd8c     UefiShellDebug1CommandsLib:Pci.obj
 0002:0000cdac       _DevicePortTypeTable       0006bdac     UefiShellDebug1CommandsLib:Pci.obj
 0002:0000cdd8       _IndicatorTable            0006bdd8     UefiShellDebug1CommandsLib:Pci.obj
 0002:0000cde8       _SlotPwrLmtScaleTable      0006bde8     UefiShellDebug1CommandsLib:Pci.obj
 0002:0000cdf8       _ASPMCtrlStrTable          0006bdf8     UefiShellDebug1CommandsLib:Pci.obj
 0002:0000ce30       ??_C@_1CA@EBDIENLF@?$AA?$CF?$AAs?$AA?3?$AA?5?$AA?$CF?$AAs?$AA?$AN?$AA?6?$AA?5?$AA?5?$AA?$CF?$AA0?$AA8?$AAx?$AA?3?$AA?$AA@ 0006be30     UefiShellDebug1CommandsLib:Comp.obj
 0002:0000ce50       ??_C@_1M@FHJLFHFE@?$AA?5?$AA?$CF?$AA0?$AA2?$AAx?$AA?$AA@ 0006be50     UefiShellDebug1CommandsLib:Comp.obj
 0002:0000ce5c       ??_C@_1M@OCBDMJIC@?$AA?5?$AA?5?$AA?5?$AA?5?$AA?$CK?$AA?$AA@ 0006be5c     UefiShellDebug1CommandsLib:Comp.obj
 0002:0000ce68       ??_C@_17CBEIKNLC@?$AA?$CK?$AA?$AN?$AA?6?$AA?$AA@ 0006be68     UefiShellDebug1CommandsLib:Comp.obj
 0002:0000ce70       ??_C@_0DL@BOEHKMHG@c?3?2edk2?2ShellPkg?2Library?2UefiShe@ 0006be70     UefiShellDebug1CommandsLib:Comp.obj
 0002:0000ceac       ??_C@_0BK@PNCMJJKN@TempParam?5?$CB?$DN?5?$CI?$CIvoid?5?$CK?$CJ?50?$CJ?$AA@ 0006beac     UefiShellDebug1CommandsLib:Comp.obj
 0002:0000cec8       ??_C@_17IIFKAHCJ@?$AAa?$AAl?$AAl?$AA?$AA@ 0006bec8     UefiShellDebug1CommandsLib:Comp.obj
 0002:0000ced0       ??_C@_1M@OBGMLAOD@?$AAF?$AAi?$AAl?$AAe?$AA1?$AA?$AA@ 0006bed0     UefiShellDebug1CommandsLib:Comp.obj
 0002:0000cedc       ??_C@_1M@PDNJBPAN@?$AAF?$AAi?$AAl?$AAe?$AA2?$AA?$AA@ 0006bedc     UefiShellDebug1CommandsLib:Comp.obj
 0002:0000cf08       ??_C@_0EA@JFKBGCOE@c?3?2edk2?2ShellPkg?2Library?2UefiShe@ 0006bf08     UefiShellDebug1CommandsLib:Edit.obj
 0002:0000cf48       ??_C@_1M@CBPNGAOL@?$AA?9?$AAm?$AAm?$AAi?$AAo?$AA?$AA@ 0006bf48     UefiShellDebug1CommandsLib:Dmem.obj
 0002:0000cf54       ??_C@_0DL@ECLPHHA@c?3?2edk2?2ShellPkg?2Library?2UefiShe@ 0006bf54     UefiShellDebug1CommandsLib:Dmem.obj
 0002:0000cfa0       ??_C@_0EB@LCNMDAJE@c?3?2edk2?2ShellPkg?2Library?2UefiShe@ 0006bfa0     UefiShellDebug1CommandsLib:LoadPciRom.obj
 0002:0000cfe4       ??_C@_0L@FFCHGHLE@loadpcirom?$AA@ 0006bfe4     UefiShellDebug1CommandsLib:LoadPciRom.obj
 0002:0000cff0       ??_C@_1O@GODHEIDH@?$AA?$CF?$AAs?$AA?$FL?$AA?$CF?$AAd?$AA?$FN?$AA?$AA@ 0006bff0     UefiShellDebug1CommandsLib:LoadPciRom.obj
 0002:0000d010       ??_C@_0DN@KDOPJILK@c?3?2edk2?2ShellPkg?2Library?2UefiShe@ 0006c010     UefiShellDebug1CommandsLib:MemMap.obj
 0002:0000d050       ??_C@_0N@NCOLDFBP@Version?5?$DN?$DN?51?$AA@ 0006c050     UefiShellDebug1CommandsLib:MemMap.obj
 0002:0000d29c       ??_C@_1M@EOIAFNLN@?$AA?9?$AAg?$AAu?$AAi?$AAd?$AA?$AA@ 0006c29c     UefiShellDebug1CommandsLib:SetVar.obj
 0002:0000d2a8       ??_C@_17MEBIPGDC@?$AA?9?$AAb?$AAs?$AA?$AA@ 0006c2a8     UefiShellDebug1CommandsLib:SetVar.obj
 0002:0000d2b0       ??_C@_17FKBJMMBA@?$AA?9?$AAr?$AAt?$AA?$AA@ 0006c2b0     UefiShellDebug1CommandsLib:SetVar.obj
 0002:0000d2b8       ??_C@_17IEAEMGHL@?$AA?9?$AAn?$AAv?$AA?$AA@ 0006c2b8     UefiShellDebug1CommandsLib:SetVar.obj
 0002:0000d2c0       ??_C@_15KHFHDPFH@?$AA?9?$AA?9?$AA?$AA@ 0006c2c0     UefiShellDebug1CommandsLib:SetVar.obj
 0002:0000d2c8       ??_C@_02DKCKIIND@?$CFs?$AA@ 0006c2c8     UefiShellDebug1CommandsLib:SetVar.obj
 0002:0000d2cc       ??_C@_0BJ@BGGCNBNB@TempData?5?$CB?$DN?5?$CI?$CIvoid?5?$CK?$CJ?50?$CJ?$AA@ 0006c2cc     UefiShellDebug1CommandsLib:SetVar.obj
 0002:0000d2e8       ??_C@_0DN@PGLDOCJH@c?3?2edk2?2ShellPkg?2Library?2UefiShe@ 0006c2e8     UefiShellDebug1CommandsLib:SetVar.obj
 0002:0000d328       ??_C@_1M@OMOAGDNC@?$AA?$CF?$AA0?$AA2?$AAx?$AA?5?$AA?$AA@ 0006c328     UefiShellDebug1CommandsLib:SetVar.obj
 0002:0000d368       ??_C@_17OFPFGFPE@?$AA?$CL?$AAN?$AAV?$AA?$AA@ 0006c368     UefiShellDebug1CommandsLib:DmpStore.obj
 0002:0000d370       ??_C@_1O@PDJDFCIH@?$AA?$CL?$AAR?$AAT?$AA?$CL?$AAB?$AAS?$AA?$AA@ 0006c370     UefiShellDebug1CommandsLib:DmpStore.obj
 0002:0000d380       ??_C@_17KFOJFFLN@?$AA?$CL?$AAB?$AAS?$AA?$AA@ 0006c380     UefiShellDebug1CommandsLib:DmpStore.obj
 0002:0000d388       ??_C@_17LMMOBBLO@?$AA?$CL?$AAH?$AAR?$AA?$AA@ 0006c388     UefiShellDebug1CommandsLib:DmpStore.obj
 0002:0000d390       ??_C@_17KMBPLAEE@?$AA?$CL?$AAA?$AAW?$AA?$AA@ 0006c390     UefiShellDebug1CommandsLib:DmpStore.obj
 0002:0000d398       ??_C@_17LOKKBPKK@?$AA?$CL?$AAA?$AAT?$AA?$AA@ 0006c398     UefiShellDebug1CommandsLib:DmpStore.obj
 0002:0000d3a0       ??_C@_1BA@EOKOFGEP@?$AAI?$AAn?$AAv?$AAa?$AAl?$AAi?$AAd?$AA?$AA@ 0006c3a0     UefiShellDebug1CommandsLib:DmpStore.obj
 0002:0000d3b0       ??_C@_0DP@NPDHCLFK@c?3?2edk2?2ShellPkg?2Library?2UefiShe@ 0006c3b0     UefiShellDebug1CommandsLib:DmpStore.obj
 0002:0000d3f0       ??_C@_0DI@CCDCGIJK@?$CIBufferSize?5?$CK?52?5?$CL?51?$CJ?5?$CK?5sizeof?5?$CIC@ 0006c3f0     UefiShellDebug1CommandsLib:DmpStore.obj
 0002:0000d428       ??_C@_19LEFBDIFG@?$AA?9?$AAa?$AAl?$AAl?$AA?$AA@ 0006c428     UefiShellDebug1CommandsLib:DmpStore.obj
 0002:0000d434       ??_C@_1BC@PGLKLMOO@?$AA?9?$AAl?$AA?5?$AAo?$AAr?$AA?5?$AA?9?$AAs?$AA?$AA@ 0006c434     UefiShellDebug1CommandsLib:DmpStore.obj
 0002:0000d488       ??_C@_0EM@EGEKGOFH@c?3?2edk2?2ShellPkg?2Library?2UefiShe@ 0006c488     UefiShellDebug1CommandsLib:SmbiosView.obj
 0002:0000d4d4       ??_C@_04BPEHKPLM@_SM_?$AA@ 0006c4d4     UefiShellDebug1CommandsLib:SmbiosView.obj
 0002:0000d4e0       ??_C@_1HG@KNFKCNDJ@?$AA?$DN?$AA?$DN?$AA?$DN?$AA?$DN?$AA?$DN?$AA?$DN?$AA?$DN?$AA?$DN?$AA?$DN?$AA?$DN?$AA?$DN?$AA?$DN?$AA?$DN?$AA?$DN?$AA?$DN?$AA?$DN?$AA?$DN?$AA?$DN?$AA?$DN?$AA?$DN?$AA?$DN?$AA?$DN?$AA?$DN?$AA?$DN?$AA?$DN?$AA?$DN?$AA?$DN?$AA?$DN?$AA?$DN?$AA?$DN?$AA?$DN?$AA?$DN@ 0006c4e0     UefiShellDebug1CommandsLib:SmbiosView.obj
 0002:0000d558       ??_C@_15IABLJNFO@?$AA?6?$AA?6?$AA?$AA@ 0006c558     UefiShellDebug1CommandsLib:SmbiosView.obj
 0002:0000d560       ??_C@_1HI@EMMFGAEE@?$AA?6?$AA?$DN?$AA?$DN?$AA?$DN?$AA?$DN?$AA?$DN?$AA?$DN?$AA?$DN?$AA?$DN?$AA?$DN?$AA?$DN?$AA?$DN?$AA?$DN?$AA?$DN?$AA?$DN?$AA?$DN?$AA?$DN?$AA?$DN?$AA?$DN?$AA?$DN?$AA?$DN?$AA?$DN?$AA?$DN?$AA?$DN?$AA?$DN?$AA?$DN?$AA?$DN?$AA?$DN?$AA?$DN?$AA?$DN?$AA?$DN?$AA?$DN@ 0006c560     UefiShellDebug1CommandsLib:SmbiosView.obj
 0002:0000d5d8       ??_C@_05LOCGMLNH@_SM3_?$AA@ 0006c5d8     UefiShellDebug1CommandsLib:SmbiosView.obj
 0002:0000d5e0       ??_C@_1HO@HGFGHOFN@?$AA?6?$AA?$DN?$AA?$DN?$AA?$DN?$AA?$DN?$AA?$DN?$AA?$DN?$AA?$DN?$AA?$DN?$AA?$DN?$AA?$DN?$AA?$DN?$AA?$DN?$AA?$DN?$AA?$DN?$AA?$DN?$AA?$DN?$AA?$DN?$AA?$DN?$AA?$DN?$AA?$DN?$AA?$DN?$AA?$DN?$AA?$DN?$AA?$DN?$AA?$DN?$AA?$DN?$AA?$DN?$AA?$DN?$AA?$DN?$AA?$DN?$AA?$DN@ 0006c5e0     UefiShellDebug1CommandsLib:SmbiosView.obj
 0002:0000d660       ??_C@_1HM@CMIKLHNP@?$AA?$DN?$AA?$DN?$AA?$DN?$AA?$DN?$AA?$DN?$AA?$DN?$AA?$DN?$AA?$DN?$AA?$DN?$AA?$DN?$AA?$DN?$AA?$DN?$AA?$DN?$AA?$DN?$AA?$DN?$AA?$DN?$AA?$DN?$AA?$DN?$AA?$DN?$AA?$DN?$AA?$DN?$AA?$DN?$AA?$DN?$AA?$DN?$AA?$DN?$AA?$DN?$AA?$DN?$AA?$DN?$AA?$DN?$AA?$DN?$AA?$DN?$AA?$DN@ 0006c660     UefiShellDebug1CommandsLib:SmbiosView.obj
 0002:0000d6dc       ??_C@_1BE@GCIKONEG@?$AAS?$AAH?$AAO?$AAW?$AA_?$AAN?$AAO?$AAN?$AAE?$AA?$AA@ 0006c6dc     UefiShellDebug1CommandsLib:SmbiosView.obj
 0002:0000d6f0       ??_C@_1BK@GPGPOAOK@?$AAS?$AAH?$AAO?$AAW?$AA_?$AAO?$AAU?$AAT?$AAL?$AAI?$AAN?$AAE?$AA?$AA@ 0006c6f0     UefiShellDebug1CommandsLib:SmbiosView.obj
 0002:0000d70c       ??_C@_1BI@IGCEHADI@?$AAS?$AAH?$AAO?$AAW?$AA_?$AAN?$AAO?$AAR?$AAM?$AAA?$AAL?$AA?$AA@ 0006c70c     UefiShellDebug1CommandsLib:SmbiosView.obj
 0002:0000d724       ??_C@_1BI@IMGKFKH@?$AAS?$AAH?$AAO?$AAW?$AA_?$AAD?$AAE?$AAT?$AAA?$AAI?$AAL?$AA?$AA@ 0006c724     UefiShellDebug1CommandsLib:SmbiosView.obj
 0002:0000d73c       ??_C@_1BC@OAJPGKLN@?$AAS?$AAH?$AAO?$AAW?$AA_?$AAA?$AAL?$AAL?$AA?$AA@ 0006c73c     UefiShellDebug1CommandsLib:SmbiosView.obj
 0002:0000d750       ??_C@_1BO@MEBFNKNC@?$AAU?$AAn?$AAd?$AAe?$AAf?$AAi?$AAn?$AAe?$AAd?$AA?5?$AAt?$AAy?$AAp?$AAe?$AA?$AA@ 0006c750     UefiShellDebug1CommandsLib:SmbiosView.obj
 0002:0000d798       ??_C@_0EC@PLHFHINJ@c?3?2edk2?2ShellPkg?2Library?2UefiShe@ 0006c798     UefiShellDebug1CommandsLib:EfiCompress.obj
 0002:0000d7dc       ??_C@_1BA@GHOECOCL@?$AAD?$AAe?$AAf?$AAa?$AAu?$AAl?$AAt?$AA?$AA@ 0006c7dc     UefiShellDebug1CommandsLib:SerMode.obj
 0002:0000d7ec       ??_C@_13JGCMLPCH@?$AA1?$AA?$AA@ 0006c7ec     UefiShellDebug1CommandsLib:SerMode.obj
 0002:0000d7f0       ??_C@_13IEJJBAMJ@?$AA2?$AA?$AA@ 0006c7f0     UefiShellDebug1CommandsLib:SerMode.obj
 0002:0000d7f4       ??_C@_17CJOJBPKA@?$AA1?$AA?4?$AA5?$AA?$AA@ 0006c7f4     UefiShellDebug1CommandsLib:SerMode.obj
 0002:0000d7fc       ??_C@_0DO@GCAGIOCP@c?3?2edk2?2ShellPkg?2Library?2UefiShe@ 0006c7fc     UefiShellDebug1CommandsLib:SerMode.obj
 0002:0000d840       ??_C@_0EG@ELKLLOII@c?3?2edk2?2ShellPkg?2Library?2UefiShe@ 0006c840     UefiShellDebug1CommandsLib:HexEdit.obj
 0002:0000d888       ??_C@_17PMBBFJPC@?$AAb?$AAi?$AAn?$AA?$AA@ 0006c888     UefiShellDebug1CommandsLib:HexEdit.obj
 0002:0000d8b0       ??_C@_0DO@JKABKKMF@c?3?2edk2?2ShellPkg?2Library?2UefiShe@ 0006c8b0     UefiShellDebug1CommandsLib:SetSize.obj
 0002:0000d8f0       ??_C@_1FE@DLJCFBIL@?$AA?5?$AA?5?$AAB?$AAl?$AAo?$AAc?$AAk?$AAS?$AAi?$AAz?$AAe?$AA?3?$AA?5?$AA0?$AAx?$AA?$CF?$AA0?$AA8?$AAx?$AA?0?$AA?5?$AAB?$AAl?$AAo?$AAc?$AAk?$AAC?$AAo?$AAu?$AAn?$AAt?$AA?3@ 0006c8f0     UefiShellDebug1CommandsLib:Dblk.obj
 0002:0000d944       ??_C@_1BA@LKDHDFCB@?$AAB?$AAl?$AAo?$AAc?$AAk?$AAI?$AAo?$AA?$AA@ 0006c944     UefiShellDebug1CommandsLib:Dblk.obj
 0002:0000d954       ??_C@_0DL@NNAGHIAI@c?3?2edk2?2ShellPkg?2Library?2UefiShe@ 0006c954     UefiShellDebug1CommandsLib:Dblk.obj
 0002:0000d990       ??_C@_0EE@MFPADEMB@c?3?2edk2?2ShellPkg?2Library?2UefiShe@ 0006c990     UefiShellDebug1CommandsLib:EfiDecompress.obj
 0002:0000d9d4       ??_C@_0BK@KMBEJKOP@Temp64Bit?5?$DM?$DN?5?$CIUINT32?$CJ?$CI?91?$CJ?$AA@ 0006c9d4     UefiShellDebug1CommandsLib:EfiDecompress.obj
 0002:0000d9f0       ??_C@_0DL@CEKPBCPH@c?3?2edk2?2ShellPkg?2Library?2UefiShe@ 0006c9f0     UefiShellDebug1CommandsLib:Mode.obj
 0002:0000da2c       ??_C@_19HMENBLLE@?$AA?9?$AAm?$AAe?$AAm?$AA?$AA@ 0006ca2c     UefiShellDebug1CommandsLib:Mm.obj
 0002:0000da38       ??_C@_17LEBAOONG@?$AA?9?$AAi?$AAo?$AA?$AA@ 0006ca38     UefiShellDebug1CommandsLib:Mm.obj
 0002:0000da40       ??_C@_19MCMIELAE@?$AA?9?$AAp?$AAc?$AAi?$AA?$AA@ 0006ca40     UefiShellDebug1CommandsLib:Mm.obj
 0002:0000da4c       ??_C@_1M@IJJKJIOF@?$AA?9?$AAp?$AAc?$AAi?$AAe?$AA?$AA@ 0006ca4c     UefiShellDebug1CommandsLib:Mm.obj
 0002:0000da58       ??_C@_0CA@PIKCEAPG@PciRootBridgeIo?5?$CB?$DN?5?$CI?$CIvoid?5?$CK?$CJ?50?$CJ?$AA@ 0006ca58     UefiShellDebug1CommandsLib:Mm.obj
 0002:0000da78       ??_C@_0DJ@ONHMOCOC@c?3?2edk2?2ShellPkg?2Library?2UefiShe@ 0006ca78     UefiShellDebug1CommandsLib:Mm.obj
 0002:0000dab4       _mShellMmRootBridgeIoWidth 0006cab4     UefiShellDebug1CommandsLib:Mm.obj
 0002:0000dab4       _mShellMmCpuIoWidth        0006cab4     UefiShellDebug1CommandsLib:Mm.obj
 0002:0000dae0       _mShellMmMaxNumber         0006cae0     UefiShellDebug1CommandsLib:Mm.obj
 0002:0000db28       _mShellMmAccessTypeStr     0006cb28     UefiShellDebug1CommandsLib:Mm.obj
 0002:0000db80       ??_C@_17LBOLAHJL@?$AAt?$AAx?$AAt?$AA?$AA@ 0006cb80     UefiShellDebug1CommandsLib:FileBuffer.obj
 0002:0000db88       ??_C@_0EG@CANJEOFG@c?3?2edk2?2ShellPkg?2Library?2UefiShe@ 0006cb88     UefiShellDebug1CommandsLib:FileBuffer.obj
 0002:0000dbd0       ??_C@_13NOLLCAOD@?$AA?$AA?$AA?$AA@ 0006cbd0     UefiShellDebug1CommandsLib:FileBuffer.obj
 0002:0000dbd4       ??_C@_1BG@BHAMKCMJ@?$AAD?$AAi?$AAs?$AAk?$AA?5?$AAE?$AAr?$AAr?$AAo?$AAr?$AA?$AA@ 0006cbd4     UefiShellDebug1CommandsLib:FileBuffer.obj
 0002:0000dbec       ??_C@_1DI@JJCDHCMP@?$AAD?$AAi?$AAr?$AAe?$AAc?$AAt?$AAo?$AAr?$AAy?$AA?5?$AAC?$AAa?$AAn?$AA?5?$AAN?$AAo?$AAt?$AA?5?$AAB?$AAe?$AA?5?$AAE?$AAd?$AAi?$AAt?$AAe?$AAd?$AA?$AA@ 0006cbec     UefiShellDebug1CommandsLib:FileBuffer.obj
 0002:0000dc24       ??_C@_1BM@HDPINFLL@?$AAA?$AAc?$AAc?$AAe?$AAs?$AAs?$AA?5?$AAD?$AAe?$AAn?$AAi?$AAe?$AAd?$AA?$AA@ 0006cc24     UefiShellDebug1CommandsLib:FileBuffer.obj
 0002:0000dc40       ??_C@_1FO@MJPODDGD@?$AAI?$AAn?$AAv?$AAa?$AAl?$AAi?$AAd?$AA?5?$AAF?$AAi?$AAl?$AAe?$AA?5?$AAN?$AAa?$AAm?$AAe?$AA?5?$AAo?$AAr?$AA?5?$AAC?$AAu?$AAr?$AAr?$AAe?$AAn?$AAt?$AA?9?$AAw?$AAo?$AAr@ 0006cc40     UefiShellDebug1CommandsLib:FileBuffer.obj
 0002:0000dca0       ??_C@_1CC@ECPIEGMO@?$AAR?$AAe?$AAa?$AAd?$AA?5?$AAF?$AAi?$AAl?$AAe?$AA?5?$AAF?$AAa?$AAi?$AAl?$AAe?$AAd?$AA?$AA@ 0006cca0     UefiShellDebug1CommandsLib:FileBuffer.obj
 0002:0000dcc4       ??_C@_1CE@MDDOMDFD@?$AAF?$AAi?$AAl?$AAe?$AA?5?$AAF?$AAo?$AAr?$AAm?$AAa?$AAt?$AA?5?$AAW?$AAr?$AAo?$AAn?$AAg?$AA?$AA@ 0006ccc4     UefiShellDebug1CommandsLib:FileBuffer.obj
 0002:0000dce8       ??_C@_1BM@EIMMJFOI@?$AA?$CF?$AAd?$AA?5?$AAL?$AAi?$AAn?$AAe?$AAs?$AA?5?$AAR?$AAe?$AAa?$AAd?$AA?$AA@ 0006cce8     UefiShellDebug1CommandsLib:FileBuffer.obj
 0002:0000dd08       ??_C@_1EA@KMGLANCH@?$AAR?$AAe?$AAa?$AAd?$AA?5?$AAO?$AAn?$AAl?$AAy?$AA?5?$AAF?$AAi?$AAl?$AAe?$AA?5?$AAC?$AAa?$AAn?$AA?5?$AAN?$AAo?$AAt?$AA?5?$AAB?$AAe?$AA?5?$AAS?$AAa?$AAv?$AAe?$AAd?$AA?$AA@ 0006cd08     UefiShellDebug1CommandsLib:FileBuffer.obj
 0002:0000dd48       ??_C@_1DG@JNGOCPNM@?$AAD?$AAi?$AAr?$AAe?$AAc?$AAt?$AAo?$AAr?$AAy?$AA?5?$AAC?$AAa?$AAn?$AA?5?$AAN?$AAo?$AAt?$AA?5?$AAB?$AAe?$AA?5?$AAS?$AAa?$AAv?$AAe?$AAd?$AA?$AA@ 0006cd48     UefiShellDebug1CommandsLib:FileBuffer.obj
 0002:0000dd80       ??_C@_1CE@ICGBOPPJ@?$AAW?$AAr?$AAi?$AAt?$AAe?$AA?5?$AAF?$AAi?$AAl?$AAe?$AA?5?$AAF?$AAa?$AAi?$AAl?$AAe?$AAd?$AA?$AA@ 0006cd80     UefiShellDebug1CommandsLib:FileBuffer.obj
 0002:0000dda4       ??_C@_1CG@LGANFAB@?$AAC?$AAr?$AAe?$AAa?$AAt?$AAe?$AA?5?$AAF?$AAi?$AAl?$AAe?$AA?5?$AAF?$AAa?$AAi?$AAl?$AAe?$AAd?$AA?$AA@ 0006cda4     UefiShellDebug1CommandsLib:FileBuffer.obj
 0002:0000ddcc       ??_C@_1BO@FBLHKMPK@?$AA?$CF?$AAd?$AA?5?$AAL?$AAi?$AAn?$AAe?$AAs?$AA?5?$AAW?$AAr?$AAo?$AAt?$AAe?$AA?$AA@ 0006cdcc     UefiShellDebug1CommandsLib:FileBuffer.obj
 0002:0000ddec       ??_C@_1CA@DIEHGKLA@?$AAU?$AAn?$AAk?$AAn?$AAo?$AAw?$AAn?$AA?5?$AAC?$AAo?$AAm?$AAm?$AAa?$AAn?$AAd?$AA?$AA@ 0006cdec     UefiShellDebug1CommandsLib:FileBuffer.obj
 0002:0000de10       ??_C@_1EG@GMIKLNFD@?$AAR?$AAe?$AAa?$AAd?$AA?5?$AAO?$AAn?$AAl?$AAy?$AA?5?$AAF?$AAi?$AAl?$AAe?$AA?5?$AAC?$AAa?$AAn?$AA?5?$AAN?$AAo?$AAt?$AA?5?$AAB?$AAe?$AA?5?$AAM?$AAo?$AAd?$AAi?$AAf?$AAi@ 0006ce10     UefiShellDebug1CommandsLib:FileBuffer.obj
 0002:0000de58       ??_C@_1BO@PAMCONJL@?$AAN?$AAo?$AAt?$AAh?$AAi?$AAn?$AAg?$AA?5?$AAt?$AAo?$AA?5?$AAC?$AAu?$AAt?$AA?$AA@ 0006ce58     UefiShellDebug1CommandsLib:FileBuffer.obj
 0002:0000de78       ??_C@_0BI@LLPNPOOB@ReplaceLen?5?$DN?$DN?5SearchLen?$AA@ 0006ce78     UefiShellDebug1CommandsLib:FileBuffer.obj
 0002:0000de90       ??_C@_1EO@GOADCGFO@?$AAF?$AAi?$AAl?$AAe?$AA?5?$AAm?$AAo?$AAd?$AAi?$AAf?$AAi?$AAe?$AAd?$AA?4?$AA?5?$AAS?$AAa?$AAv?$AAe?$AA?5?$AA?$CI?$AAY?$AAe?$AAs?$AA?1?$AAN?$AAo?$AA?1?$AAC?$AAa?$AAn?$AAc@ 0006ce90     UefiShellDebug1CommandsLib:MainTextEditor.obj
 0002:0000dee0       ??_C@_1CI@PPPODMPB@?$AAF?$AAi?$AAl?$AAe?$AA?5?$AAN?$AAa?$AAm?$AAe?$AA?5?$AAt?$AAo?$AA?5?$AAO?$AAp?$AAe?$AAn?$AA?3?$AA?5?$AA?$AA@ 0006cee0     UefiShellDebug1CommandsLib:MainTextEditor.obj
 0002:0000df08       ??_C@_1CE@PAJDEKJB@?$AAI?$AAn?$AAv?$AAa?$AAl?$AAi?$AAd?$AA?5?$AAF?$AAi?$AAl?$AAe?$AA?5?$AAN?$AAa?$AAm?$AAe?$AA?$AA@ 0006cf08     UefiShellDebug1CommandsLib:MainTextEditor.obj
 0002:0000df2c       ??_C@_1CC@MLNBOFNI@?$AAN?$AAo?$AA?5?$AAL?$AAi?$AAn?$AAe?$AA?5?$AAt?$AAo?$AA?5?$AAP?$AAa?$AAs?$AAt?$AAe?$AA?$AA@ 0006cf2c     UefiShellDebug1CommandsLib:MainTextEditor.obj
 0002:0000df50       ??_C@_1CM@DJMHEHIN@?$AAE?$AAn?$AAt?$AAe?$AAr?$AA?5?$AAS?$AAe?$AAa?$AAr?$AAc?$AAh?$AA?5?$AAS?$AAt?$AAr?$AAi?$AAn?$AAg?$AA?3?$AA?5?$AA?$AA@ 0006cf50     UefiShellDebug1CommandsLib:MainTextEditor.obj
 0002:0000df7c       ??_C@_1CK@IKKEFLKO@?$AAF?$AAi?$AAn?$AAd?$AA?5?$AAN?$AAe?$AAx?$AAt?$AA?5?$AA?$CI?$AAY?$AAe?$AAs?$AA?1?$AAN?$AAo?$AA?$CJ?$AA?5?$AA?$DP?$AA?$AA@ 0006cf7c     UefiShellDebug1CommandsLib:MainTextEditor.obj
 0002:0000dfa8       ??_C@_1DA@GANIGBBH@?$AAS?$AAe?$AAa?$AAr?$AAc?$AAh?$AA?5?$AAS?$AAt?$AAr?$AAi?$AAn?$AAg?$AA?5?$AAN?$AAo?$AAt?$AA?5?$AAF?$AAo?$AAu?$AAn?$AAd?$AA?$AA@ 0006cfa8     UefiShellDebug1CommandsLib:MainTextEditor.obj
 0002:0000dfd8       ??_C@_1BO@POPBJCFI@?$AAR?$AAe?$AAp?$AAl?$AAa?$AAc?$AAe?$AA?5?$AAW?$AAi?$AAt?$AAh?$AA?3?$AA?5?$AA?$AA@ 0006cfd8     UefiShellDebug1CommandsLib:MainTextEditor.obj
 0002:0000dff8       ??_C@_1DM@FAGODAPI@?$AAR?$AAe?$AAp?$AAl?$AAa?$AAc?$AAe?$AA?5?$AA?$CI?$AAY?$AAe?$AAs?$AA?1?$AAN?$AAo?$AA?1?$AAA?$AAl?$AAl?$AA?1?$AAC?$AAa?$AAn?$AAc?$AAe?$AAl?$AA?$CJ?$AA?5?$AA?$DP?$AA?$AA@ 0006cff8     UefiShellDebug1CommandsLib:MainTextEditor.obj
 0002:0000e034       ??_C@_1BK@OOJDBGIO@?$AAG?$AAo?$AA?5?$AAT?$AAo?$AA?5?$AAL?$AAi?$AAn?$AAe?$AA?3?$AA?5?$AA?$AA@ 0006d034     UefiShellDebug1CommandsLib:MainTextEditor.obj
 0002:0000e050       ??_C@_1BK@NIKDLOEH@?$AAN?$AAo?$AA?5?$AAS?$AAu?$AAc?$AAh?$AA?5?$AAL?$AAi?$AAn?$AAe?$AA?$AA@ 0006d050     UefiShellDebug1CommandsLib:MainTextEditor.obj
 0002:0000e06c       ??_C@_1CG@NJHNCLOJ@?$AAF?$AAi?$AAl?$AAe?$AA?5?$AAt?$AAo?$AA?5?$AAS?$AAa?$AAv?$AAe?$AA?3?$AA?5?$AA?$FL?$AA?$CF?$AAs?$AA?$FN?$AA?$AA@ 0006d06c     UefiShellDebug1CommandsLib:MainTextEditor.obj
 0002:0000e094       ??_C@_1BI@NDMBEGJD@?$AAO?$AAp?$AAe?$AAn?$AA?5?$AAF?$AAa?$AAi?$AAl?$AAe?$AAd?$AA?$AA@ 0006d094     UefiShellDebug1CommandsLib:MainTextEditor.obj
 0002:0000e0ac       ??_C@_1DE@JKIEKFMF@?$AAA?$AAc?$AAc?$AAe?$AAs?$AAs?$AA?5?$AAD?$AAe?$AAn?$AAi?$AAe?$AAd?$AA?5?$AA?9?$AA?5?$AAR?$AAe?$AAa?$AAd?$AA?5?$AAO?$AAn?$AAl?$AAy?$AA?$AA@ 0006d0ac     UefiShellDebug1CommandsLib:MainTextEditor.obj
 0002:0000e0e0       ??_C@_1FE@GJKODLCN@?$AAF?$AAi?$AAl?$AAe?$AA?5?$AAe?$AAx?$AAi?$AAs?$AAt?$AAs?$AA?4?$AA?5?$AAO?$AAv?$AAe?$AAr?$AAw?$AAr?$AAi?$AAt?$AAe?$AA?5?$AA?$CI?$AAY?$AAe?$AAs?$AA?1?$AAN?$AAo?$AA?1?$AAC@ 0006d0e0     UefiShellDebug1CommandsLib:MainTextEditor.obj
 0002:0000e134       ??_C@_1O@GIECLFAB@?$AA?$CF?$AAE?$AA?$CF?$AAs?$AA?$CF?$AAN?$AA?$AA@ 0006d134     UefiShellDebug1CommandsLib:MainTextEditor.obj
 0002:0000e144       ??_C@_1BE@GDKECBCM@?$AAU?$AAE?$AAF?$AAI?$AA?5?$AAE?$AAD?$AAI?$AAT?$AA?$AA@ 0006d144     UefiShellDebug1CommandsLib:MainTextEditor.obj
 0002:0000e158       ??_C@_0EK@IDPMJCCE@c?3?2edk2?2ShellPkg?2Library?2UefiShe@ 0006d158     UefiShellDebug1CommandsLib:MainTextEditor.obj
 0002:0000e1a4       ??_C@_1DA@GGLHBKOP@?$AAI?$AAn?$AAv?$AAa?$AAl?$AAi?$AAd?$AA?5?$AAM?$AAo?$AAu?$AAs?$AAe?$AA?5?$AAM?$AAo?$AAv?$AAe?$AAm?$AAe?$AAn?$AAt?$AA?5?$AA?$AA@ 0006d1a4     UefiShellDebug1CommandsLib:MainTextEditor.obj
 0002:0000e1d4       ??_C@_1CM@BMOMFGJM@?$AAD?$AAi?$AAs?$AAk?$AA?5?$AAE?$AAr?$AAr?$AAo?$AAr?$AA?4?$AA?5?$AAT?$AAr?$AAy?$AA?5?$AAA?$AAg?$AAa?$AAi?$AAn?$AA?$AA@ 0006d1d4     UefiShellDebug1CommandsLib:MainTextEditor.obj
 0002:0000e200       _MainMenuHelpInfo          0006d200     UefiShellDebug1CommandsLib:MainTextEditor.obj
 0002:0000e230       ??_C@_1CA@EIJGJGPK@?$AA?5?$AA?$CF?$AAd?$AA?0?$AA?$CF?$AAd?$AA?5?$AA?5?$AA?5?$AA?5?$AA?5?$AA?5?$AA?5?$AA?$CF?$AAs?$AA?$AA@ 0006d230     UefiShellDebug1CommandsLib:EditStatusBar.obj
 0002:0000e250       ??_C@_19IELFGNPI@?$AA?5?$AA?5?$AA?$CF?$AAs?$AA?$AA@ 0006d250     UefiShellDebug1CommandsLib:EditStatusBar.obj
 0002:0000e25c       ??_C@_17EAOFDCAA@?$AAI?$AAN?$AAS?$AA?$AA@ 0006d25c     UefiShellDebug1CommandsLib:EditStatusBar.obj
 0002:0000e264       ??_C@_1CI@GJADLICD@?$AA?$HM?$AA?$CF?$AAs?$AA?$HM?$AA?5?$AA?5?$AA?5?$AAH?$AAe?$AAl?$AAp?$AA?3?$AA?5?$AAC?$AAt?$AAr?$AAl?$AA?9?$AAE?$AA?$AA@ 0006d264     UefiShellDebug1CommandsLib:EditStatusBar.obj
 0002:0000e28c       ??_C@_17NBLDNMBE@?$AAO?$AAV?$AAR?$AA?$AA@ 0006d28c     UefiShellDebug1CommandsLib:EditStatusBar.obj
 0002:0000e294       ??_C@_06LGGLFMPE@Vendor?$AA@ 0006d294     UefiShellDebug1CommandsLib:PrintInfo.obj
 0002:0000e29c       ??_C@_1M@CIOKLEIM@?$AA?3?$AA?5?$AA?$CF?$AAa?$AA?6?$AA?$AA@ 0006d29c     UefiShellDebug1CommandsLib:PrintInfo.obj
 0002:0000e2a8       ??_C@_0M@NGKNMFME@BiosVersion?$AA@ 0006d2a8     UefiShellDebug1CommandsLib:PrintInfo.obj
 0002:0000e2b4       ??_C@_0M@OJLPFODP@BiosSegment?$AA@ 0006d2b4     UefiShellDebug1CommandsLib:PrintInfo.obj
 0002:0000e2c0       ??_C@_1BA@BDGGMDCP@?$AA?3?$AA?5?$AA0?$AAx?$AA?$CF?$AAx?$AA?6?$AA?$AA@ 0006d2c0     UefiShellDebug1CommandsLib:PrintInfo.obj
 0002:0000e2d0       ??_C@_0BA@IDCOAFCN@BiosReleaseDate?$AA@ 0006d2d0     UefiShellDebug1CommandsLib:PrintInfo.obj
 0002:0000e2e0       ??_C@_0BH@OMHHCIEH@SystemBiosMajorRelease?$AA@ 0006d2e0     UefiShellDebug1CommandsLib:PrintInfo.obj
 0002:0000e2f8       ??_C@_1M@HICHCFDP@?$AA?3?$AA?5?$AA?$CF?$AAd?$AA?6?$AA?$AA@ 0006d2f8     UefiShellDebug1CommandsLib:PrintInfo.obj
 0002:0000e304       ??_C@_0BH@FKKCCNDL@SystemBiosMinorRelease?$AA@ 0006d304     UefiShellDebug1CommandsLib:PrintInfo.obj
 0002:0000e31c       ??_C@_0CH@PEBDPMPA@EmbeddedControllerFirmwareMajorR@ 0006d31c     UefiShellDebug1CommandsLib:PrintInfo.obj
 0002:0000e344       ??_C@_0CH@ECMGPJIM@EmbeddedControllerFirmwareMinorR@ 0006d344     UefiShellDebug1CommandsLib:PrintInfo.obj
 0002:0000e36c       ??_C@_15MMOGNHFI@?$AAM?$AAB?$AA?$AA@ 0006d36c     UefiShellDebug1CommandsLib:PrintInfo.obj
 0002:0000e374       ??_C@_15GNHNPEDO@?$AAG?$AAB?$AA?$AA@ 0006d374     UefiShellDebug1CommandsLib:PrintInfo.obj
 0002:0000e37c       ??_C@_0N@BBNLMPJO@Manufacturer?$AA@ 0006d37c     UefiShellDebug1CommandsLib:PrintInfo.obj
 0002:0000e38c       ??_C@_0M@MNPNDAHP@ProductName?$AA@ 0006d38c     UefiShellDebug1CommandsLib:PrintInfo.obj
 0002:0000e398       ??_C@_07NGFJPNPN@Version?$AA@ 0006d398     UefiShellDebug1CommandsLib:PrintInfo.obj
 0002:0000e3a0       ??_C@_0N@FPJJBBNM@SerialNumber?$AA@ 0006d3a0     UefiShellDebug1CommandsLib:PrintInfo.obj
 0002:0000e3b0       ??_C@_04NDFIEGPL@Uuid?$AA@ 0006d3b0     UefiShellDebug1CommandsLib:PrintInfo.obj
 0002:0000e3b8       ??_C@_09ODBEMGCH@SKUNumber?$AA@ 0006d3b8     UefiShellDebug1CommandsLib:PrintInfo.obj
 0002:0000e3c4       ??_C@_06BOFMEHLD@Family?$AA@ 0006d3c4     UefiShellDebug1CommandsLib:PrintInfo.obj
 0002:0000e3cc       ??_C@_08FMONLMLE@AssetTag?$AA@ 0006d3cc     UefiShellDebug1CommandsLib:PrintInfo.obj
 0002:0000e3d8       ??_C@_0BC@OMHLHKAK@LocationInChassis?$AA@ 0006d3d8     UefiShellDebug1CommandsLib:PrintInfo.obj
 0002:0000e3ec       ??_C@_0O@CDHHDFJM@ChassisHandle?$AA@ 0006d3ec     UefiShellDebug1CommandsLib:PrintInfo.obj
 0002:0000e3fc       ??_C@_04KOACHJEN@Type?$AA@ 0006d3fc     UefiShellDebug1CommandsLib:PrintInfo.obj
 0002:0000e404       ??_C@_0L@OBIIHLIL@OemDefined?$AA@ 0006d404     UefiShellDebug1CommandsLib:PrintInfo.obj
 0002:0000e410       ??_C@_06HCAKHJJK@Height?$AA@ 0006d410     UefiShellDebug1CommandsLib:PrintInfo.obj
 0002:0000e418       ??_C@_0BD@KNMGNFOC@NumberofPowerCords?$AA@ 0006d418     UefiShellDebug1CommandsLib:PrintInfo.obj
 0002:0000e42c       ??_C@_0BC@GCIFEBIL@SocketDesignation?$AA@ 0006d42c     UefiShellDebug1CommandsLib:PrintInfo.obj
 0002:0000e440       ??_C@_0BF@KHGMEEOK@ProcessorManufacture?$AA@ 0006d440     UefiShellDebug1CommandsLib:PrintInfo.obj
 0002:0000e458       ??_C@_0M@DHKOOBFD@ProcessorId?$AA@ 0006d458     UefiShellDebug1CommandsLib:PrintInfo.obj
 0002:0000e464       ??_C@_0BB@FHDOCPED@ProcessorVersion?$AA@ 0006d464     UefiShellDebug1CommandsLib:PrintInfo.obj
 0002:0000e478       ??_C@_0O@EBPPHLFF@ExternalClock?$AA@ 0006d478     UefiShellDebug1CommandsLib:PrintInfo.obj
 0002:0000e488       ??_C@_08MFFAALKH@MaxSpeed?$AA@ 0006d488     UefiShellDebug1CommandsLib:PrintInfo.obj
 0002:0000e494       ??_C@_0N@ODNILEPO@CurrentSpeed?$AA@ 0006d494     UefiShellDebug1CommandsLib:PrintInfo.obj
 0002:0000e4a4       ??_C@_0O@HDGNCJJJ@L1CacheHandle?$AA@ 0006d4a4     UefiShellDebug1CommandsLib:PrintInfo.obj
 0002:0000e4b4       ??_C@_0O@MOKHEFFH@L2CacheHandle?$AA@ 0006d4b4     UefiShellDebug1CommandsLib:PrintInfo.obj
 0002:0000e4c4       ??_C@_0O@BDDBJMNC@L3CacheHandle?$AA@ 0006d4c4     UefiShellDebug1CommandsLib:PrintInfo.obj
 0002:0000e4d4       ??_C@_0L@MIOPIENN@PartNumber?$AA@ 0006d4d4     UefiShellDebug1CommandsLib:PrintInfo.obj
 0002:0000e4e0       ??_C@_09BKIMACNI@CoreCount?$AA@ 0006d4e0     UefiShellDebug1CommandsLib:PrintInfo.obj
 0002:0000e4ec       ??_C@_0BB@NCABCBMP@EnabledCoreCount?$AA@ 0006d4ec     UefiShellDebug1CommandsLib:PrintInfo.obj
 0002:0000e500       ??_C@_0M@BBOFOECL@ThreadCount?$AA@ 0006d500     UefiShellDebug1CommandsLib:PrintInfo.obj
 0002:0000e50c       ??_C@_0L@GFGCICJF@CoreCount2?$AA@ 0006d50c     UefiShellDebug1CommandsLib:PrintInfo.obj
 0002:0000e518       ??_C@_0BC@OGHJIKHB@EnabledCoreCount2?$AA@ 0006d518     UefiShellDebug1CommandsLib:PrintInfo.obj
 0002:0000e52c       ??_C@_0N@EBNNEINF@ThreadCount2?$AA@ 0006d52c     UefiShellDebug1CommandsLib:PrintInfo.obj
 0002:0000e53c       ??_C@_0BI@HCBPJEAD@AssociatedMemorySlotNum?$AA@ 0006d53c     UefiShellDebug1CommandsLib:PrintInfo.obj
 0002:0000e554       ??_C@_0BB@JDAJEIIK@MaximumCacheSize?$AA@ 0006d554     UefiShellDebug1CommandsLib:PrintInfo.obj
 0002:0000e568       ??_C@_0O@BJDNNDOA@InstalledSize?$AA@ 0006d568     UefiShellDebug1CommandsLib:PrintInfo.obj
 0002:0000e578       ??_C@_0BC@OLPHMDNB@SupportedSRAMType?$AA@ 0006d578     UefiShellDebug1CommandsLib:PrintInfo.obj
 0002:0000e58c       ??_C@_0BA@CHMIDALO@CurrentSRAMType?$AA@ 0006d58c     UefiShellDebug1CommandsLib:PrintInfo.obj
 0002:0000e59c       ??_C@_0L@GKCEABFB@CacheSpeed?$AA@ 0006d59c     UefiShellDebug1CommandsLib:PrintInfo.obj
 0002:0000e5a8       ??_C@_0BC@OAIODHAH@MaximumCacheSize2?$AA@ 0006d5a8     UefiShellDebug1CommandsLib:PrintInfo.obj
 0002:0000e5bc       ??_C@_0P@ENGDILNK@InstalledSize2?$AA@ 0006d5bc     UefiShellDebug1CommandsLib:PrintInfo.obj
 0002:0000e5cc       ??_C@_0BM@JBGCGAG@InternalReferenceDesignator?$AA@ 0006d5cc     UefiShellDebug1CommandsLib:PrintInfo.obj
 0002:0000e5e8       ??_C@_1BE@ELLAGAB@?$AAI?$AAn?$AAt?$AAe?$AAr?$AAn?$AAa?$AAl?$AA?5?$AA?$AA@ 0006d5e8     UefiShellDebug1CommandsLib:PrintInfo.obj
 0002:0000e5fc       ??_C@_0BM@OAEDMMAI@ExternalReferenceDesignator?$AA@ 0006d5fc     UefiShellDebug1CommandsLib:PrintInfo.obj
 0002:0000e618       ??_C@_0BA@JKMEMADA@SlotDesignation?$AA@ 0006d618     UefiShellDebug1CommandsLib:PrintInfo.obj
 0002:0000e628       ??_C@_0BA@BMLFAHJE@SegmentGroupNum?$AA@ 0006d628     UefiShellDebug1CommandsLib:PrintInfo.obj
 0002:0000e638       ??_C@_06KNDINCOD@BusNum?$AA@ 0006d638     UefiShellDebug1CommandsLib:PrintInfo.obj
 0002:0000e640       ??_C@_0L@CPCJGBL@DevFuncNum?$AA@ 0006d640     UefiShellDebug1CommandsLib:PrintInfo.obj
 0002:0000e64c       ??_C@_1CA@MEEPCHDM@?$AAD?$AAe?$AAv?$AAi?$AAc?$AAe?$AA?5?$AAE?$AAn?$AAa?$AAb?$AAl?$AAe?$AAd?$AA?6?$AA?$AA@ 0006d64c     UefiShellDebug1CommandsLib:PrintInfo.obj
 0002:0000e66c       ??_C@_1CC@MLJLHBNL@?$AAD?$AAe?$AAv?$AAi?$AAc?$AAe?$AA?5?$AAD?$AAi?$AAs?$AAa?$AAb?$AAl?$AAe?$AAd?$AA?6?$AA?$AA@ 0006d66c     UefiShellDebug1CommandsLib:PrintInfo.obj
 0002:0000e690       ??_C@_17IHFOHADP@?$AA?$CF?$AAa?$AA?6?$AA?$AA@ 0006d690     UefiShellDebug1CommandsLib:PrintInfo.obj
 0002:0000e698       ??_C@_0M@MPGNKAIN@StringCount?$AA@ 0006d698     UefiShellDebug1CommandsLib:PrintInfo.obj
 0002:0000e6a4       ??_C@_0BF@JGHHIKJK@InstallableLanguages?$AA@ 0006d6a4     UefiShellDebug1CommandsLib:PrintInfo.obj
 0002:0000e6bc       ??_C@_05BOOEKJH@Flags?$AA@ 0006d6bc     UefiShellDebug1CommandsLib:PrintInfo.obj
 0002:0000e6c4       ??_C@_08NKCLJDKG@Reserved?$AA@ 0006d6c4     UefiShellDebug1CommandsLib:PrintInfo.obj
 0002:0000e6d0       ??_C@_0BB@PDMACJCC@CurrentLanguages?$AA@ 0006d6d0     UefiShellDebug1CommandsLib:PrintInfo.obj
 0002:0000e6e4       ??_C@_09DOCDJBIG@GroupName?$AA@ 0006d6e4     UefiShellDebug1CommandsLib:PrintInfo.obj
 0002:0000e6f0       ??_C@_1CC@LDOFIMEA@?$AAI?$AAt?$AAe?$AAm?$AAT?$AAy?$AAp?$AAe?$AA?5?$AA?$CF?$AAd?$AA?3?$AA?5?$AA?$CF?$AAd?$AA?6?$AA?$AA@ 0006d6f0     UefiShellDebug1CommandsLib:PrintInfo.obj
 0002:0000e714       ??_C@_1CG@ECMJLOHD@?$AAI?$AAt?$AAe?$AAm?$AAH?$AAa?$AAn?$AAd?$AAl?$AAe?$AA?5?$AA?$CF?$AAd?$AA?3?$AA?5?$AA?$CF?$AAd?$AA?6?$AA?$AA@ 0006d714     UefiShellDebug1CommandsLib:PrintInfo.obj
 0002:0000e73c       ??_C@_0O@HKDDDLBN@LogAreaLength?$AA@ 0006d73c     UefiShellDebug1CommandsLib:PrintInfo.obj
 0002:0000e74c       ??_C@_0BF@GDDPPJHL@LogHeaderStartOffset?$AA@ 0006d74c     UefiShellDebug1CommandsLib:PrintInfo.obj
 0002:0000e764       ??_C@_0BD@CAPEPFNK@LogDataStartOffset?$AA@ 0006d764     UefiShellDebug1CommandsLib:PrintInfo.obj
 0002:0000e778       ??_C@_0BE@NOKFPJBG@AccessMethodAddress?$AA@ 0006d778     UefiShellDebug1CommandsLib:PrintInfo.obj
 0002:0000e78c       ??_C@_0P@NPBNLBCA@LogChangeToken?$AA@ 0006d78c     UefiShellDebug1CommandsLib:PrintInfo.obj
 0002:0000e79c       ??_C@_0CE@KLHOMLO@NumberOfSupportedLogTypeDescript@ 0006d79c     UefiShellDebug1CommandsLib:PrintInfo.obj
 0002:0000e7c0       ??_C@_0BK@HHOAKNBO@LengthOfLogTypeDescriptor?$AA@ 0006d7c0     UefiShellDebug1CommandsLib:PrintInfo.obj
 0002:0000e7dc       ??_C@_0BA@GDFDNLEE@MaximumCapacity?$AA@ 0006d7dc     UefiShellDebug1CommandsLib:PrintInfo.obj
 0002:0000e7ec       ??_C@_0BN@JFCNOMK@MemoryErrorInformationHandle?$AA@ 0006d7ec     UefiShellDebug1CommandsLib:PrintInfo.obj
 0002:0000e80c       ??_C@_0BG@GGCPJPGF@NumberOfMemoryDevices?$AA@ 0006d80c     UefiShellDebug1CommandsLib:PrintInfo.obj
 0002:0000e824       ??_C@_0BI@KHLPJKF@ExtendedMaximumCapacity?$AA@ 0006d824     UefiShellDebug1CommandsLib:PrintInfo.obj
 0002:0000e83c       ??_C@_1BC@MBNHMLHO@?$AA?3?$AA?5?$AA0?$AAx?$AA?$CF?$AAl?$AAx?$AA?6?$AA?$AA@ 0006d83c     UefiShellDebug1CommandsLib:PrintInfo.obj
 0002:0000e850       ??_C@_0BC@DOCKMFPE@MemoryArrayHandle?$AA@ 0006d850     UefiShellDebug1CommandsLib:PrintInfo.obj
 0002:0000e864       ??_C@_0L@EONKMHCB@TotalWidth?$AA@ 0006d864     UefiShellDebug1CommandsLib:PrintInfo.obj
 0002:0000e870       ??_C@_09KNGBBIL@DataWidth?$AA@ 0006d870     UefiShellDebug1CommandsLib:PrintInfo.obj
 0002:0000e87c       ??_C@_04EBKMHHBE@Size?$AA@ 0006d87c     UefiShellDebug1CommandsLib:PrintInfo.obj
 0002:0000e884       ??_C@_09OKIEPFCF@DeviceSet?$AA@ 0006d884     UefiShellDebug1CommandsLib:PrintInfo.obj
 0002:0000e890       ??_C@_0O@DKGGAIKL@DeviceLocator?$AA@ 0006d890     UefiShellDebug1CommandsLib:PrintInfo.obj
 0002:0000e8a0       ??_C@_0M@ELBBBKLI@BankLocator?$AA@ 0006d8a0     UefiShellDebug1CommandsLib:PrintInfo.obj
 0002:0000e8ac       ??_C@_05HOIAGEJD@Speed?$AA@ 0006d8ac     UefiShellDebug1CommandsLib:PrintInfo.obj
 0002:0000e8b4       ??_C@_0L@PLFFHFAH@Attributes?$AA@ 0006d8b4     UefiShellDebug1CommandsLib:PrintInfo.obj
 0002:0000e8c0       ??_C@_0N@PJMACHAF@ExtendedSize?$AA@ 0006d8c0     UefiShellDebug1CommandsLib:PrintInfo.obj
 0002:0000e8d0       ??_C@_0BL@FPMIIFKD@ConfiguredMemoryClockSpeed?$AA@ 0006d8d0     UefiShellDebug1CommandsLib:PrintInfo.obj
 0002:0000e8ec       ??_C@_0P@BAOLGLCF@MinimumVoltage?$AA@ 0006d8ec     UefiShellDebug1CommandsLib:PrintInfo.obj
 0002:0000e8fc       ??_C@_0P@DHFAAMBE@MaximumVoltage?$AA@ 0006d8fc     UefiShellDebug1CommandsLib:PrintInfo.obj
 0002:0000e90c       ??_C@_0BC@DCDJCADB@ConfiguredVoltage?$AA@ 0006d90c     UefiShellDebug1CommandsLib:PrintInfo.obj
 0002:0000e920       ??_C@_0P@GKBOIFMJ@VendorSyndrome?$AA@ 0006d920     UefiShellDebug1CommandsLib:PrintInfo.obj
 0002:0000e930       ??_C@_0BI@GMHNBLK@MemoryArrayErrorAddress?$AA@ 0006d930     UefiShellDebug1CommandsLib:PrintInfo.obj
 0002:0000e948       ??_C@_0BD@BKOBIHDF@DeviceErrorAddress?$AA@ 0006d948     UefiShellDebug1CommandsLib:PrintInfo.obj
 0002:0000e95c       ??_C@_0BA@DBMDPLBE@ErrorResolution?$AA@ 0006d95c     UefiShellDebug1CommandsLib:PrintInfo.obj
 0002:0000e96c       ??_C@_0BA@JKJCLFJA@StartingAddress?$AA@ 0006d96c     UefiShellDebug1CommandsLib:PrintInfo.obj
 0002:0000e97c       ??_C@_0O@DMEOEBEF@EndingAddress?$AA@ 0006d97c     UefiShellDebug1CommandsLib:PrintInfo.obj
 0002:0000e98c       ??_C@_0P@HDALFGDK@PartitionWidth?$AA@ 0006d98c     UefiShellDebug1CommandsLib:PrintInfo.obj
 0002:0000e99c       ??_C@_0BI@PDLKJHHB@ExtendedStartingAddress?$AA@ 0006d99c     UefiShellDebug1CommandsLib:PrintInfo.obj
 0002:0000e9b4       ??_C@_0BG@GIFMFDDI@ExtendedEndingAddress?$AA@ 0006d9b4     UefiShellDebug1CommandsLib:PrintInfo.obj
 0002:0000e9cc       ??_C@_0BD@BEPOHNAH@MemoryDeviceHandle?$AA@ 0006d9cc     UefiShellDebug1CommandsLib:PrintInfo.obj
 0002:0000e9e0       ??_C@_0BP@CAGAFDLF@MemoryArrayMappedAddressHandle?$AA@ 0006d9e0     UefiShellDebug1CommandsLib:PrintInfo.obj
 0002:0000ea00       ??_C@_0BF@PKKBLCDA@PartitionRowPosition?$AA@ 0006da00     UefiShellDebug1CommandsLib:PrintInfo.obj
 0002:0000ea18       ??_C@_0BD@OOBFBMPB@InterleavePosition?$AA@ 0006da18     UefiShellDebug1CommandsLib:PrintInfo.obj
 0002:0000ea2c       ??_C@_0BF@NJFOFALN@InterleavedDataDepth?$AA@ 0006da2c     UefiShellDebug1CommandsLib:PrintInfo.obj
 0002:0000ea44       ??_C@_0BA@EHILAMBM@NumberOfButtons?$AA@ 0006da44     UefiShellDebug1CommandsLib:PrintInfo.obj
 0002:0000ea54       ??_C@_08KDOEBHGA@Location?$AA@ 0006da54     UefiShellDebug1CommandsLib:PrintInfo.obj
 0002:0000ea60       ??_C@_0BA@EMGHNHBI@ManufactureDate?$AA@ 0006da60     UefiShellDebug1CommandsLib:PrintInfo.obj
 0002:0000ea70       ??_C@_0L@FHIBJDML@DeviceName?$AA@ 0006da70     UefiShellDebug1CommandsLib:PrintInfo.obj
 0002:0000ea7c       ??_C@_0P@NAOAONJL@DeviceCapacity?$AA@ 0006da7c     UefiShellDebug1CommandsLib:PrintInfo.obj
 0002:0000ea8c       ??_C@_0O@PBABLEFL@DesignVoltage?$AA@ 0006da8c     UefiShellDebug1CommandsLib:PrintInfo.obj
 0002:0000ea9c       ??_C@_0BC@OODDBNIJ@SBDSVersionNumber?$AA@ 0006da9c     UefiShellDebug1CommandsLib:PrintInfo.obj
 0002:0000eab0       ??_C@_0BK@BLDMGBHN@MaximumErrorInBatteryData?$AA@ 0006dab0     UefiShellDebug1CommandsLib:PrintInfo.obj
 0002:0000eacc       ??_C@_0BB@DCLMCCCP@SBDSSerialNumber?$AA@ 0006dacc     UefiShellDebug1CommandsLib:PrintInfo.obj
 0002:0000eae0       ??_C@_0BE@EJNLLEMJ@SBDSDeviceChemistry?$AA@ 0006dae0     UefiShellDebug1CommandsLib:PrintInfo.obj
 0002:0000eaf4       ??_C@_0BJ@KCIBCEGB@DesignCapacityMultiplier?$AA@ 0006daf4     UefiShellDebug1CommandsLib:PrintInfo.obj
 0002:0000eb10       ??_C@_0M@DJFOKPBB@OEMSpecific?$AA@ 0006db10     UefiShellDebug1CommandsLib:PrintInfo.obj
 0002:0000eb1c       ??_C@_0L@NDDNCBN@ResetCount?$AA@ 0006db1c     UefiShellDebug1CommandsLib:PrintInfo.obj
 0002:0000eb28       ??_C@_0L@ODMHPMJN@ResetLimit?$AA@ 0006db28     UefiShellDebug1CommandsLib:PrintInfo.obj
 0002:0000eb34       ??_C@_0O@EGBCLEGG@TimerInterval?$AA@ 0006db34     UefiShellDebug1CommandsLib:PrintInfo.obj
 0002:0000eb44       ??_C@_07MKALMBDJ@Timeout?$AA@ 0006db44     UefiShellDebug1CommandsLib:PrintInfo.obj
 0002:0000eb4c       ??_C@_0BK@LAOADDEK@NextScheduledPowerOnMonth?$AA@ 0006db4c     UefiShellDebug1CommandsLib:PrintInfo.obj
 0002:0000eb68       ??_C@_0BP@BFMGCEHK@NextScheduledPowerOnDayOfMonth?$AA@ 0006db68     UefiShellDebug1CommandsLib:PrintInfo.obj
 0002:0000eb88       ??_C@_0BJ@PNALOFHH@NextScheduledPowerOnHour?$AA@ 0006db88     UefiShellDebug1CommandsLib:PrintInfo.obj
 0002:0000eba4       ??_C@_0BL@PFOKAJDD@NextScheduledPowerOnMinute?$AA@ 0006dba4     UefiShellDebug1CommandsLib:PrintInfo.obj
 0002:0000ebc0       ??_C@_0BL@HKFHEKHG@NextScheduledPowerOnSecond?$AA@ 0006dbc0     UefiShellDebug1CommandsLib:PrintInfo.obj
 0002:0000ebdc       ??_C@_0M@OHKMKKDH@Description?$AA@ 0006dbdc     UefiShellDebug1CommandsLib:PrintInfo.obj
 0002:0000ebe8       ??_C@_0N@DGPGOIBE@MaximumValue?$AA@ 0006dbe8     UefiShellDebug1CommandsLib:PrintInfo.obj
 0002:0000ebf8       ??_C@_0N@HGLJJAGC@MinimumValue?$AA@ 0006dbf8     UefiShellDebug1CommandsLib:PrintInfo.obj
 0002:0000ec08       ??_C@_0L@KGPBCGJE@Resolution?$AA@ 0006dc08     UefiShellDebug1CommandsLib:PrintInfo.obj
 0002:0000ec14       ??_C@_09BKMALBOE@Tolerance?$AA@ 0006dc14     UefiShellDebug1CommandsLib:PrintInfo.obj
 0002:0000ec20       ??_C@_08NLCOAFEI@Accuracy?$AA@ 0006dc20     UefiShellDebug1CommandsLib:PrintInfo.obj
 0002:0000ec2c       ??_C@_0L@CMCEPKPI@OEMDefined?$AA@ 0006dc2c     UefiShellDebug1CommandsLib:PrintInfo.obj
 0002:0000ec38       ??_C@_0N@NKKHDHON@NominalValue?$AA@ 0006dc38     UefiShellDebug1CommandsLib:PrintInfo.obj
 0002:0000ec48       ??_C@_0BH@OAHLOFMP@TemperatureProbeHandle?$AA@ 0006dc48     UefiShellDebug1CommandsLib:PrintInfo.obj
 0002:0000ec60       ??_C@_0BB@JNADELBP@CoolingUnitGroup?$AA@ 0006dc60     UefiShellDebug1CommandsLib:PrintInfo.obj
 0002:0000ec74       ??_C@_0N@KPNPMFNH@NominalSpeed?$AA@ 0006dc74     UefiShellDebug1CommandsLib:PrintInfo.obj
 0002:0000ec84       ??_C@_0BB@PDMMMKBD@ManufacturerName?$AA@ 0006dc84     UefiShellDebug1CommandsLib:PrintInfo.obj
 0002:0000ec98       ??_C@_07EODJIPPN@Address?$AA@ 0006dc98     UefiShellDebug1CommandsLib:PrintInfo.obj
 0002:0000eca0       ??_C@_0BH@JEDJGKMH@ManagementDeviceHandle?$AA@ 0006dca0     UefiShellDebug1CommandsLib:PrintInfo.obj
 0002:0000ecb8       ??_C@_0BA@CPMLFEDK@ComponentHandle?$AA@ 0006dcb8     UefiShellDebug1CommandsLib:PrintInfo.obj
 0002:0000ecc8       ??_C@_0BA@JCNCODMC@ThresholdHandle?$AA@ 0006dcc8     UefiShellDebug1CommandsLib:PrintInfo.obj
 0002:0000ecd8       ??_C@_0BK@LBKIMOJN@LowerThresholdNonCritical?$AA@ 0006dcd8     UefiShellDebug1CommandsLib:PrintInfo.obj
 0002:0000ecf4       ??_C@_0BK@CCJKGBMI@UpperThresholdNonCritical?$AA@ 0006dcf4     UefiShellDebug1CommandsLib:PrintInfo.obj
 0002:0000ed10       ??_C@_0BH@NMAIJHFM@LowerThresholdCritical?$AA@ 0006dd10     UefiShellDebug1CommandsLib:PrintInfo.obj
 0002:0000ed28       ??_C@_0BH@FKDKGMLL@UpperThresholdCritical?$AA@ 0006dd28     UefiShellDebug1CommandsLib:PrintInfo.obj
 0002:0000ed40       ??_C@_0BN@CCIJPGKB@LowerThresholdNonRecoverable?$AA@ 0006dd40     UefiShellDebug1CommandsLib:PrintInfo.obj
 0002:0000ed60       ??_C@_0BN@KJLGOLMP@UpperThresholdNonRecoverable?$AA@ 0006dd60     UefiShellDebug1CommandsLib:PrintInfo.obj
 0002:0000ed80       ??_C@_0BD@HKIFACCD@MaximumChannelLoad?$AA@ 0006dd80     UefiShellDebug1CommandsLib:PrintInfo.obj
 0002:0000ed94       ??_C@_0BC@BPJKFOHI@MemoryDeviceCount?$AA@ 0006dd94     UefiShellDebug1CommandsLib:PrintInfo.obj
 0002:0000eda8       ??_C@_0BK@HDCOGOOI@IPMISpecificationRevision?$AA@ 0006dda8     UefiShellDebug1CommandsLib:PrintInfo.obj
 0002:0000edc4       ??_C@_0BA@IILNCDHF@I2CSlaveAddress?$AA@ 0006ddc4     UefiShellDebug1CommandsLib:PrintInfo.obj
 0002:0000edd4       ??_C@_0BH@MHJAAFFN@NVStorageDeviceAddress?$AA@ 0006ddd4     UefiShellDebug1CommandsLib:PrintInfo.obj
 0002:0000edec       ??_C@_0M@BGEGAMBM@BaseAddress?$AA@ 0006ddec     UefiShellDebug1CommandsLib:PrintInfo.obj
 0002:0000edf8       ??_C@_0P@DONEEMPC@PowerUnitGroup?$AA@ 0006ddf8     UefiShellDebug1CommandsLib:PrintInfo.obj
 0002:0000ee08       ??_C@_0P@PJJMPGNK@AssetTagNumber?$AA@ 0006de08     UefiShellDebug1CommandsLib:PrintInfo.obj
 0002:0000ee18       ??_C@_0BA@NFKEAEEP@ModelPartNumber?$AA@ 0006de18     UefiShellDebug1CommandsLib:PrintInfo.obj
 0002:0000ee28       ??_C@_0O@MEKHAACN@RevisionLevel?$AA@ 0006de28     UefiShellDebug1CommandsLib:PrintInfo.obj
 0002:0000ee38       ??_C@_0BB@ELFGCFNP@MaxPowerCapacity?$AA@ 0006de38     UefiShellDebug1CommandsLib:PrintInfo.obj
 0002:0000ee4c       ??_C@_0BI@BNPKKMKF@InputVoltageProbeHandle?$AA@ 0006de4c     UefiShellDebug1CommandsLib:PrintInfo.obj
 0002:0000ee64       ??_C@_0BE@GDEOIKLD@CoolingDeviceHandle?$AA@ 0006de64     UefiShellDebug1CommandsLib:PrintInfo.obj
 0002:0000ee78       ??_C@_0BI@EEELGOPB@InputCurrentProbeHandle?$AA@ 0006de78     UefiShellDebug1CommandsLib:PrintInfo.obj
 0002:0000ee90       ??_C@_0CF@LKIGLGMK@NumberOfAdditionalInformationEnt@ 0006de90     UefiShellDebug1CommandsLib:PrintInfo.obj
 0002:0000eeb8       ??_C@_06ENNEIMBA@String?$AA@ 0006deb8     UefiShellDebug1CommandsLib:PrintInfo.obj
 0002:0000eec0       ??_C@_05LPIJGKJ@Value?$AA@ 0006dec0     UefiShellDebug1CommandsLib:PrintInfo.obj
 0002:0000eec8       ??_C@_0BF@GELGCFEE@ReferenceDesignation?$AA@ 0006dec8     UefiShellDebug1CommandsLib:PrintInfo.obj
 0002:0000eee0       ??_C@_0BD@JAMOIHLG@DeviceTypeInstance?$AA@ 0006dee0     UefiShellDebug1CommandsLib:PrintInfo.obj
 0002:0000eef4       ??_C@_08PJFDLDED@VendorID?$AA@ 0006def4     UefiShellDebug1CommandsLib:PrintInfo.obj
 0002:0000ef00       ??_C@_0BB@GAHCGLGG@MajorSpecVersion?$AA@ 0006df00     UefiShellDebug1CommandsLib:PrintInfo.obj
 0002:0000ef14       ??_C@_0BB@JJBNJBEK@MinorSpecVersion?$AA@ 0006df14     UefiShellDebug1CommandsLib:PrintInfo.obj
 0002:0000ef28       ??_C@_0BB@EECEIOKK@FirmwareVersion1?$AA@ 0006df28     UefiShellDebug1CommandsLib:PrintInfo.obj
 0002:0000ef3c       ??_C@_0BB@GPAJNNGJ@FirmwareVersion2?$AA@ 0006df3c     UefiShellDebug1CommandsLib:PrintInfo.obj
 0002:0000ef50       ??_C@_1M@EMMHMJAC@?$AA0?$AAx?$AA?$CF?$AAx?$AA?6?$AA?$AA@ 0006df50     UefiShellDebug1CommandsLib:PrintInfo.obj
 0002:0000ef5c       ??_C@_1M@BFEKLHEO@?$AA8?$AA0?$AA8?$AA6?$AA?6?$AA?$AA@ 0006df5c     UefiShellDebug1CommandsLib:PrintInfo.obj
 0002:0000ef68       ??_C@_1O@CFFCPEKH@?$AA8?$AA0?$AA2?$AA8?$AA6?$AA?6?$AA?$AA@ 0006df68     UefiShellDebug1CommandsLib:PrintInfo.obj
 0002:0000ef78       ??_C@_1M@NOBGGEOL@?$AA8?$AA0?$AA8?$AA7?$AA?6?$AA?$AA@ 0006df78     UefiShellDebug1CommandsLib:PrintInfo.obj
 0002:0000ef84       ??_C@_1O@OOAOCHAC@?$AA8?$AA0?$AA2?$AA8?$AA7?$AA?6?$AA?$AA@ 0006df84     UefiShellDebug1CommandsLib:PrintInfo.obj
 0002:0000ef94       ??_C@_1O@BMMEMDM@?$AA8?$AA0?$AA3?$AA8?$AA7?$AA?6?$AA?$AA@ 0006df94     UefiShellDebug1CommandsLib:PrintInfo.obj
 0002:0000efa4       ??_C@_1O@ODBAFHEF@?$AA8?$AA0?$AA4?$AA8?$AA7?$AA?6?$AA?$AA@ 0006dfa4     UefiShellDebug1CommandsLib:PrintInfo.obj
 0002:0000efb4       ??_C@_1BG@DBAGDDAO@?$AAM?$AA2?$AA?5?$AAF?$AAa?$AAm?$AAi?$AAl?$AAy?$AA?6?$AA?$AA@ 0006dfb4     UefiShellDebug1CommandsLib:PrintInfo.obj
 0002:0000efcc       ??_C@_1CC@MPNELHD@?$AAI?$AAn?$AAt?$AAe?$AAl?$AA?5?$AAC?$AAe?$AAl?$AAe?$AAr?$AAo?$AAn?$AA?5?$AAM?$AA?6?$AA?$AA@ 0006dfcc     UefiShellDebug1CommandsLib:PrintInfo.obj
 0002:0000eff0       ??_C@_1CI@IFPKFDMJ@?$AAI?$AAn?$AAt?$AAe?$AAl?$AA?5?$AAP?$AAe?$AAn?$AAt?$AAi?$AAu?$AAm?$AA?5?$AA4?$AA?5?$AAH?$AAT?$AA?6?$AA?$AA@ 0006dff0     UefiShellDebug1CommandsLib:PrintInfo.obj
 0002:0000f018       ??_C@_1BG@ONMLJEEK@?$AAA?$AAM?$AAD?$AA?5?$AAD?$AAu?$AAr?$AAo?$AAn?$AA?6?$AA?$AA@ 0006e018     UefiShellDebug1CommandsLib:PrintInfo.obj
 0002:0000f030       ??_C@_1BG@NBKICNH@?$AAK?$AA6?$AA?5?$AAF?$AAa?$AAm?$AAi?$AAl?$AAy?$AA?6?$AA?$AA@ 0006e030     UefiShellDebug1CommandsLib:PrintInfo.obj
 0002:0000f048       ??_C@_1M@OEEKOJFE@?$AAK?$AA6?$AA?9?$AA2?$AA?6?$AA?$AA@ 0006e048     UefiShellDebug1CommandsLib:PrintInfo.obj
 0002:0000f054       ??_C@_1M@CPBGDKPB@?$AAK?$AA6?$AA?9?$AA3?$AA?6?$AA?$AA@ 0006e054     UefiShellDebug1CommandsLib:PrintInfo.obj
 0002:0000f060       ??_C@_1DK@FOMJPGAK@?$AAA?$AAM?$AAD?$AA?5?$AAA?$AAl?$AAt?$AAh?$AAo?$AAn?$AA?5?$AAP?$AAr?$AAo?$AAc?$AAe?$AAs?$AAs?$AAo?$AAr?$AA?5?$AAF?$AAa?$AAm?$AAi?$AAl?$AAy?$AA?6?$AA?$AA@ 0006e060     UefiShellDebug1CommandsLib:PrintInfo.obj
 0002:0000f09c       ??_C@_1CE@IEKOHBKD@?$AAA?$AAM?$AAD?$AA?5?$AA2?$AA9?$AA0?$AA0?$AA0?$AA?5?$AAF?$AAa?$AAm?$AAi?$AAl?$AAy?$AA?6?$AA?$AA@ 0006e09c     UefiShellDebug1CommandsLib:PrintInfo.obj
 0002:0000f0c0       ??_C@_1O@KEEMBADB@?$AAK?$AA6?$AA?9?$AA2?$AA?$CL?$AA?6?$AA?$AA@ 0006e0c0     UefiShellDebug1CommandsLib:PrintInfo.obj
 0002:0000f0d0       ??_C@_1BM@CMFDIAEL@?$AAP?$AAo?$AAw?$AAe?$AAr?$AA?5?$AAP?$AAC?$AA?5?$AA6?$AA2?$AA0?$AA?6?$AA?$AA@ 0006e0d0     UefiShellDebug1CommandsLib:PrintInfo.obj
 0002:0000f0ec       ??_C@_1BM@BKCFKOBO@?$AAP?$AAo?$AAw?$AAe?$AAr?$AA?5?$AAP?$AAC?$AA?5?$AA7?$AA0?$AA4?$AA?6?$AA?$AA@ 0006e0ec     UefiShellDebug1CommandsLib:PrintInfo.obj
 0002:0000f108       ??_C@_1BM@MJFEOCGM@?$AAP?$AAo?$AAw?$AAe?$AAr?$AA?5?$AAP?$AAC?$AA?5?$AA7?$AA5?$AA0?$AA?6?$AA?$AA@ 0006e108     UefiShellDebug1CommandsLib:PrintInfo.obj
 0002:0000f124       ??_C@_1DO@IMFJCMIO@?$AAI?$AAn?$AAt?$AAe?$AAl?$AA?$CI?$AAR?$AA?$CJ?$AA?5?$AAC?$AAo?$AAr?$AAe?$AA?$CI?$AAT?$AAM?$AA?$CJ?$AA?5?$AAM?$AA?5?$AAp?$AAr?$AAo?$AAc?$AAe?$AAs?$AAs?$AAo?$AAr?$AA?6?$AA?$AA@ 0006e124     UefiShellDebug1CommandsLib:PrintInfo.obj
 0002:0000f168       ??_C@_1EA@FLOKOMLP@?$AAI?$AAn?$AAt?$AAe?$AAl?$AA?$CI?$AAR?$AA?$CJ?$AA?5?$AAC?$AAo?$AAr?$AAe?$AA?$CI?$AAT?$AAM?$AA?$CJ?$AA?5?$AAm?$AA3?$AA?5?$AAp?$AAr?$AAo?$AAc?$AAe?$AAs?$AAs?$AAo?$AAr?$AA?6?$AA?$AA@ 0006e168     UefiShellDebug1CommandsLib:PrintInfo.obj
 0002:0000f1a8       ??_C@_1EA@GEDEDBAO@?$AAI?$AAn?$AAt?$AAe?$AAl?$AA?$CI?$AAR?$AA?$CJ?$AA?5?$AAC?$AAo?$AAr?$AAe?$AA?$CI?$AAT?$AAM?$AA?$CJ?$AA?5?$AAm?$AA5?$AA?5?$AAp?$AAr?$AAo?$AAc?$AAe?$AAs?$AAs?$AAo?$AAr?$AA?6?$AA?$AA@ 0006e1a8     UefiShellDebug1CommandsLib:PrintInfo.obj
 0002:0000f1e8       ??_C@_1EA@HBHOHKGB@?$AAI?$AAn?$AAt?$AAe?$AAl?$AA?$CI?$AAR?$AA?$CJ?$AA?5?$AAC?$AAo?$AAr?$AAe?$AA?$CI?$AAT?$AAM?$AA?$CJ?$AA?5?$AAm?$AA7?$AA?5?$AAp?$AAr?$AAo?$AAc?$AAe?$AAs?$AAs?$AAo?$AAr?$AA?6?$AA?$AA@ 0006e1e8     UefiShellDebug1CommandsLib:PrintInfo.obj
 0002:0000f228       ??_C@_1BK@EILJHJBO@?$AAA?$AAl?$AAp?$AAh?$AAa?$AA?5?$AA2?$AA1?$AA0?$AA6?$AA4?$AA?6?$AA?$AA@ 0006e228     UefiShellDebug1CommandsLib:PrintInfo.obj
 0002:0000f244       ??_C@_1BK@FHBNIBF@?$AAA?$AAl?$AAp?$AAh?$AAa?$AA?5?$AA2?$AA1?$AA0?$AA6?$AA6?$AA?6?$AA?$AA@ 0006e244     UefiShellDebug1CommandsLib:PrintInfo.obj
 0002:0000f260       ??_C@_1BK@KHHLBCCA@?$AAA?$AAl?$AAp?$AAh?$AAa?$AA?5?$AA2?$AA1?$AA1?$AA6?$AA4?$AA?6?$AA?$AA@ 0006e260     UefiShellDebug1CommandsLib:PrintInfo.obj
 0002:0000f27c       ??_C@_1BO@BJHODJPO@?$AAA?$AAl?$AAp?$AAh?$AAa?$AA?5?$AA2?$AA1?$AA1?$AA6?$AA4?$AAP?$AAC?$AA?6?$AA?$AA@ 0006e27c     UefiShellDebug1CommandsLib:PrintInfo.obj
 0002:0000f29c       ??_C@_1BM@GLLDONGM@?$AAA?$AAl?$AAp?$AAh?$AAa?$AA?5?$AA2?$AA1?$AA1?$AA6?$AA4?$AAa?$AA?6?$AA?$AA@ 0006e29c     UefiShellDebug1CommandsLib:PrintInfo.obj
 0002:0000f2b8       ??_C@_1BK@EMEMKJCD@?$AAA?$AAl?$AAp?$AAh?$AAa?$AA?5?$AA2?$AA1?$AA2?$AA6?$AA4?$AA?6?$AA?$AA@ 0006e2b8     UefiShellDebug1CommandsLib:PrintInfo.obj
 0002:0000f2d4       ??_C@_1BK@KDIOMCBN@?$AAA?$AAl?$AAp?$AAh?$AAa?$AA?5?$AA2?$AA1?$AA3?$AA6?$AA4?$AA?6?$AA?$AA@ 0006e2d4     UefiShellDebug1CommandsLib:PrintInfo.obj
 0002:0000f2f0       ??_C@_1HC@BGNAJMPG@?$AAA?$AAM?$AAD?$AA?5?$AAT?$AAu?$AAr?$AAi?$AAo?$AAn?$AA?5?$AAI?$AAI?$AA?5?$AAU?$AAl?$AAt?$AAr?$AAa?$AA?5?$AAD?$AAu?$AAa?$AAl?$AA?9?$AAC?$AAo?$AAr?$AAe?$AA?5?$AAM?$AAo@ 0006e2f0     UefiShellDebug1CommandsLib:PrintInfo.obj
 0002:0000f368       ??_C@_1GG@GHONLEP@?$AAA?$AAM?$AAD?$AA?5?$AAT?$AAu?$AAr?$AAi?$AAo?$AAn?$AA?5?$AAI?$AAI?$AA?5?$AAD?$AAu?$AAa?$AAl?$AA?9?$AAC?$AAo?$AAr?$AAe?$AA?5?$AAM?$AAo?$AAb?$AAi?$AAl?$AAe?$AA?5?$AAM@ 0006e368     UefiShellDebug1CommandsLib:PrintInfo.obj
 0002:0000f3d0       ??_C@_1FI@EDMINKLJ@?$AAA?$AAM?$AAD?$AA?5?$AAA?$AAl?$AAt?$AAh?$AAo?$AAn?$AA?5?$AAI?$AAI?$AA?5?$AAD?$AAu?$AAa?$AAl?$AA?9?$AAC?$AAo?$AAr?$AAe?$AA?5?$AAM?$AA?5?$AAP?$AAr?$AAo?$AAc?$AAe?$AAs@ 0006e3d0     UefiShellDebug1CommandsLib:PrintInfo.obj
 0002:0000f428       ??_C@_1EG@KMMBGHAG@?$AAA?$AAM?$AAD?$AA?5?$AAO?$AAp?$AAt?$AAe?$AAr?$AAo?$AAn?$AA?5?$AA6?$AA1?$AA0?$AA0?$AA?5?$AAS?$AAe?$AAr?$AAi?$AAe?$AAs?$AA?5?$AAP?$AAr?$AAo?$AAc?$AAe?$AAs?$AAs?$AAo@ 0006e428     UefiShellDebug1CommandsLib:PrintInfo.obj
 0002:0000f470       ??_C@_1EG@FDFCFACA@?$AAA?$AAM?$AAD?$AA?5?$AAO?$AAp?$AAt?$AAe?$AAr?$AAo?$AAn?$AA?5?$AA4?$AA1?$AA0?$AA0?$AA?5?$AAS?$AAe?$AAr?$AAi?$AAe?$AAs?$AA?5?$AAP?$AAr?$AAo?$AAc?$AAe?$AAs?$AAs?$AAo@ 0006e470     UefiShellDebug1CommandsLib:PrintInfo.obj
 0002:0000f4b8       ??_C@_1EG@NCLJCPKA@?$AAA?$AAM?$AAD?$AA?5?$AAO?$AAp?$AAt?$AAe?$AAr?$AAo?$AAn?$AA?5?$AA6?$AA2?$AA0?$AA0?$AA?5?$AAS?$AAe?$AAr?$AAi?$AAe?$AAs?$AA?5?$AAP?$AAr?$AAo?$AAc?$AAe?$AAs?$AAs?$AAo@ 0006e4b8     UefiShellDebug1CommandsLib:PrintInfo.obj
 0002:0000f500       ??_C@_1EG@CNCKBIIG@?$AAA?$AAM?$AAD?$AA?5?$AAO?$AAp?$AAt?$AAe?$AAr?$AAo?$AAn?$AA?5?$AA4?$AA2?$AA0?$AA0?$AA?5?$AAS?$AAe?$AAr?$AAi?$AAe?$AAs?$AA?5?$AAP?$AAr?$AAo?$AAc?$AAe?$AAs?$AAs?$AAo@ 0006e500     UefiShellDebug1CommandsLib:PrintInfo.obj
 0002:0000f548       ??_C@_1BI@MPPDNMDI@?$AAM?$AAI?$AAP?$AAS?$AA?5?$AAR?$AA4?$AA0?$AA0?$AA0?$AA?6?$AA?$AA@ 0006e548     UefiShellDebug1CommandsLib:PrintInfo.obj
 0002:0000f560       ??_C@_1BI@MLAGAMAF@?$AAM?$AAI?$AAP?$AAS?$AA?5?$AAR?$AA4?$AA2?$AA0?$AA0?$AA?6?$AA?$AA@ 0006e560     UefiShellDebug1CommandsLib:PrintInfo.obj
 0002:0000f578       ??_C@_1BI@MGBIHMEC@?$AAM?$AAI?$AAP?$AAS?$AA?5?$AAR?$AA4?$AA4?$AA0?$AA0?$AA?6?$AA?$AA@ 0006e578     UefiShellDebug1CommandsLib:PrintInfo.obj
 0002:0000f590       ??_C@_1BI@MCONKMHP@?$AAM?$AAI?$AAP?$AAS?$AA?5?$AAR?$AA4?$AA6?$AA0?$AA0?$AA?6?$AA?$AA@ 0006e590     UefiShellDebug1CommandsLib:PrintInfo.obj
 0002:0000f5a8       ??_C@_1BK@NGAFEHDF@?$AAM?$AAI?$AAP?$AAS?$AA?5?$AAR?$AA1?$AA0?$AA0?$AA0?$AA0?$AA?6?$AA?$AA@ 0006e5a8     UefiShellDebug1CommandsLib:PrintInfo.obj
 0002:0000f5c4       ??_C@_1DA@HPBBECC@?$AAA?$AAM?$AAD?$AA?5?$AAC?$AA?9?$AAS?$AAe?$AAr?$AAi?$AAe?$AAs?$AA?5?$AAP?$AAr?$AAo?$AAc?$AAe?$AAs?$AAs?$AAo?$AAr?$AA?6?$AA?$AA@ 0006e5c4     UefiShellDebug1CommandsLib:PrintInfo.obj
 0002:0000f5f4       ??_C@_1DA@FCIIHFDC@?$AAA?$AAM?$AAD?$AA?5?$AAE?$AA?9?$AAS?$AAe?$AAr?$AAi?$AAe?$AAs?$AA?5?$AAP?$AAr?$AAo?$AAc?$AAe?$AAs?$AAs?$AAo?$AAr?$AA?6?$AA?$AA@ 0006e5f4     UefiShellDebug1CommandsLib:PrintInfo.obj
 0002:0000f624       ??_C@_1DA@ICAJDGON@?$AAA?$AAM?$AAD?$AA?5?$AAA?$AA?9?$AAS?$AAe?$AAr?$AAi?$AAe?$AAs?$AA?5?$AAP?$AAr?$AAo?$AAc?$AAe?$AAs?$AAs?$AAo?$AAr?$AA?6?$AA?$AA@ 0006e624     UefiShellDebug1CommandsLib:PrintInfo.obj
 0002:0000f654       ??_C@_1DA@NHHAFHPN@?$AAA?$AAM?$AAD?$AA?5?$AAG?$AA?9?$AAS?$AAe?$AAr?$AAi?$AAe?$AAs?$AA?5?$AAP?$AAr?$AAo?$AAc?$AAe?$AAs?$AAs?$AAo?$AAr?$AA?6?$AA?$AA@ 0006e654     UefiShellDebug1CommandsLib:PrintInfo.obj
 0002:0000f684       ??_C@_1BI@CHKAHKIO@?$AAS?$AAu?$AAp?$AAe?$AAr?$AAS?$AAp?$AAa?$AAr?$AAc?$AA?6?$AA?$AA@ 0006e684     UefiShellDebug1CommandsLib:PrintInfo.obj
 0002:0000f69c       ??_C@_1BO@LDJKINIJ@?$AAm?$AAi?$AAc?$AAr?$AAo?$AAS?$AAp?$AAa?$AAr?$AAc?$AA?5?$AAI?$AAI?$AA?6?$AA?$AA@ 0006e69c     UefiShellDebug1CommandsLib:PrintInfo.obj
 0002:0000f6bc       ??_C@_1CC@MNCOKOHG@?$AAm?$AAi?$AAc?$AAr?$AAo?$AAS?$AAp?$AAa?$AAr?$AAc?$AA?5?$AAI?$AAI?$AAe?$AAp?$AA?6?$AA?$AA@ 0006e6bc     UefiShellDebug1CommandsLib:PrintInfo.obj
 0002:0000f6e0       ??_C@_1BI@NOIOBHBG@?$AAU?$AAl?$AAt?$AAr?$AAa?$AAS?$AAp?$AAa?$AAr?$AAc?$AA?6?$AA?$AA@ 0006e6e0     UefiShellDebug1CommandsLib:PrintInfo.obj
 0002:0000f6f8       ??_C@_1BO@KEJJICDJ@?$AAU?$AAl?$AAt?$AAr?$AAa?$AAS?$AAp?$AAa?$AAr?$AAc?$AA?5?$AAI?$AAI?$AA?6?$AA?$AA@ 0006e6f8     UefiShellDebug1CommandsLib:PrintInfo.obj
 0002:0000f718       ??_C@_1BO@IOMHKILF@?$AAU?$AAl?$AAt?$AAr?$AAa?$AAS?$AAp?$AAa?$AAr?$AAc?$AAI?$AAI?$AAi?$AA?6?$AA?$AA@ 0006e718     UefiShellDebug1CommandsLib:PrintInfo.obj
 0002:0000f738       ??_C@_1BO@IJGLKNID@?$AAU?$AAl?$AAt?$AAr?$AAa?$AAS?$AAp?$AAa?$AAr?$AAc?$AAI?$AAI?$AAI?$AA?6?$AA?$AA@ 0006e738     UefiShellDebug1CommandsLib:PrintInfo.obj
 0002:0000f758       ??_C@_1CA@FJBEAACG@?$AAU?$AAl?$AAt?$AAr?$AAa?$AAS?$AAp?$AAa?$AAr?$AAc?$AAI?$AAI?$AAI?$AAi?$AA?6?$AA?$AA@ 0006e758     UefiShellDebug1CommandsLib:PrintInfo.obj
 0002:0000f778       ??_C@_1M@PDGDINFF@?$AA6?$AA8?$AAx?$AAx?$AA?6?$AA?$AA@ 0006e778     UefiShellDebug1CommandsLib:PrintInfo.obj
 0002:0000f784       ??_C@_1O@OJIMPPEM@?$AA6?$AA8?$AA0?$AA0?$AA0?$AA?6?$AA?$AA@ 0006e784     UefiShellDebug1CommandsLib:PrintInfo.obj
 0002:0000f794       ??_C@_1O@CFCGPPNC@?$AA6?$AA8?$AA0?$AA1?$AA0?$AA?6?$AA?$AA@ 0006e794     UefiShellDebug1CommandsLib:PrintInfo.obj
 0002:0000f7a4       ??_C@_1O@KLKJPIDB@?$AA6?$AA8?$AA0?$AA2?$AA0?$AA?6?$AA?$AA@ 0006e7a4     UefiShellDebug1CommandsLib:PrintInfo.obj
 0002:0000f7b4       ??_C@_1O@GHADPIKP@?$AA6?$AA8?$AA0?$AA3?$AA0?$AA?6?$AA?$AA@ 0006e7b4     UefiShellDebug1CommandsLib:PrintInfo.obj
 0002:0000f7c8       ??_C@_1FM@FOHMLCBI@?$AAA?$AAM?$AAD?$AA?5?$AAA?$AAt?$AAh?$AAl?$AAo?$AAn?$AA?$CI?$AAT?$AAM?$AA?$CJ?$AA?5?$AAX?$AA4?$AA?5?$AAQ?$AAu?$AAa?$AAd?$AA?9?$AAC?$AAo?$AAr?$AAe?$AA?5?$AAP?$AAr?$AAo?$AAc@ 0006e7c8     UefiShellDebug1CommandsLib:PrintInfo.obj
 0002:0000f828       ??_C@_1FA@FKKGBNEM@?$AAA?$AAM?$AAD?$AA?5?$AAO?$AAp?$AAt?$AAe?$AAr?$AAo?$AAn?$AA?$CI?$AAT?$AAM?$AA?$CJ?$AA?5?$AAX?$AA1?$AA0?$AA0?$AA0?$AA?5?$AAS?$AAe?$AAr?$AAi?$AAe?$AAs?$AA?5?$AAP?$AAr?$AAo@ 0006e828     UefiShellDebug1CommandsLib:PrintInfo.obj
 0002:0000f878       ??_C@_1EE@FCPDGCIF@?$AAA?$AAM?$AAD?$AA?5?$AAO?$AAp?$AAt?$AAe?$AAr?$AAo?$AAn?$AA?$CI?$AAT?$AAM?$AA?$CJ?$AA?5?$AAX?$AA2?$AA0?$AA0?$AA0?$AA?5?$AAS?$AAe?$AAr?$AAi?$AAe?$AAs?$AA?5?$AAA?$AAP?$AAU@ 0006e878     UefiShellDebug1CommandsLib:PrintInfo.obj
 0002:0000f8c0       ??_C@_1EI@MKFEPIAG@?$AAA?$AAM?$AAD?$AA?5?$AAO?$AAp?$AAt?$AAe?$AAr?$AAo?$AAn?$AA?$CI?$AAT?$AAM?$AA?$CJ?$AA?5?$AAA?$AA?9?$AAS?$AAe?$AAr?$AAi?$AAe?$AAs?$AA?5?$AAP?$AAr?$AAo?$AAc?$AAe?$AAs?$AAs@ 0006e8c0     UefiShellDebug1CommandsLib:PrintInfo.obj
 0002:0000f908       ??_C@_1EE@HGHBDDLD@?$AAA?$AAM?$AAD?$AA?5?$AAO?$AAp?$AAt?$AAe?$AAr?$AAo?$AAn?$AA?$CI?$AAT?$AAM?$AA?$CJ?$AA?5?$AAX?$AA3?$AA0?$AA0?$AA0?$AA?5?$AAS?$AAe?$AAr?$AAi?$AAe?$AAs?$AA?5?$AAA?$AAP?$AAU@ 0006e908     UefiShellDebug1CommandsLib:PrintInfo.obj
 0002:0000f94c       ??_C@_1DE@NFIODHPM@?$AAA?$AAM?$AAD?$AA?5?$AAZ?$AAe?$AAn?$AA?5?$AAP?$AAr?$AAo?$AAc?$AAe?$AAs?$AAs?$AAo?$AAr?$AA?5?$AAF?$AAa?$AAm?$AAi?$AAl?$AAy?$AA?6?$AA?$AA@ 0006e94c     UefiShellDebug1CommandsLib:PrintInfo.obj
 0002:0000f980       ??_C@_1BO@BEBPPGMP@?$AAC?$AAr?$AAu?$AAs?$AAo?$AAe?$AA?5?$AAT?$AAM?$AA5?$AA0?$AA0?$AA0?$AA?6?$AA?$AA@ 0006e980     UefiShellDebug1CommandsLib:PrintInfo.obj
 0002:0000f9a0       ??_C@_1BO@PLCCFDCP@?$AAC?$AAr?$AAu?$AAs?$AAo?$AAe?$AA?5?$AAT?$AAM?$AA3?$AA0?$AA0?$AA0?$AA?6?$AA?$AA@ 0006e9a0     UefiShellDebug1CommandsLib:PrintInfo.obj
 0002:0000f9c0       ??_C@_1CC@LNLDLOHK@?$AAE?$AAf?$AAf?$AAi?$AAc?$AAe?$AAo?$AAn?$AA?5?$AAT?$AAM?$AA8?$AA0?$AA0?$AA0?$AA?6?$AA?$AA@ 0006e9c0     UefiShellDebug1CommandsLib:PrintInfo.obj
 0002:0000f9e4       ??_C@_1BC@BDBJDKEG@?$AAI?$AAt?$AAa?$AAn?$AAi?$AAu?$AAm?$AA?6?$AA?$AA@ 0006e9e4     UefiShellDebug1CommandsLib:PrintInfo.obj
 0002:0000f9f8       ??_C@_1BM@NAEDFCPJ@?$AAA?$AAM?$AAD?$AA?5?$AAA?$AAt?$AAh?$AAl?$AAo?$AAn?$AA6?$AA4?$AA?6?$AA?$AA@ 0006e9f8     UefiShellDebug1CommandsLib:PrintInfo.obj
 0002:0000fa14       ??_C@_1BK@JFKHHEGN@?$AAA?$AAM?$AAD?$AA?5?$AAO?$AAp?$AAt?$AAe?$AAr?$AAo?$AAn?$AA?6?$AA?$AA@ 0006ea14     UefiShellDebug1CommandsLib:PrintInfo.obj
 0002:0000fa30       ??_C@_1BK@GHNMOLDH@?$AAA?$AAM?$AAD?$AA?5?$AAS?$AAe?$AAm?$AAp?$AAr?$AAo?$AAn?$AA?6?$AA?$AA@ 0006ea30     UefiShellDebug1CommandsLib:PrintInfo.obj
 0002:0000fa4c       ??_C@_1CK@FIAFKMGM@?$AAA?$AAM?$AAD?$AA?5?$AAT?$AAu?$AAr?$AAi?$AAo?$AAn?$AA6?$AA4?$AA?5?$AAM?$AAo?$AAb?$AAi?$AAl?$AAe?$AA?6?$AA?$AA@ 0006ea4c     UefiShellDebug1CommandsLib:PrintInfo.obj
 0002:0000fa78       ??_C@_1CO@LCENKIBJ@?$AAD?$AAu?$AAa?$AAl?$AA?9?$AAC?$AAo?$AAr?$AAe?$AA?5?$AAA?$AAM?$AAD?$AA?5?$AAO?$AAp?$AAt?$AAe?$AAr?$AAo?$AAn?$AA?6?$AA?$AA@ 0006ea78     UefiShellDebug1CommandsLib:PrintInfo.obj
 0002:0000faa8       ??_C@_1DE@BFKEFMLO@?$AAA?$AAM?$AAD?$AA?5?$AAA?$AAt?$AAh?$AAl?$AAo?$AAn?$AA?5?$AA6?$AA4?$AAX?$AA2?$AA?5?$AAD?$AAu?$AAa?$AAl?$AAC?$AAo?$AAr?$AAe?$AA?6?$AA?$AA@ 0006eaa8     UefiShellDebug1CommandsLib:PrintInfo.obj
 0002:0000fadc       ??_C@_1DA@PNPLGDEH@?$AAA?$AAM?$AAD?$AA?5?$AAT?$AAu?$AAr?$AAi?$AAo?$AAn?$AA?5?$AA6?$AA4?$AAX?$AA2?$AA?5?$AAM?$AAo?$AAb?$AAi?$AAl?$AAe?$AA?6?$AA?$AA@ 0006eadc     UefiShellDebug1CommandsLib:PrintInfo.obj
 0002:0000fb0c       ??_C@_1BM@KILCHNJC@?$AAP?$AAA?$AA?9?$AAR?$AAI?$AAS?$AAC?$AA?5?$AA8?$AA5?$AA0?$AA0?$AA?6?$AA?$AA@ 0006eb0c     UefiShellDebug1CommandsLib:PrintInfo.obj
 0002:0000fb28       ??_C@_1BM@EOJLLGNG@?$AAP?$AAA?$AA?9?$AAR?$AAI?$AAS?$AAC?$AA?5?$AA8?$AA0?$AA0?$AA0?$AA?6?$AA?$AA@ 0006eb28     UefiShellDebug1CommandsLib:PrintInfo.obj
 0002:0000fb44       ??_C@_1CA@DKDFEKIM@?$AAP?$AAA?$AA?9?$AAR?$AAI?$AAS?$AAC?$AA?5?$AA7?$AA3?$AA0?$AA0?$AAL?$AAC?$AA?6?$AA?$AA@ 0006eb44     UefiShellDebug1CommandsLib:PrintInfo.obj
 0002:0000fb64       ??_C@_1BM@DIPKPJJK@?$AAP?$AAA?$AA?9?$AAR?$AAI?$AAS?$AAC?$AA?5?$AA7?$AA2?$AA0?$AA0?$AA?6?$AA?$AA@ 0006eb64     UefiShellDebug1CommandsLib:PrintInfo.obj
 0002:0000fb80       ??_C@_1CA@NLFLIOCB@?$AAP?$AAA?$AA?9?$AAR?$AAI?$AAS?$AAC?$AA?5?$AA7?$AA1?$AA0?$AA0?$AAL?$AAC?$AA?6?$AA?$AA@ 0006eb80     UefiShellDebug1CommandsLib:PrintInfo.obj
 0002:0000fba0       ??_C@_1BM@NDMNECJJ@?$AAP?$AAA?$AA?9?$AAR?$AAI?$AAS?$AAC?$AA?5?$AA7?$AA1?$AA0?$AA0?$AA?6?$AA?$AA@ 0006eba0     UefiShellDebug1CommandsLib:PrintInfo.obj
 0002:0000fbc0       ??_C@_1GM@LGNOEJOA@?$AAP?$AAe?$AAn?$AAt?$AAi?$AAu?$AAm?$AA?5?$AAI?$AAI?$AAI?$AA?5?$AAP?$AAr?$AAo?$AAc?$AAe?$AAs?$AAs?$AAo?$AAr?$AAw?$AAi?$AAt?$AAh?$AA?5?$AAI?$AAn?$AAt?$AAe?$AAl?$AA?5@ 0006ebc0     UefiShellDebug1CommandsLib:PrintInfo.obj
 0002:0000fc2c       ??_C@_1CK@COKBNKJM@?$AAP?$AAe?$AAn?$AAt?$AAi?$AAu?$AAm?$AA?5?$AA4?$AA?5?$AAp?$AAr?$AAo?$AAc?$AAe?$AAs?$AAs?$AAo?$AAr?$AA?6?$AA?$AA@ 0006ec2c     UefiShellDebug1CommandsLib:PrintInfo.obj
 0002:0000fc58       ??_C@_1CM@PBDLLDGD@?$AAI?$AAn?$AAt?$AAe?$AAl?$AA?5?$AAX?$AAe?$AAo?$AAn?$AA?5?$AAP?$AAr?$AAo?$AAc?$AAe?$AAs?$AAs?$AAo?$AAr?$AA?6?$AA?$AA@ 0006ec58     UefiShellDebug1CommandsLib:PrintInfo.obj
 0002:0000fc84       ??_C@_1BM@NCNDNNOI@?$AAA?$AAS?$AA4?$AA0?$AA0?$AA?5?$AAF?$AAa?$AAm?$AAi?$AAl?$AAy?$AA?6?$AA?$AA@ 0006ec84     UefiShellDebug1CommandsLib:PrintInfo.obj
 0002:0000fca0       ??_C@_1DC@PFEAGGGB@?$AAI?$AAn?$AAt?$AAe?$AAl?$AA?5?$AAX?$AAe?$AAo?$AAn?$AA?5?$AAp?$AAr?$AAo?$AAc?$AAe?$AAs?$AAs?$AAo?$AAr?$AA?5?$AAM?$AAP?$AA?6?$AA?$AA@ 0006eca0     UefiShellDebug1CommandsLib:PrintInfo.obj
 0002:0000fcd8       ??_C@_1EA@BINOHLN@?$AAA?$AAM?$AAD?$AA?5?$AAA?$AAl?$AAt?$AAh?$AAo?$AAn?$AA?5?$AAX?$AAP?$AA?5?$AAP?$AAr?$AAo?$AAc?$AAe?$AAs?$AAs?$AAo?$AAr?$AA?5?$AAF?$AAa?$AAm?$AAi?$AAl?$AAy?$AA?6?$AA?$AA@ 0006ecd8     UefiShellDebug1CommandsLib:PrintInfo.obj
 0002:0000fd18       ??_C@_1EC@IFDBEIAC@?$AAA?$AAM?$AAD?$AA?5?$AAA?$AAl?$AAt?$AAh?$AAo?$AAn?$AA?5?$AAM?$AAP?$AA?5?$AAP?$AAr?$AAo?$AAm?$AAc?$AAe?$AAs?$AAs?$AAo?$AAr?$AA?5?$AAF?$AAa?$AAm?$AAi?$AAl?$AAy?$AA?6@ 0006ed18     UefiShellDebug1CommandsLib:PrintInfo.obj
 0002:0000fd5c       ??_C@_1DG@BNHFBMCE@?$AAI?$AAn?$AAt?$AAe?$AAl?$AA?5?$AAI?$AAt?$AAa?$AAn?$AAi?$AAu?$AAm?$AA?5?$AA2?$AA?5?$AAp?$AAr?$AAo?$AAc?$AAe?$AAs?$AAs?$AAo?$AAr?$AA?6?$AA?$AA@ 0006ed5c     UefiShellDebug1CommandsLib:PrintInfo.obj
 0002:0000fd94       ??_C@_1DE@MMFIDIPD@?$AAI?$AAn?$AAt?$AAe?$AAl?$AA?5?$AAP?$AAe?$AAn?$AAi?$AAu?$AAm?$AA?5?$AAM?$AA?5?$AAp?$AAr?$AAo?$AAc?$AAe?$AAs?$AAs?$AAo?$AAr?$AA?6?$AA?$AA@ 0006ed94     UefiShellDebug1CommandsLib:PrintInfo.obj
 0002:0000fdc8       ??_C@_1DG@EIKPMALL@?$AAI?$AAn?$AAt?$AAe?$AAl?$AA?5?$AAC?$AAe?$AAl?$AAe?$AAr?$AAo?$AAn?$AA?5?$AAD?$AA?5?$AAp?$AAr?$AAo?$AAc?$AAe?$AAs?$AAs?$AAo?$AAr?$AA?6?$AA?$AA@ 0006edc8     UefiShellDebug1CommandsLib:PrintInfo.obj
 0002:0000fe00       ??_C@_1DG@OCIJHOFC@?$AAI?$AAn?$AAt?$AAe?$AAl?$AA?5?$AAP?$AAe?$AAn?$AAt?$AAi?$AAu?$AAm?$AA?5?$AAD?$AA?5?$AAp?$AAr?$AAo?$AAc?$AAe?$AAs?$AAs?$AAo?$AAr?$AA?6?$AA?$AA@ 0006ee00     UefiShellDebug1CommandsLib:PrintInfo.obj
 0002:0000fe38       ??_C@_1FC@NAEIDNNM@?$AAI?$AAn?$AAt?$AAe?$AAl?$AA?5?$AAP?$AAe?$AAn?$AAt?$AAi?$AAu?$AAm?$AA?5?$AAP?$AAr?$AAo?$AAc?$AAe?$AAs?$AAs?$AAo?$AAr?$AA?5?$AAE?$AAx?$AAt?$AAr?$AAe?$AAm?$AAe?$AA?5@ 0006ee38     UefiShellDebug1CommandsLib:PrintInfo.obj
 0002:0000fe8c       ??_C@_1DG@JLGLHAFK@?$AAI?$AAn?$AAt?$AAe?$AAl?$AA?5?$AAC?$AAo?$AAr?$AAe?$AA?5?$AAS?$AAo?$AAl?$AAo?$AA?5?$AAP?$AAr?$AAo?$AAc?$AAe?$AAs?$AAs?$AAo?$AAr?$AA?6?$AA?$AA@ 0006ee8c     UefiShellDebug1CommandsLib:PrintInfo.obj
 0002:0000fec4       ??_C@_1DI@JGEHJCPH@?$AAI?$AAn?$AAt?$AAe?$AAl?$AA?5?$AAC?$AAo?$AAr?$AAe?$AA?5?$AA2?$AA?5?$AAD?$AAu?$AAo?$AA?5?$AAP?$AAr?$AAo?$AAc?$AAe?$AAs?$AAs?$AAo?$AAr?$AA?6?$AA?$AA@ 0006eec4     UefiShellDebug1CommandsLib:PrintInfo.obj
 0002:0000fefc       ??_C@_1BC@OPEHEBFA@?$AAI?$AAB?$AAM?$AA?5?$AA3?$AA9?$AA0?$AA?6?$AA?$AA@ 0006eefc     UefiShellDebug1CommandsLib:PrintInfo.obj
 0002:0000ff10       ??_C@_17EJNDEOLN@?$AAG?$AA4?$AA?6?$AA?$AA@ 0006ef10     UefiShellDebug1CommandsLib:PrintInfo.obj
 0002:0000ff18       ??_C@_17ICIPJNBI@?$AAG?$AA5?$AA?6?$AA?$AA@ 0006ef18     UefiShellDebug1CommandsLib:PrintInfo.obj
 0002:0000ff20       ??_C@_17EBLOPLG@?$AAG?$AA6?$AA?6?$AA?$AA@ 0006ef20     UefiShellDebug1CommandsLib:PrintInfo.obj
 0002:0000ff28       ??_C@_1BO@JNODFENM@?$AAz?$AAA?$AAr?$AAc?$AAh?$AAi?$AAt?$AAe?$AAc?$AAt?$AAu?$AAr?$AAe?$AA?6?$AA?$AA@ 0006ef28     UefiShellDebug1CommandsLib:PrintInfo.obj
 0002:0000ff48       ??_C@_1DC@BMHNHMCB@?$AAI?$AAn?$AAt?$AAe?$AAl?$AA?5?$AAC?$AAo?$AAr?$AAe?$AA?5?$AAi?$AA5?$AA?5?$AAp?$AAr?$AAo?$AAc?$AAe?$AAs?$AAs?$AAo?$AAr?$AA?6?$AA?$AA@ 0006ef48     UefiShellDebug1CommandsLib:PrintInfo.obj
 0002:0000ff7c       ??_C@_1DC@CDKDKBJA@?$AAI?$AAn?$AAt?$AAe?$AAl?$AA?5?$AAC?$AAo?$AAr?$AAe?$AA?5?$AAi?$AA3?$AA?5?$AAp?$AAr?$AAo?$AAc?$AAe?$AAs?$AAs?$AAo?$AAr?$AA?6?$AA?$AA@ 0006ef7c     UefiShellDebug1CommandsLib:PrintInfo.obj
 0002:0000ffb0       ??_C@_1BA@DPAOFKDF@?$AAV?$AAi?$AAa?$AAC?$AA7?$AAM?$AA?6?$AA?$AA@ 0006efb0     UefiShellDebug1CommandsLib:PrintInfo.obj
 0002:0000ffc0       ??_C@_1BA@BIABALPN@?$AAV?$AAi?$AAa?$AAC?$AA7?$AAD?$AA?6?$AA?$AA@ 0006efc0     UefiShellDebug1CommandsLib:PrintInfo.obj
 0002:0000ffd0       ??_C@_1O@KLIDCNLL@?$AAV?$AAi?$AAa?$AAC?$AA7?$AA?6?$AA?$AA@ 0006efd0     UefiShellDebug1CommandsLib:PrintInfo.obj
 0002:0000ffe0       ??_C@_1M@DBKOHNOL@?$AAE?$AAd?$AAe?$AAn?$AA?6?$AA?$AA@ 0006efe0     UefiShellDebug1CommandsLib:PrintInfo.obj
 0002:0000fff0       ??_C@_1FK@HOMBONFK@?$AAM?$AAu?$AAl?$AAt?$AAi?$AA?9?$AAC?$AAo?$AAr?$AAe?$AA?5?$AAI?$AAn?$AAt?$AAe?$AAl?$AA?5?$AAX?$AAe?$AAo?$AAn?$AA?5?$AAp?$AAr?$AAo?$AAc?$AAe?$AAs?$AAs?$AAo?$AAr?$AA?5@ 0006eff0     UefiShellDebug1CommandsLib:PrintInfo.obj
 0002:00010050       ??_C@_1EA@OGNJEDMM@?$AAA?$AAM?$AAD?$AA?5?$AAP?$AAh?$AAe?$AAn?$AAo?$AAm?$AA?5?$AAI?$AAI?$AA?5?$AAP?$AAr?$AAo?$AAc?$AAe?$AAs?$AAs?$AAo?$AAr?$AA?5?$AAF?$AAa?$AAm?$AAi?$AAl?$AAy?$AA?6?$AA?$AA@ 0006f050     UefiShellDebug1CommandsLib:PrintInfo.obj
 0002:00010090       ??_C@_1EA@JCFCBKHL@?$AAA?$AAM?$AAD?$AA?5?$AAA?$AAl?$AAt?$AAh?$AAo?$AAn?$AA?5?$AAI?$AAI?$AA?5?$AAP?$AAr?$AAo?$AAc?$AAe?$AAs?$AAs?$AAo?$AAr?$AA?5?$AAF?$AAa?$AAm?$AAi?$AAl?$AAy?$AA?6?$AA?$AA@ 0006f090     UefiShellDebug1CommandsLib:PrintInfo.obj
 0002:000100d0       ??_C@_1EO@MPMLOLPM@?$AAS?$AAi?$AAx?$AA?9?$AAC?$AAo?$AAr?$AAe?$AA?5?$AAA?$AAM?$AAD?$AA?5?$AAO?$AAp?$AAt?$AAe?$AAr?$AAo?$AAn?$AA?5?$AAP?$AAr?$AAo?$AAc?$AAe?$AAs?$AAs?$AAo?$AAr?$AA?5?$AAF@ 0006f0d0     UefiShellDebug1CommandsLib:PrintInfo.obj
 0002:00010120       ??_C@_1EA@MJCKMPOO@?$AAA?$AAM?$AAD?$AA?5?$AAS?$AAe?$AAm?$AAp?$AAr?$AAo?$AAn?$AA?5?$AAM?$AA?5?$AAP?$AAr?$AAo?$AAc?$AAe?$AAs?$AAs?$AAo?$AAr?$AA?5?$AAF?$AAa?$AAm?$AAi?$AAl?$AAy?$AA?6?$AA?$AA@ 0006f120     UefiShellDebug1CommandsLib:PrintInfo.obj
 0002:00010160       ??_C@_1M@GCJABAPG@?$AAi?$AA8?$AA6?$AA0?$AA?6?$AA?$AA@ 0006f160     UefiShellDebug1CommandsLib:PrintInfo.obj
 0002:0001016c       ??_C@_1M@INFCHLMI@?$AAi?$AA9?$AA6?$AA0?$AA?6?$AA?$AA@ 0006f16c     UefiShellDebug1CommandsLib:PrintInfo.obj
 0002:00010178       ??_C@_1O@FFALJHFK@?$AAA?$AAR?$AAM?$AAv?$AA7?$AA?6?$AA?$AA@ 0006f178     UefiShellDebug1CommandsLib:PrintInfo.obj
 0002:00010188       ??_C@_1O@KEFNCFIP@?$AAA?$AAR?$AAM?$AAv?$AA8?$AA?6?$AA?$AA@ 0006f188     UefiShellDebug1CommandsLib:PrintInfo.obj
 0002:00010198       ??_C@_1M@MNICBENI@?$AAS?$AAH?$AA?9?$AA3?$AA?6?$AA?$AA@ 0006f198     UefiShellDebug1CommandsLib:PrintInfo.obj
 0002:000101a4       ??_C@_1M@NAIHCEGA@?$AAS?$AAH?$AA?9?$AA4?$AA?6?$AA?$AA@ 0006f1a4     UefiShellDebug1CommandsLib:PrintInfo.obj
 0002:000101b0       ??_C@_19KGHFPGHK@?$AAA?$AAR?$AAM?$AA?6?$AA?$AA@ 0006f1b0     UefiShellDebug1CommandsLib:PrintInfo.obj
 0002:000101bc       ??_C@_1BG@FGKDBBBD@?$AAS?$AAt?$AAr?$AAo?$AAn?$AAg?$AAA?$AAR?$AAM?$AA?6?$AA?$AA@ 0006f1bc     UefiShellDebug1CommandsLib:PrintInfo.obj
 0002:000101d4       ??_C@_1M@HBBGCDAE@?$AA6?$AAx?$AA8?$AA6?$AA?6?$AA?$AA@ 0006f1d4     UefiShellDebug1CommandsLib:PrintInfo.obj
 0002:000101e0       ??_C@_1BC@CAENEHEH@?$AAM?$AAe?$AAd?$AAi?$AAa?$AAG?$AAX?$AA?6?$AA?$AA@ 0006f1e0     UefiShellDebug1CommandsLib:PrintInfo.obj
 0002:000101f4       ??_C@_19GAJHJJP@?$AAM?$AAI?$AAI?$AA?6?$AA?$AA@ 0006f1f4     UefiShellDebug1CommandsLib:PrintInfo.obj
 0002:00010200       ??_C@_1BC@GAGODIOP@?$AAW?$AAi?$AAn?$AAC?$AAh?$AAi?$AAp?$AA?6?$AA?$AA@ 0006f200     UefiShellDebug1CommandsLib:PrintInfo.obj
 0002:00010214       ??_C@_19DDLOCMOF@?$AAD?$AAS?$AAP?$AA?6?$AA?$AA@ 0006f214     UefiShellDebug1CommandsLib:PrintInfo.obj
 0002:00010220       ??_C@_1CC@OGDPKOEN@?$AAV?$AAi?$AAd?$AAe?$AAo?$AA?5?$AAP?$AAr?$AAo?$AAc?$AAe?$AAs?$AAs?$AAo?$AAr?$AA?6?$AA?$AA@ 0006f220     UefiShellDebug1CommandsLib:PrintInfo.obj
 0002:00010248       ??_C@_1FC@GDKAJBMP@?$AAT?$AAh?$AAe?$AA?5?$AAs?$AAy?$AAs?$AAt?$AAe?$AAm?$AA?5?$AAr?$AAe?$AAs?$AAe?$AAt?$AA?5?$AAi?$AAs?$AA?5?$AAe?$AAn?$AAa?$AAb?$AAl?$AAe?$AAd?$AA?5?$AAb?$AAy?$AA?5?$AAt@ 0006f248     UefiShellDebug1CommandsLib:PrintInfo.obj
 0002:000102a0       ??_C@_1FE@CMLGLDEE@?$AAT?$AAh?$AAe?$AA?5?$AAs?$AAy?$AAs?$AAt?$AAe?$AAm?$AA?5?$AAr?$AAe?$AAs?$AAe?$AAt?$AA?5?$AAi?$AAs?$AA?5?$AAd?$AAi?$AAs?$AAa?$AAb?$AAl?$AAe?$AAd?$AA?5?$AAb?$AAy?$AA?5@ 0006f2a0     UefiShellDebug1CommandsLib:PrintInfo.obj
 0002:000102f4       ??_C@_0BH@HOJGLDNJ@Smbios?5?$CB?$DN?5?$CI?$CIvoid?5?$CK?$CJ?50?$CJ?$AA@ 0006f2f4     UefiShellDebug1CommandsLib:LibSmbiosView.obj
 0002:00010310       ??_C@_0EP@HGFKEKOK@c?3?2edk2?2ShellPkg?2Library?2UefiShe@ 0006f310     UefiShellDebug1CommandsLib:LibSmbiosView.obj
 0002:00010360       ??_C@_0CA@ODFNMGEO@?$CILoopVar3?$CL2?$CJ?$DM?$CI2?5?$CK?5?$CI16?5?$CL?53?$CJ?5?9?51?$CJ?$AA@ 0006f360     UefiShellDebug1CommandsLib:Compress.obj
 0002:00010380       ??_C@_0DP@FCNGBJNI@c?3?2edk2?2ShellPkg?2Library?2UefiShe@ 0006f380     UefiShellDebug1CommandsLib:Compress.obj
 0002:000103c0       ??_C@_0BG@PPMFODIF@?$CILoopVar3?$CL2?$CJ?$DM?$CI16?5?$CL?53?$CJ?$AA@ 0006f3c0     UefiShellDebug1CommandsLib:Compress.obj
 0002:000103d8       ??_C@_1BO@CAEDEPBC@?$AAG?$AAo?$AA?5?$AAT?$AAo?$AA?5?$AAO?$AAf?$AAf?$AAs?$AAe?$AAt?$AA?3?$AA?5?$AA?$AA@ 0006f3d8     UefiShellDebug1CommandsLib:MainHexEditor.obj
 0002:000103f8       ??_C@_1BO@COIEEELA@?$AAI?$AAn?$AAv?$AAa?$AAl?$AAi?$AAd?$AA?5?$AAO?$AAf?$AAf?$AAs?$AAe?$AAt?$AA?$AA@ 0006f3f8     UefiShellDebug1CommandsLib:MainHexEditor.obj
 0002:00010418       ??_C@_1HG@FPDDGJIB@?$AAD?$AAa?$AAn?$AAg?$AAe?$AAr?$AAo?$AAu?$AAs?$AA?5?$AAt?$AAo?$AA?5?$AAs?$AAa?$AAv?$AAe?$AA?5?$AAd?$AAi?$AAs?$AAk?$AA?1?$AAm?$AAe?$AAm?$AA?5?$AAb?$AAu?$AAf?$AAf?$AAe@ 0006f418     UefiShellDebug1CommandsLib:MainHexEditor.obj
 0002:00010490       ??_C@_1DK@LMKJFHLE@?$AAB?$AAu?$AAf?$AAf?$AAe?$AAr?$AAS?$AAa?$AAv?$AAe?$AA?3?$AA?5?$AAP?$AAr?$AAo?$AAb?$AAl?$AAe?$AAm?$AAs?$AA?5?$AAW?$AAr?$AAi?$AAt?$AAi?$AAn?$AAg?$AA?$AA@ 0006f490     UefiShellDebug1CommandsLib:MainHexEditor.obj
 0002:000104cc       ??_C@_1CI@CKMNKNGO@?$AAI?$AAn?$AAv?$AAa?$AAl?$AAi?$AAd?$AA?5?$AAB?$AAl?$AAo?$AAc?$AAk?$AA?5?$AAS?$AAt?$AAa?$AAr?$AAt?$AA?$AA@ 0006f4cc     UefiShellDebug1CommandsLib:MainHexEditor.obj
 0002:000104f4       ??_C@_1CE@EGEFGBDB@?$AAI?$AAn?$AAv?$AAa?$AAl?$AAi?$AAd?$AA?5?$AAB?$AAl?$AAo?$AAc?$AAk?$AA?5?$AAE?$AAn?$AAd?$AA?$AA@ 0006f4f4     UefiShellDebug1CommandsLib:MainHexEditor.obj
 0002:00010518       ??_C@_1CK@NPEDAFHE@?$AAN?$AAo?$AA?5?$AAB?$AAl?$AAo?$AAc?$AAk?$AA?5?$AAi?$AAs?$AA?5?$AAS?$AAe?$AAl?$AAe?$AAc?$AAt?$AAe?$AAd?$AA?$AA@ 0006f518     UefiShellDebug1CommandsLib:MainHexEditor.obj
 0002:00010544       ??_C@_1CC@EMEHDNOH@?$AAN?$AAo?$AAt?$AAh?$AAi?$AAn?$AAg?$AA?5?$AAt?$AAo?$AA?5?$AAP?$AAa?$AAs?$AAt?$AAe?$AA?$AA@ 0006f544     UefiShellDebug1CommandsLib:MainHexEditor.obj
 0002:00010568       ??_C@_1FC@OIPNEKNP@?$AAB?$AAu?$AAf?$AAf?$AAe?$AAr?$AA?5?$AAm?$AAo?$AAd?$AAi?$AAf?$AAi?$AAe?$AAd?$AA?4?$AA?5?$AAS?$AAa?$AAv?$AAe?$AA?5?$AA?$CI?$AAY?$AAe?$AAs?$AA?1?$AAN?$AAo?$AA?1?$AAC?$AAa@ 0006f568     UefiShellDebug1CommandsLib:MainHexEditor.obj
 0002:000105bc       ??_C@_1CO@DPNHKEEI@?$AAB?$AAl?$AAo?$AAc?$AAk?$AA?5?$AAD?$AAe?$AAv?$AAi?$AAc?$AAe?$AA?5?$AAt?$AAo?$AA?5?$AAO?$AAp?$AAe?$AAn?$AA?3?$AA?5?$AA?$AA@ 0006f5bc     UefiShellDebug1CommandsLib:MainHexEditor.obj
 0002:000105ec       ??_C@_1CE@LPNEOONB@?$AAF?$AAi?$AAr?$AAs?$AAt?$AA?5?$AAB?$AAl?$AAo?$AAc?$AAk?$AA?5?$AAN?$AAo?$AA?4?$AA?3?$AA?5?$AA?$AA@ 0006f5ec     UefiShellDebug1CommandsLib:MainHexEditor.obj
 0002:00010610       ??_C@_1CG@DGHIFMFN@?$AAN?$AAu?$AAm?$AAb?$AAe?$AAr?$AA?5?$AAo?$AAf?$AA?5?$AAB?$AAl?$AAo?$AAc?$AAk?$AAs?$AA?3?$AA?5?$AA?$AA@ 0006f610     UefiShellDebug1CommandsLib:MainHexEditor.obj
 0002:00010638       ??_C@_1CE@CFGOJKIA@?$AAS?$AAt?$AAa?$AAr?$AAt?$AAi?$AAn?$AAg?$AA?5?$AAO?$AAf?$AAf?$AAs?$AAe?$AAt?$AA?3?$AA?5?$AA?$AA@ 0006f638     UefiShellDebug1CommandsLib:MainHexEditor.obj
 0002:0001065c       ??_C@_1BM@CIHHBIME@?$AAB?$AAu?$AAf?$AAf?$AAe?$AAr?$AA?5?$AAS?$AAi?$AAz?$AAe?$AA?3?$AA?5?$AA?$AA@ 0006f65c     UefiShellDebug1CommandsLib:MainHexEditor.obj
 0002:00010678       ??_C@_1CE@EKGFFJHF@?$AAI?$AAn?$AAv?$AAa?$AAl?$AAi?$AAd?$AA?5?$AAp?$AAa?$AAr?$AAa?$AAm?$AAe?$AAt?$AAe?$AAr?$AA?$AA@ 0006f678     UefiShellDebug1CommandsLib:MainHexEditor.obj
 0002:0001069c       ??_C@_1CG@CCBIICDO@?$AAR?$AAe?$AAa?$AAd?$AA?5?$AAD?$AAe?$AAv?$AAi?$AAc?$AAe?$AA?5?$AAE?$AAr?$AAr?$AAo?$AAr?$AA?$CB?$AA?$AA@ 0006f69c     UefiShellDebug1CommandsLib:MainHexEditor.obj
 0002:000106c4       ??_C@_1BK@OCMNPPO@?$AAU?$AAE?$AAF?$AAI?$AA?5?$AAH?$AAE?$AAX?$AAE?$AAD?$AAI?$AAT?$AA?$AA@ 0006f6c4     UefiShellDebug1CommandsLib:MainHexEditor.obj
 0002:000106e0       ??_C@_0EM@BFLKCCGI@c?3?2edk2?2ShellPkg?2Library?2UefiShe@ 0006f6e0     UefiShellDebug1CommandsLib:MainHexEditor.obj
 0002:00010730       ??_C@_1FK@DGMBPBDL@?$AAD?$AAi?$AAs?$AAk?$AA?1?$AAM?$AAe?$AAm?$AA?5?$AAB?$AAu?$AAf?$AAf?$AAe?$AAr?$AA?5?$AAL?$AAe?$AAn?$AAg?$AAt?$AAh?$AA?5?$AAs?$AAh?$AAo?$AAu?$AAl?$AAd?$AA?5?$AAn?$AAo@ 0006f730     UefiShellDebug1CommandsLib:MainHexEditor.obj
 0002:00010790       _HexMainMenuHelpInfo       0006f790     UefiShellDebug1CommandsLib:MainHexEditor.obj
 0002:000107c0       _HexEditorMenuItems        0006f7c0     UefiShellDebug1CommandsLib:MainHexEditor.obj
 0002:00010818       ??_C@_19KDMGDCHB@?$AA?$CF?$AA8?$AAX?$AA?5?$AA?$AA@ 0006f818     UefiShellDebug1CommandsLib:BufferImage.obj
 0002:00010824       ??_C@_13COJANIEC@?$AA0?$AA?$AA@ 0006f824     UefiShellDebug1CommandsLib:BufferImage.obj
 0002:00010828       ??_C@_17GMAIGMDG@?$AA?$CF?$AAx?$AA?5?$AA?$AA@ 0006f828     UefiShellDebug1CommandsLib:BufferImage.obj
 0002:00010830       ??_C@_19GNCKHPDA@?$AA?$CF?$AAx?$AA?5?$AA?5?$AA?$AA@ 0006f830     UefiShellDebug1CommandsLib:BufferImage.obj
 0002:0001083c       ??_C@_19NMAFMAH@?$AA?5?$AA?5?$AA?5?$AA?5?$AA?$AA@ 0006f83c     UefiShellDebug1CommandsLib:BufferImage.obj
 0002:00010848       ??_C@_17MEDFOIMI@?$AA?5?$AA?5?$AA?5?$AA?$AA@ 0006f848     UefiShellDebug1CommandsLib:BufferImage.obj
 0002:00010850       ??_C@_0EK@GLOKNLLC@c?3?2edk2?2ShellPkg?2Library?2UefiShe@ 0006f850     UefiShellDebug1CommandsLib:BufferImage.obj
 0002:0001089c       ??_C@_17GMPJMPF@?$AA?$CF?$AAs?$AA?5?$AA?$AA@ 0006f89c     UefiShellDebug1CommandsLib:EditTitleBar.obj
 0002:000108a4       ??_C@_1M@EHCOGDLN@?$AA?$CF?$AAs?$AA?5?$AA?5?$AA?5?$AA?$AA@ 0006f8a4     UefiShellDebug1CommandsLib:EditTitleBar.obj
 0002:000108b0       ??_C@_1O@NGMHFILL@?$AA?4?$AA?4?$AA?4?$AA?5?$AA?5?$AA?5?$AA?$AA@ 0006f8b0     UefiShellDebug1CommandsLib:EditTitleBar.obj
 0002:000108c0       ??_C@_1CA@JILHKOPA@?$AA?5?$AA?5?$AA?5?$AA?5?$AA?5?$AAA?$AAS?$AAC?$AAI?$AAI?$AA?5?$AA?5?$AA?5?$AA?5?$AA?5?$AA?$AA@ 0006f8c0     UefiShellDebug1CommandsLib:EditTitleBar.obj
 0002:000108e0       ??_C@_1CA@DJBIHGGP@?$AA?5?$AA?5?$AA?5?$AA?5?$AA?5?$AAU?$AAN?$AAI?$AAC?$AAO?$AAD?$AAE?$AA?5?$AA?5?$AA?5?$AA?$AA@ 0006f8e0     UefiShellDebug1CommandsLib:EditTitleBar.obj
 0002:00010900       ??_C@_1BI@ONNEOCHN@?$AAR?$AAe?$AAa?$AAd?$AAO?$AAn?$AAl?$AAy?$AA?5?$AA?5?$AA?5?$AA?$AA@ 0006f900     UefiShellDebug1CommandsLib:EditTitleBar.obj
 0002:00010918       ??_C@_1BI@LOBCKCIO@?$AA?5?$AA?5?$AA?5?$AA?5?$AA?5?$AA?5?$AA?5?$AA?5?$AA?5?$AA?5?$AA?5?$AA?$AA@ 0006f918     UefiShellDebug1CommandsLib:EditTitleBar.obj
 0002:00010930       ??_C@_1CI@OGNHBGN@?$AAO?$AAf?$AAf?$AAs?$AAe?$AAt?$AA?5?$AA?$CF?$AAX?$AA?5?$AA?$HM?$AA?5?$AAS?$AAi?$AAz?$AAe?$AA?5?$AA?$CF?$AAX?$AA?$AA@ 0006f930     UefiShellDebug1CommandsLib:EditTitleBar.obj
 0002:00010958       ??_C@_1BC@LJMDACDF@?$AAM?$AAo?$AAd?$AAi?$AAf?$AAi?$AAe?$AAd?$AA?$AA@ 0006f958     UefiShellDebug1CommandsLib:EditTitleBar.obj
 0002:0001096c       ??_C@_1O@HMNHGLNF@?$AAY?$AAe?$AAs?$AA?1?$AAN?$AAo?$AA?$AA@ 0006f96c     UefiShellDebug1CommandsLib:EditInputBar.obj
 0002:0001097c       ??_C@_1BE@GKDFJNJK@?$AA?5?$AAR?$AAe?$AAs?$AAe?$AAr?$AAv?$AAe?$AAd?$AA?$AA@ 0006f97c     UefiShellDebug1CommandsLib:QueryTable.obj
 0002:00010990       ??_C@_1O@MEHELOHD@?$AA?5?$AAO?$AAt?$AAh?$AAe?$AAr?$AA?$AA@ 0006f990     UefiShellDebug1CommandsLib:QueryTable.obj
 0002:000109a0       ??_C@_1BC@GCBPLEMC@?$AA?5?$AAU?$AAn?$AAk?$AAn?$AAo?$AAw?$AAn?$AA?$AA@ 0006f9a0     UefiShellDebug1CommandsLib:QueryTable.obj
 0002:000109b4       ??_C@_1BG@DBMGKKNC@?$AA?5?$AAA?$AAP?$AAM?$AA?5?$AAT?$AAi?$AAm?$AAe?$AAr?$AA?$AA@ 0006f9b4     UefiShellDebug1CommandsLib:QueryTable.obj
 0002:000109cc       ??_C@_1BI@KDNAJOKG@?$AA?5?$AAM?$AAo?$AAd?$AAe?$AAm?$AA?5?$AAR?$AAi?$AAn?$AAg?$AA?$AA@ 0006f9cc     UefiShellDebug1CommandsLib:QueryTable.obj
 0002:000109e4       ??_C@_1BI@KOEJLOLP@?$AA?5?$AAL?$AAA?$AAN?$AA?5?$AAR?$AAe?$AAm?$AAo?$AAt?$AAe?$AA?$AA@ 0006f9e4     UefiShellDebug1CommandsLib:QueryTable.obj
 0002:000109fc       ??_C@_1BM@DDPHONKP@?$AA?5?$AAP?$AAo?$AAw?$AAe?$AAr?$AA?5?$AAS?$AAw?$AAi?$AAt?$AAc?$AAh?$AA?$AA@ 0006f9fc     UefiShellDebug1CommandsLib:QueryTable.obj
 0002:00010a18       ??_C@_1CG@BNFLMOMD@?$AA?5?$AAA?$AAC?$AA?5?$AAP?$AAo?$AAw?$AAe?$AAr?$AA?5?$AAR?$AAe?$AAs?$AAt?$AAo?$AAr?$AAe?$AAd?$AA?$AA@ 0006fa18     UefiShellDebug1CommandsLib:QueryTable.obj
 0002:00010a40       ??_C@_1BO@NKAGCGLK@?$AA?5?$AAH?$AAo?$AAs?$AAt?$AAi?$AAn?$AAg?$AA?5?$AAb?$AAo?$AAa?$AAr?$AAd?$AA?$AA@ 0006fa40     UefiShellDebug1CommandsLib:QueryTable.obj
 0002:00010a60       ??_C@_1HA@PNHHHGEL@?$AA?5?$AAR?$AAe?$AAq?$AAu?$AAi?$AAr?$AAe?$AAs?$AA?5?$AAa?$AAt?$AA?5?$AAl?$AAe?$AAa?$AAs?$AAt?$AA?5?$AAo?$AAn?$AAe?$AA?5?$AAd?$AAa?$AAu?$AAg?$AAh?$AAt?$AAe?$AAr?$AA?5@ 0006fa60     UefiShellDebug1CommandsLib:QueryTable.obj
 0002:00010ad0       ??_C@_1BG@DNJINIFJ@?$AA?5?$AAR?$AAe?$AAm?$AAo?$AAv?$AAa?$AAb?$AAl?$AAe?$AA?$AA@ 0006fad0     UefiShellDebug1CommandsLib:QueryTable.obj
 0002:00010ae8       ??_C@_1BK@GKKDLJDJ@?$AA?5?$AAR?$AAe?$AAp?$AAl?$AAa?$AAc?$AAe?$AAa?$AAb?$AAl?$AAe?$AA?$AA@ 0006fae8     UefiShellDebug1CommandsLib:QueryTable.obj
 0002:00010b04       ??_C@_1BO@DAOKEGGB@?$AA?5?$AAH?$AAo?$AAt?$AA?5?$AAs?$AAw?$AAa?$AAp?$AAp?$AAa?$AAb?$AAl?$AAe?$AA?$AA@ 0006fb04     UefiShellDebug1CommandsLib:QueryTable.obj
 0002:00010b24       ??_C@_1BM@GJJNJBFG@?$AA?5?$AAS?$AAe?$AAr?$AAv?$AAe?$AAr?$AA?5?$AAB?$AAl?$AAa?$AAd?$AAe?$AA?$AA@ 0006fb24     UefiShellDebug1CommandsLib:QueryTable.obj
 0002:00010b40       ??_C@_1CK@FNJGONFO@?$AA?5?$AAC?$AAo?$AAn?$AAn?$AAe?$AAc?$AAt?$AAi?$AAv?$AAi?$AAt?$AAy?$AA?5?$AAS?$AAw?$AAi?$AAt?$AAc?$AAh?$AA?$AA@ 0006fb40     UefiShellDebug1CommandsLib:QueryTable.obj
 0002:00010b6c       ??_C@_1DE@NKMEOENE@?$AA?5?$AAS?$AAy?$AAs?$AAt?$AAe?$AAm?$AA?5?$AAM?$AAa?$AAn?$AAa?$AAg?$AAe?$AAm?$AAe?$AAn?$AAt?$AA?5?$AAM?$AAo?$AAd?$AAu?$AAl?$AAe?$AA?$AA@ 0006fb6c     UefiShellDebug1CommandsLib:QueryTable.obj
 0002:00010ba0       ??_C@_1CE@LIIEMPHG@?$AA?5?$AAP?$AAr?$AAo?$AAc?$AAe?$AAs?$AAs?$AAo?$AAr?$AA?5?$AAM?$AAo?$AAd?$AAu?$AAl?$AAe?$AA?$AA@ 0006fba0     UefiShellDebug1CommandsLib:QueryTable.obj
 0002:00010bc4       ??_C@_1BI@BIJEKCMA@?$AA?5?$AAI?$AA?1?$AAO?$AA?5?$AAM?$AAo?$AAd?$AAu?$AAl?$AAe?$AA?$AA@ 0006fbc4     UefiShellDebug1CommandsLib:QueryTable.obj
 0002:00010bdc       ??_C@_1BO@EDNHMPEI@?$AA?5?$AAM?$AAe?$AAm?$AAo?$AAr?$AAy?$AA?5?$AAM?$AAo?$AAd?$AAu?$AAl?$AAe?$AA?$AA@ 0006fbdc     UefiShellDebug1CommandsLib:QueryTable.obj
 0002:00010bfc       ??_C@_1CA@EMPCDKKO@?$AA?5?$AAD?$AAa?$AAu?$AAg?$AAh?$AAt?$AAe?$AAr?$AA?5?$AAb?$AAo?$AAa?$AAr?$AAd?$AA?$AA@ 0006fbfc     UefiShellDebug1CommandsLib:QueryTable.obj
 0002:00010c1c       ??_C@_1BK@GOLJFFNO@?$AA?5?$AAM?$AAo?$AAt?$AAh?$AAe?$AAr?$AAb?$AAo?$AAa?$AAr?$AAd?$AA?$AA@ 0006fc1c     UefiShellDebug1CommandsLib:QueryTable.obj
 0002:00010c38       ??_C@_1DC@DBOEEGIB@?$AA?5?$AAP?$AAr?$AAo?$AAc?$AAe?$AAs?$AAs?$AAo?$AAr?$AA?1?$AAM?$AAe?$AAm?$AAo?$AAr?$AAy?$AA?5?$AAM?$AAo?$AAd?$AAu?$AAl?$AAe?$AA?$AA@ 0006fc38     UefiShellDebug1CommandsLib:QueryTable.obj
 0002:00010c6c       ??_C@_1CK@LNJLFKOO@?$AA?5?$AAP?$AAr?$AAo?$AAc?$AAe?$AAs?$AAs?$AAo?$AAr?$AA?1?$AAI?$AAO?$AA?5?$AAM?$AAo?$AAd?$AAu?$AAl?$AAe?$AA?$AA@ 0006fc6c     UefiShellDebug1CommandsLib:QueryTable.obj
 0002:00010c98       ??_C@_1CI@BDNIGKAE@?$AA?5?$AAI?$AAn?$AAt?$AAe?$AAr?$AAc?$AAo?$AAn?$AAn?$AAe?$AAc?$AAt?$AA?5?$AAB?$AAo?$AAa?$AAr?$AAd?$AA?$AA@ 0006fc98     UefiShellDebug1CommandsLib:QueryTable.obj
 0002:00010cc0       ??_C@_1BA@OOELPHJM@?$AA?5?$AA?5?$AAO?$AAt?$AAh?$AAe?$AAr?$AA?$AA@ 0006fcc0     UefiShellDebug1CommandsLib:QueryTable.obj
 0002:00010cd0       ??_C@_1BE@BACNLAAJ@?$AA?5?$AA?5?$AAU?$AAn?$AAk?$AAn?$AAo?$AAw?$AAn?$AA?$AA@ 0006fcd0     UefiShellDebug1CommandsLib:QueryTable.obj
 0002:00010ce4       ??_C@_1BE@IFPFPJIK@?$AA?5?$AA?5?$AAD?$AAe?$AAs?$AAk?$AAt?$AAo?$AAp?$AA?$AA@ 0006fce4     UefiShellDebug1CommandsLib:QueryTable.obj
 0002:00010cf8       ??_C@_1CM@FOJEGAAF@?$AA?5?$AA?5?$AAL?$AAo?$AAw?$AA?5?$AAP?$AAr?$AAo?$AAf?$AAi?$AAl?$AAe?$AA?5?$AAD?$AAe?$AAs?$AAk?$AAt?$AAo?$AAp?$AA?$AA@ 0006fcf8     UefiShellDebug1CommandsLib:QueryTable.obj
 0002:00010d24       ??_C@_1BI@DDDHDBNI@?$AA?5?$AA?5?$AAP?$AAi?$AAz?$AAz?$AAa?$AA?5?$AAB?$AAo?$AAx?$AA?$AA@ 0006fd24     UefiShellDebug1CommandsLib:QueryTable.obj
 0002:00010d3c       ??_C@_1BK@DJJPJBEJ@?$AA?5?$AA?5?$AAM?$AAi?$AAn?$AAi?$AA?5?$AAT?$AAo?$AAw?$AAe?$AAr?$AA?$AA@ 0006fd3c     UefiShellDebug1CommandsLib:QueryTable.obj
 0002:00010d58       ??_C@_1BA@OJBEOHPG@?$AA?5?$AA?5?$AAT?$AAo?$AAw?$AAe?$AAr?$AA?$AA@ 0006fd58     UefiShellDebug1CommandsLib:QueryTable.obj
 0002:00010d68       ??_C@_1BG@BFFIIHOJ@?$AA?5?$AA?5?$AAP?$AAo?$AAr?$AAt?$AAa?$AAb?$AAl?$AAe?$AA?$AA@ 0006fd68     UefiShellDebug1CommandsLib:QueryTable.obj
 0002:00010d80       ??_C@_1BC@EGOILCKF@?$AA?5?$AA?5?$AAL?$AAa?$AAp?$AAt?$AAo?$AAp?$AA?$AA@ 0006fd80     UefiShellDebug1CommandsLib:QueryTable.obj
 0002:00010d94       ??_C@_1BG@FLNAIIBC@?$AA?5?$AA?5?$AAN?$AAo?$AAt?$AAe?$AAb?$AAo?$AAo?$AAk?$AA?$AA@ 0006fd94     UefiShellDebug1CommandsLib:QueryTable.obj
 0002:00010dac       ??_C@_1BI@MAFKLHGL@?$AA?5?$AA?5?$AAH?$AAa?$AAn?$AAd?$AA?5?$AAH?$AAe?$AAl?$AAd?$AA?$AA@ 0006fdac     UefiShellDebug1CommandsLib:QueryTable.obj
 0002:00010dc4       ??_C@_1CE@CAKEGNHA@?$AA?5?$AA?5?$AAD?$AAo?$AAc?$AAk?$AAi?$AAn?$AAg?$AA?5?$AAS?$AAt?$AAa?$AAt?$AAi?$AAo?$AAn?$AA?$AA@ 0006fdc4     UefiShellDebug1CommandsLib:QueryTable.obj
 0002:00010de8       ??_C@_1BK@IOEHDKCF@?$AA?5?$AA?5?$AAA?$AAl?$AAl?$AA?5?$AAi?$AAn?$AA?5?$AAO?$AAn?$AAe?$AA?$AA@ 0006fde8     UefiShellDebug1CommandsLib:QueryTable.obj
 0002:00010e04       ??_C@_1BO@BDBJGHIN@?$AA?5?$AA?5?$AAS?$AAu?$AAb?$AA?5?$AAN?$AAo?$AAt?$AAe?$AAb?$AAo?$AAo?$AAk?$AA?$AA@ 0006fe04     UefiShellDebug1CommandsLib:QueryTable.obj
 0002:00010e24       ??_C@_1BO@FODHBBBJ@?$AA?5?$AA?5?$AAS?$AAp?$AAa?$AAc?$AAe?$AA?9?$AAs?$AAa?$AAv?$AAi?$AAn?$AAg?$AA?$AA@ 0006fe24     UefiShellDebug1CommandsLib:QueryTable.obj
 0002:00010e44       ??_C@_1CM@FFCFCLID@?$AA?5?$AA?5?$AAM?$AAa?$AAi?$AAn?$AA?5?$AAS?$AAe?$AAr?$AAv?$AAe?$AAr?$AA?5?$AAC?$AAh?$AAa?$AAs?$AAs?$AAi?$AAs?$AA?$AA@ 0006fe44     UefiShellDebug1CommandsLib:QueryTable.obj
 0002:00010e70       ??_C@_1CI@MGPGBCKO@?$AA?5?$AA?5?$AAE?$AAx?$AAp?$AAa?$AAn?$AAs?$AAi?$AAo?$AAn?$AA?5?$AAC?$AAh?$AAa?$AAs?$AAs?$AAi?$AAs?$AA?$AA@ 0006fe70     UefiShellDebug1CommandsLib:QueryTable.obj
 0002:00010e98       ??_C@_1BK@BPJDOJEM@?$AA?5?$AA?5?$AAS?$AAu?$AAb?$AAC?$AAh?$AAa?$AAs?$AAs?$AAi?$AAs?$AA?$AA@ 0006fe98     UefiShellDebug1CommandsLib:QueryTable.obj
 0002:00010eb4       ??_C@_1DA@KLLLCEHO@?$AA?5?$AA?5?$AAB?$AAu?$AAs?$AA?5?$AAE?$AAx?$AAp?$AAa?$AAn?$AAs?$AAi?$AAo?$AAn?$AA?5?$AAC?$AAh?$AAa?$AAs?$AAs?$AAi?$AAs?$AA?$AA@ 0006feb4     UefiShellDebug1CommandsLib:QueryTable.obj
 0002:00010ee4       ??_C@_1CK@NLFMAGOA@?$AA?5?$AA?5?$AAP?$AAe?$AAr?$AAi?$AAp?$AAh?$AAe?$AAr?$AAa?$AAl?$AA?5?$AAC?$AAh?$AAa?$AAs?$AAs?$AAi?$AAs?$AA?$AA@ 0006fee4     UefiShellDebug1CommandsLib:QueryTable.obj
 0002:00010f10       ??_C@_1BO@NEMEGKEI@?$AA?5?$AA?5?$AAR?$AAA?$AAI?$AAD?$AA?5?$AAC?$AAh?$AAa?$AAs?$AAs?$AAi?$AAs?$AA?$AA@ 0006ff10     UefiShellDebug1CommandsLib:QueryTable.obj
 0002:00010f30       ??_C@_1CK@JDJBLCID@?$AA?5?$AA?5?$AAR?$AAa?$AAc?$AAk?$AA?5?$AAM?$AAo?$AAu?$AAn?$AAt?$AA?5?$AAC?$AAh?$AAa?$AAs?$AAs?$AAi?$AAs?$AA?$AA@ 0006ff30     UefiShellDebug1CommandsLib:QueryTable.obj
 0002:00010f5c       ??_C@_1CC@KPCJNEID@?$AA?5?$AA?5?$AAS?$AAe?$AAa?$AAl?$AAe?$AAd?$AA?9?$AAc?$AAa?$AAs?$AAe?$AA?5?$AAP?$AAC?$AA?$AA@ 0006ff5c     UefiShellDebug1CommandsLib:QueryTable.obj
 0002:00010f80       ??_C@_1CO@CJCOGDGK@?$AA?5?$AA?5?$AAM?$AAu?$AAl?$AAt?$AAi?$AA?9?$AAs?$AAy?$AAs?$AAt?$AAe?$AAm?$AA?5?$AAC?$AAh?$AAa?$AAs?$AAs?$AAi?$AAs?$AA?$AA@ 0006ff80     UefiShellDebug1CommandsLib:QueryTable.obj
 0002:00010fb0       ??_C@_1BK@MBPBNMOJ@?$AA?5?$AA?5?$AAC?$AAo?$AAm?$AAp?$AAa?$AAc?$AAt?$AAP?$AAC?$AAI?$AA?$AA@ 0006ffb0     UefiShellDebug1CommandsLib:QueryTable.obj
 0002:00010fcc       ??_C@_1BM@MGJOEKKH@?$AA?5?$AA?5?$AAA?$AAd?$AAv?$AAa?$AAn?$AAc?$AAe?$AAd?$AAT?$AAC?$AAA?$AA?$AA@ 0006ffcc     UefiShellDebug1CommandsLib:QueryTable.obj
 0002:00010fe8       ??_C@_1BA@FNEAJAMG@?$AA?5?$AA?5?$AAB?$AAl?$AAa?$AAd?$AAe?$AA?$AA@ 0006ffe8     UefiShellDebug1CommandsLib:QueryTable.obj
 0002:00010ff8       ??_C@_1CE@IGONFHMB@?$AA?5?$AA?5?$AAB?$AAl?$AAa?$AAd?$AAe?$AA?5?$AAE?$AAn?$AAc?$AAl?$AAo?$AAs?$AAu?$AAr?$AAe?$AA?$AA@ 0006fff8     UefiShellDebug1CommandsLib:QueryTable.obj
 0002:0001101c       ??_C@_1BC@LBPPFPIF@?$AA?5?$AA?5?$AAT?$AAa?$AAb?$AAl?$AAe?$AAt?$AA?$AA@ 0007001c     UefiShellDebug1CommandsLib:QueryTable.obj
 0002:00011030       ??_C@_1BM@HECDCPPH@?$AA?5?$AA?5?$AAC?$AAo?$AAn?$AAv?$AAe?$AAr?$AAt?$AAi?$AAb?$AAl?$AAe?$AA?$AA@ 00070030     UefiShellDebug1CommandsLib:QueryTable.obj
 0002:0001104c       ??_C@_1BK@OHFPHAAH@?$AA?5?$AA?5?$AAD?$AAe?$AAt?$AAa?$AAc?$AAh?$AAa?$AAb?$AAl?$AAe?$AA?$AA@ 0007004c     UefiShellDebug1CommandsLib:QueryTable.obj
 0002:00011068       ??_C@_1BM@EKBCHHDK@?$AA?5?$AA?5?$AAI?$AAo?$AAT?$AA?5?$AAG?$AAa?$AAt?$AAe?$AAw?$AAa?$AAy?$AA?$AA@ 00070068     UefiShellDebug1CommandsLib:QueryTable.obj
 0002:00011084       ??_C@_1BM@DCFPDGHK@?$AA?5?$AA?5?$AAE?$AAm?$AAb?$AAe?$AAd?$AAd?$AAe?$AAd?$AA?5?$AAP?$AAC?$AA?$AA@ 00070084     UefiShellDebug1CommandsLib:QueryTable.obj
 0002:000110a0       ??_C@_1BE@CCOHEFFN@?$AA?5?$AA?5?$AAM?$AAi?$AAn?$AAi?$AA?5?$AAP?$AAC?$AA?$AA@ 000700a0     UefiShellDebug1CommandsLib:QueryTable.obj
 0002:000110b4       ??_C@_1BG@JIFDCODH@?$AA?5?$AA?5?$AAS?$AAt?$AAi?$AAc?$AAk?$AA?5?$AAP?$AAC?$AA?$AA@ 000700b4     UefiShellDebug1CommandsLib:QueryTable.obj
 0002:000110cc       ??_C@_1M@CMJEHA@?$AA?5?$AAS?$AAa?$AAf?$AAe?$AA?$AA@ 000700cc     UefiShellDebug1CommandsLib:QueryTable.obj
 0002:000110d8       ??_C@_1BC@LNCEOHGE@?$AA?5?$AAW?$AAa?$AAr?$AAn?$AAi?$AAn?$AAg?$AA?$AA@ 000700d8     UefiShellDebug1CommandsLib:QueryTable.obj
 0002:000110ec       ??_C@_1BE@CGBCNJEF@?$AA?5?$AAC?$AAr?$AAi?$AAt?$AAi?$AAc?$AAa?$AAl?$AA?$AA@ 000700ec     UefiShellDebug1CommandsLib:QueryTable.obj
 0002:00011100       ??_C@_1CC@GPPBKKLG@?$AA?5?$AAN?$AAo?$AAn?$AA?9?$AAr?$AAe?$AAc?$AAo?$AAv?$AAe?$AAr?$AAa?$AAb?$AAl?$AAe?$AA?$AA@ 00070100     UefiShellDebug1CommandsLib:QueryTable.obj
 0002:00011124       ??_C@_1M@CLKFAOHH@?$AA?5?$AAN?$AAo?$AAn?$AAe?$AA?$AA@ 00070124     UefiShellDebug1CommandsLib:QueryTable.obj
 0002:00011130       ??_C@_1DO@PNDEDNIL@?$AA?5?$AAE?$AAx?$AAt?$AAe?$AAr?$AAn?$AAa?$AAl?$AA?5?$AAi?$AAn?$AAt?$AAe?$AAr?$AAf?$AAa?$AAc?$AAe?$AA?5?$AAl?$AAo?$AAc?$AAk?$AAe?$AAd?$AA?5?$AAo?$AAu?$AAt?$AA?$AA@ 00070130     UefiShellDebug1CommandsLib:QueryTable.obj
 0002:00011170       ??_C@_1DI@EGCBBEIH@?$AA?5?$AAE?$AAx?$AAt?$AAe?$AAr?$AAn?$AAa?$AAl?$AA?5?$AAi?$AAn?$AAt?$AAe?$AAr?$AAf?$AAa?$AAc?$AAe?$AA?5?$AAe?$AAn?$AAa?$AAb?$AAl?$AAe?$AAd?$AA?$AA@ 00070170     UefiShellDebug1CommandsLib:QueryTable.obj
 0002:000111a8       ??_C@_1CG@JLPJBJLA@?$AA?5?$AAC?$AAe?$AAn?$AAt?$AAr?$AAa?$AAl?$AA?5?$AAP?$AAr?$AAo?$AAc?$AAe?$AAs?$AAs?$AAo?$AAr?$AA?$AA@ 000701a8     UefiShellDebug1CommandsLib:QueryTable.obj
 0002:000111d0       ??_C@_1CA@MLGGILEE@?$AA?5?$AAM?$AAa?$AAt?$AAh?$AA?5?$AAP?$AAr?$AAo?$AAc?$AAe?$AAs?$AAs?$AAo?$AAr?$AA?$AA@ 000701d0     UefiShellDebug1CommandsLib:QueryTable.obj
 0002:000111f0       ??_C@_1BO@NBCNBOEN@?$AA?5?$AAD?$AAS?$AAP?$AA?5?$AAP?$AAr?$AAo?$AAc?$AAe?$AAs?$AAs?$AAo?$AAr?$AA?$AA@ 000701f0     UefiShellDebug1CommandsLib:QueryTable.obj
 0002:00011210       ??_C@_1CE@BLIEPNBB@?$AA?5?$AAV?$AAi?$AAd?$AAe?$AAo?$AA?5?$AAP?$AAr?$AAo?$AAc?$AAe?$AAs?$AAs?$AAo?$AAr?$AA?5?$AA?$AA@ 00070210     UefiShellDebug1CommandsLib:QueryTable.obj
 0002:00011234       ??_C@_1M@KDHOHJAD@?$AAO?$AAt?$AAh?$AAe?$AAr?$AA?$AA@ 00070234     UefiShellDebug1CommandsLib:QueryTable.obj
 0002:00011240       ??_C@_1BO@HHHPFHJM@?$AAD?$AAa?$AAu?$AAg?$AAh?$AAt?$AAe?$AAr?$AA?5?$AAB?$AAo?$AAa?$AAr?$AAd?$AA?$AA@ 00070240     UefiShellDebug1CommandsLib:QueryTable.obj
 0002:00011260       ??_C@_1BG@MHGPIFOA@?$AAZ?$AAI?$AAF?$AA?5?$AAS?$AAo?$AAc?$AAk?$AAe?$AAt?$AA?$AA@ 00070260     UefiShellDebug1CommandsLib:QueryTable.obj
 0002:00011278       ??_C@_1CO@JEMIPAC@?$AAR?$AAe?$AAp?$AAl?$AAa?$AAc?$AAe?$AAa?$AAb?$AAl?$AAe?$AA?5?$AAP?$AAi?$AAg?$AAg?$AAy?$AA?5?$AAB?$AAa?$AAc?$AAk?$AA?$AA@ 00070278     UefiShellDebug1CommandsLib:QueryTable.obj
 0002:000112a8       ??_C@_1BG@BMGJJFCB@?$AAL?$AAI?$AAF?$AA?5?$AAS?$AAo?$AAc?$AAk?$AAe?$AAt?$AA?$AA@ 000702a8     UefiShellDebug1CommandsLib:QueryTable.obj
 0002:000112c0       ??_C@_1O@BPLLBDJC@?$AAS?$AAl?$AAo?$AAt?$AA?5?$AA1?$AA?$AA@ 000702c0     UefiShellDebug1CommandsLib:QueryTable.obj
 0002:000112d0       ??_C@_1O@NAOLMHM@?$AAS?$AAl?$AAo?$AAt?$AA?5?$AA2?$AA?$AA@ 000702d0     UefiShellDebug1CommandsLib:QueryTable.obj
 0002:000112e0       ??_C@_1BO@PAECHLFB@?$AA3?$AA7?$AA0?$AA?9?$AAp?$AAi?$AAn?$AA?5?$AAs?$AAo?$AAc?$AAk?$AAe?$AAt?$AA?$AA@ 000702e0     UefiShellDebug1CommandsLib:QueryTable.obj
 0002:00011300       ??_C@_1O@HEIELDAO@?$AAS?$AAl?$AAo?$AAt?$AA?5?$AAA?$AA?$AA@ 00070300     UefiShellDebug1CommandsLib:QueryTable.obj
 0002:00011310       ??_C@_1O@DOFCAMLG@?$AAS?$AAl?$AAo?$AAt?$AA?5?$AAM?$AA?$AA@ 00070310     UefiShellDebug1CommandsLib:QueryTable.obj
 0002:00011320       ??_C@_1BG@PKJPENJM@?$AAS?$AAo?$AAc?$AAk?$AAe?$AAt?$AA?5?$AA4?$AA2?$AA3?$AA?$AA@ 00070320     UefiShellDebug1CommandsLib:QueryTable.obj
 0002:00011338       ??_C@_1BC@MDELCDNB@?$AAS?$AAo?$AAc?$AAk?$AAe?$AAt?$AA?5?$AAA?$AA?$AA@ 00070338     UefiShellDebug1CommandsLib:QueryTable.obj
 0002:0001134c       ??_C@_1BG@HNFDFLCO@?$AAS?$AAo?$AAc?$AAk?$AAe?$AAt?$AA?5?$AA4?$AA7?$AA8?$AA?$AA@ 0007034c     UefiShellDebug1CommandsLib:QueryTable.obj
 0002:00011364       ??_C@_1BG@PEMCECHO@?$AAS?$AAo?$AAc?$AAk?$AAe?$AAt?$AA?5?$AA7?$AA5?$AA4?$AA?$AA@ 00070364     UefiShellDebug1CommandsLib:QueryTable.obj
 0002:0001137c       ??_C@_1BG@KFHGBELO@?$AAS?$AAo?$AAc?$AAk?$AAe?$AAt?$AA?5?$AA9?$AA4?$AA0?$AA?$AA@ 0007037c     UefiShellDebug1CommandsLib:QueryTable.obj
 0002:00011394       ??_C@_1BG@MFHLGLIM@?$AAS?$AAo?$AAc?$AAk?$AAe?$AAt?$AA?5?$AA9?$AA3?$AA9?$AA?$AA@ 00070394     UefiShellDebug1CommandsLib:QueryTable.obj
 0002:000113ac       ??_C@_1BO@KFHDDAOH@?$AAS?$AAo?$AAc?$AAk?$AAe?$AAt?$AA?5?$AAm?$AAP?$AAG?$AAA?$AA6?$AA0?$AA4?$AA?$AA@ 000703ac     UefiShellDebug1CommandsLib:QueryTable.obj
 0002:000113cc       ??_C@_1BM@NODELBLD@?$AAS?$AAo?$AAc?$AAk?$AAe?$AAt?$AA?5?$AAL?$AAG?$AAA?$AA7?$AA7?$AA1?$AA?$AA@ 000703cc     UefiShellDebug1CommandsLib:QueryTable.obj
 0002:000113e8       ??_C@_1BM@FBFGCGOE@?$AAS?$AAo?$AAc?$AAk?$AAe?$AAt?$AA?5?$AAL?$AAG?$AAA?$AA7?$AA7?$AA5?$AA?$AA@ 000703e8     UefiShellDebug1CommandsLib:QueryTable.obj
 0002:00011404       ??_C@_1BE@DMMNHKDD@?$AAS?$AAo?$AAc?$AAk?$AAe?$AAt?$AA?5?$AAS?$AA1?$AA?$AA@ 00070404     UefiShellDebug1CommandsLib:QueryTable.obj
 0002:00011418       ??_C@_1BG@FMOHAKBJ@?$AAS?$AAo?$AAc?$AAk?$AAe?$AAt?$AA?5?$AAA?$AAM?$AA2?$AA?$AA@ 00070418     UefiShellDebug1CommandsLib:QueryTable.obj
 0002:00011430       ??_C@_1BC@FOJMBLGI@?$AAS?$AAo?$AAc?$AAk?$AAe?$AAt?$AA?5?$AAF?$AA?$AA@ 00070430     UefiShellDebug1CommandsLib:QueryTable.obj
 0002:00011444       ??_C@_1BO@DCJPEJCN@?$AAS?$AAo?$AAc?$AAk?$AAe?$AAt?$AA?5?$AAL?$AAG?$AAA?$AA1?$AA3?$AA6?$AA6?$AA?$AA@ 00070444     UefiShellDebug1CommandsLib:QueryTable.obj
 0002:00011464       ??_C@_1BG@IOMLDAPD@?$AAS?$AAo?$AAc?$AAk?$AAe?$AAt?$AA?5?$AAG?$AA3?$AA4?$AA?$AA@ 00070464     UefiShellDebug1CommandsLib:QueryTable.obj
 0002:0001147c       ??_C@_1BG@OEFLGNHM@?$AAS?$AAo?$AAc?$AAk?$AAe?$AAt?$AA?5?$AAA?$AAM?$AA3?$AA?$AA@ 0007047c     UefiShellDebug1CommandsLib:QueryTable.obj
 0002:00011494       ??_C@_1BG@CPOKGBNF@?$AAS?$AAo?$AAc?$AAk?$AAe?$AAt?$AA?5?$AAC?$AA3?$AA2?$AA?$AA@ 00070494     UefiShellDebug1CommandsLib:QueryTable.obj
 0002:000114ac       ??_C@_1BO@PGCODMPO@?$AAS?$AAo?$AAc?$AAk?$AAe?$AAt?$AA?5?$AAL?$AAG?$AAA?$AA1?$AA1?$AA5?$AA6?$AA?$AA@ 000704ac     UefiShellDebug1CommandsLib:QueryTable.obj
 0002:000114cc       ??_C@_1BO@EMEMCHMP@?$AAS?$AAo?$AAc?$AAk?$AAe?$AAt?$AA?5?$AAL?$AAG?$AAA?$AA1?$AA5?$AA6?$AA7?$AA?$AA@ 000704cc     UefiShellDebug1CommandsLib:QueryTable.obj
 0002:000114ec       ??_C@_1BO@PBMFABIM@?$AAS?$AAo?$AAc?$AAk?$AAe?$AAt?$AA?5?$AAP?$AAG?$AAA?$AA9?$AA8?$AA8?$AAA?$AA?$AA@ 000704ec     UefiShellDebug1CommandsLib:QueryTable.obj
 0002:0001150c       ??_C@_1BO@EGCKJFL@?$AAS?$AAo?$AAc?$AAk?$AAe?$AAt?$AA?5?$AAB?$AAG?$AAA?$AA1?$AA2?$AA8?$AA8?$AA?$AA@ 0007050c     UefiShellDebug1CommandsLib:QueryTable.obj
 0002:0001152c       ??_C@_1CA@ILALBIHB@?$AAS?$AAo?$AAc?$AAk?$AAe?$AAt?$AA?5?$AAr?$AAP?$AAG?$AAA?$AA9?$AA8?$AA8?$AAB?$AA?$AA@ 0007052c     UefiShellDebug1CommandsLib:QueryTable.obj
 0002:0001154c       ??_C@_1BO@DANNAKEB@?$AAS?$AAo?$AAc?$AAk?$AAe?$AAt?$AA?5?$AAB?$AAG?$AAA?$AA1?$AA0?$AA2?$AA3?$AA?$AA@ 0007054c     UefiShellDebug1CommandsLib:QueryTable.obj
 0002:0001156c       ??_C@_1BO@OPCPDFIF@?$AAS?$AAo?$AAc?$AAk?$AAe?$AAt?$AA?5?$AAB?$AAG?$AAA?$AA1?$AA2?$AA2?$AA4?$AA?$AA@ 0007056c     UefiShellDebug1CommandsLib:QueryTable.obj
 0002:0001158c       ??_C@_1BO@OEJLJDBA@?$AAS?$AAo?$AAc?$AAk?$AAe?$AAt?$AA?5?$AAL?$AAG?$AAA?$AA1?$AA1?$AA5?$AA5?$AA?$AA@ 0007058c     UefiShellDebug1CommandsLib:QueryTable.obj
 0002:000115ac       ??_C@_1BO@LEALDLID@?$AAS?$AAo?$AAc?$AAk?$AAe?$AAt?$AA?5?$AAL?$AAG?$AAA?$AA1?$AA3?$AA5?$AA6?$AA?$AA@ 000705ac     UefiShellDebug1CommandsLib:QueryTable.obj
 0002:000115cc       ??_C@_1BO@NHPFPNMM@?$AAS?$AAo?$AAc?$AAk?$AAe?$AAt?$AA?5?$AAL?$AAG?$AAA?$AA2?$AA0?$AA1?$AA1?$AA?$AA@ 000705cc     UefiShellDebug1CommandsLib:QueryTable.obj
 0002:000115ec       ??_C@_1BG@HNELMPAF@?$AAS?$AAo?$AAc?$AAk?$AAe?$AAt?$AA?5?$AAF?$AAS?$AA1?$AA?$AA@ 000705ec     UefiShellDebug1CommandsLib:QueryTable.obj
 0002:00011604       ??_C@_1BG@GPPOGAOL@?$AAS?$AAo?$AAc?$AAk?$AAe?$AAt?$AA?5?$AAF?$AAS?$AA2?$AA?$AA@ 00070604     UefiShellDebug1CommandsLib:QueryTable.obj
 0002:0001161c       ??_C@_1BG@EEJHKMOO@?$AAS?$AAo?$AAc?$AAk?$AAe?$AAt?$AA?5?$AAF?$AAM?$AA1?$AA?$AA@ 0007061c     UefiShellDebug1CommandsLib:QueryTable.obj
 0002:00011634       ??_C@_1BG@FGCCADAA@?$AAS?$AAo?$AAc?$AAk?$AAe?$AAt?$AA?5?$AAF?$AAM?$AA2?$AA?$AA@ 00070634     UefiShellDebug1CommandsLib:QueryTable.obj
 0002:0001164c       ??_C@_1CC@KJFHKCBF@?$AAS?$AAo?$AAc?$AAk?$AAe?$AAt?$AA?5?$AAL?$AAG?$AAA?$AA2?$AA0?$AA1?$AA1?$AA?9?$AA3?$AA?$AA@ 0007064c     UefiShellDebug1CommandsLib:QueryTable.obj
 0002:00011670       ??_C@_1CC@KBIGPMFN@?$AAS?$AAo?$AAc?$AAk?$AAe?$AAt?$AA?5?$AAL?$AAG?$AAA?$AA1?$AA3?$AA5?$AA6?$AA?9?$AA3?$AA?$AA@ 00070670     UefiShellDebug1CommandsLib:QueryTable.obj
 0002:00011694       ??_C@_1BO@NDEFGDCC@?$AAS?$AAo?$AAc?$AAk?$AAe?$AAt?$AA?5?$AAL?$AAG?$AAA?$AA1?$AA1?$AA5?$AA0?$AA?$AA@ 00070694     UefiShellDebug1CommandsLib:QueryTable.obj
 0002:000116b4       ??_C@_1BO@LAOHMPMI@?$AAS?$AAo?$AAc?$AAk?$AAe?$AAt?$AA?5?$AAB?$AAG?$AAA?$AA1?$AA1?$AA6?$AA8?$AA?$AA@ 000706b4     UefiShellDebug1CommandsLib:QueryTable.obj
 0002:000116d4       ??_C@_1BO@CEHDOGCA@?$AAS?$AAo?$AAc?$AAk?$AAe?$AAt?$AA?5?$AAB?$AAG?$AAA?$AA1?$AA2?$AA3?$AA4?$AA?$AA@ 000706d4     UefiShellDebug1CommandsLib:QueryTable.obj
 0002:000116f4       ??_C@_1BO@LIBEHHAN@?$AAS?$AAo?$AAc?$AAk?$AAe?$AAt?$AA?5?$AAB?$AAG?$AAA?$AA1?$AA3?$AA6?$AA4?$AA?$AA@ 000706f4     UefiShellDebug1CommandsLib:QueryTable.obj
 0002:00011714       ??_C@_1BG@HJIMFFMF@?$AAS?$AAo?$AAc?$AAk?$AAe?$AAt?$AA?5?$AAA?$AAM?$AA4?$AA?$AA@ 00070714     UefiShellDebug1CommandsLib:QueryTable.obj
 0002:0001172c       ??_C@_1BO@GLPJAEEH@?$AAS?$AAo?$AAc?$AAk?$AAe?$AAt?$AA?5?$AAL?$AAG?$AAA?$AA1?$AA1?$AA5?$AA1?$AA?$AA@ 0007072c     UefiShellDebug1CommandsLib:QueryTable.obj
 0002:0001174c       ??_C@_1BO@JEIJMNCI@?$AAS?$AAo?$AAc?$AAk?$AAe?$AAt?$AA?5?$AAB?$AAG?$AAA?$AA1?$AA3?$AA5?$AA6?$AA?$AA@ 0007074c     UefiShellDebug1CommandsLib:QueryTable.obj
 0002:0001176c       ??_C@_1BO@HAHLEIEI@?$AAS?$AAo?$AAc?$AAk?$AAe?$AAt?$AA?5?$AAB?$AAG?$AAA?$AA1?$AA4?$AA4?$AA0?$AA?$AA@ 0007076c     UefiShellDebug1CommandsLib:QueryTable.obj
 0002:0001178c       ??_C@_1BO@NLMCCJFH@?$AAS?$AAo?$AAc?$AAk?$AAe?$AAt?$AA?5?$AAB?$AAG?$AAA?$AA1?$AA5?$AA1?$AA5?$AA?$AA@ 0007078c     UefiShellDebug1CommandsLib:QueryTable.obj
 0002:000117ac       ??_C@_1CC@FBCKOMML@?$AAS?$AAo?$AAc?$AAk?$AAe?$AAt?$AA?5?$AAL?$AAG?$AAA?$AA3?$AA6?$AA4?$AA7?$AA?9?$AA1?$AA?$AA@ 000707ac     UefiShellDebug1CommandsLib:QueryTable.obj
 0002:000117d0       ??_C@_1BG@GFINEKGP@?$AAS?$AAo?$AAc?$AAk?$AAe?$AAt?$AA?5?$AAS?$AAP?$AA3?$AA?$AA@ 000707d0     UefiShellDebug1CommandsLib:QueryTable.obj
 0002:000117e8       ??_C@_1BK@LBHFAAHC@?$AAS?$AAo?$AAc?$AAk?$AAe?$AAt?$AA?5?$AAS?$AAP?$AA3?$AAr?$AA2?$AA?$AA@ 000707e8     UefiShellDebug1CommandsLib:QueryTable.obj
 0002:00011804       ??_C@_1CA@CEJKMMJI@?$AA?5?$AA6?$AA4?$AA?9?$AAb?$AAi?$AAt?$AA?5?$AAC?$AAa?$AAp?$AAa?$AAb?$AAl?$AAe?$AA?$AA@ 00070804     UefiShellDebug1CommandsLib:QueryTable.obj
 0002:00011824       ??_C@_1BI@BMAAPDHB@?$AA?5?$AAM?$AAu?$AAl?$AAt?$AAi?$AA?9?$AAC?$AAo?$AAr?$AAe?$AA?$AA@ 00070824     UefiShellDebug1CommandsLib:QueryTable.obj
 0002:0001183c       ??_C@_1CC@FLKFLDPO@?$AA?5?$AAH?$AAa?$AAr?$AAd?$AAw?$AAa?$AAr?$AAe?$AA?5?$AAT?$AAh?$AAr?$AAe?$AAa?$AAd?$AA?$AA@ 0007083c     UefiShellDebug1CommandsLib:QueryTable.obj
 0002:00011860       ??_C@_1CI@FMHJJANO@?$AA?5?$AAE?$AAx?$AAe?$AAc?$AAu?$AAt?$AAe?$AA?5?$AAP?$AAr?$AAo?$AAt?$AAe?$AAc?$AAt?$AAi?$AAo?$AAn?$AA?$AA@ 00070860     UefiShellDebug1CommandsLib:QueryTable.obj
 0002:00011888       ??_C@_1DC@PLHLGAGC@?$AA?5?$AAE?$AAn?$AAh?$AAa?$AAn?$AAc?$AAe?$AAd?$AA?5?$AAV?$AAi?$AAr?$AAt?$AAu?$AAa?$AAl?$AAi?$AAz?$AAa?$AAt?$AAi?$AAo?$AAn?$AA?$AA@ 00070888     UefiShellDebug1CommandsLib:QueryTable.obj
 0002:000118bc       ??_C@_1DG@HGMMFCMG@?$AA?5?$AAP?$AAo?$AAw?$AAe?$AAr?$AA?1?$AAP?$AAe?$AAr?$AAf?$AAo?$AAr?$AAm?$AAa?$AAn?$AAc?$AAe?$AA?5?$AAC?$AAo?$AAn?$AAt?$AAr?$AAo?$AAl?$AA?$AA@ 000708bc     UefiShellDebug1CommandsLib:QueryTable.obj
 0002:000118f4       ??_C@_1BK@KFODEGFE@?$AA8?$AA?9?$AAb?$AAi?$AAt?$AA?5?$AAP?$AAa?$AAr?$AAi?$AAt?$AAy?$AA?$AA@ 000708f4     UefiShellDebug1CommandsLib:QueryTable.obj
 0002:00011910       ??_C@_1BG@EELEODOK@?$AA3?$AA2?$AA?9?$AAb?$AAi?$AAt?$AA?5?$AAE?$AAC?$AAC?$AA?$AA@ 00070910     UefiShellDebug1CommandsLib:QueryTable.obj
 0002:00011928       ??_C@_1BG@ILBOIJPP@?$AA6?$AA4?$AA?9?$AAb?$AAi?$AAt?$AA?5?$AAE?$AAC?$AAC?$AA?$AA@ 00070928     UefiShellDebug1CommandsLib:QueryTable.obj
 0002:00011940       ??_C@_1BI@PPJLILE@?$AA1?$AA2?$AA8?$AA?9?$AAb?$AAi?$AAt?$AA?5?$AAE?$AAC?$AAC?$AA?$AA@ 00070940     UefiShellDebug1CommandsLib:QueryTable.obj
 0002:00011958       ??_C@_17PFCILLLH@?$AAC?$AAR?$AAC?$AA?$AA@ 00070958     UefiShellDebug1CommandsLib:QueryTable.obj
 0002:00011960       ??_C@_1DI@CHFCIAN@?$AAS?$AAi?$AAn?$AAg?$AAl?$AAe?$AA?5?$AAB?$AAi?$AAt?$AA?5?$AAE?$AAr?$AAr?$AAo?$AAr?$AA?5?$AAC?$AAo?$AAr?$AAr?$AAe?$AAc?$AAt?$AAi?$AAn?$AAg?$AA?$AA@ 00070960     UefiShellDebug1CommandsLib:QueryTable.obj
 0002:00011998       ??_C@_1DI@MEKPNODD@?$AAD?$AAo?$AAu?$AAb?$AAl?$AAe?$AA?5?$AAB?$AAi?$AAt?$AA?5?$AAE?$AAr?$AAr?$AAo?$AAr?$AA?5?$AAC?$AAo?$AAr?$AAr?$AAe?$AAc?$AAt?$AAi?$AAn?$AAg?$AA?$AA@ 00070998     UefiShellDebug1CommandsLib:QueryTable.obj
 0002:000119d0       ??_C@_1CA@JKCADFFG@?$AAE?$AAr?$AAr?$AAo?$AAr?$AA?5?$AAS?$AAc?$AAr?$AAu?$AAb?$AAb?$AAi?$AAn?$AAg?$AA?$AA@ 000709d0     UefiShellDebug1CommandsLib:QueryTable.obj
 0002:000119f0       ??_C@_1CG@JKAPKCKE@?$AAO?$AAn?$AAe?$AA?5?$AAW?$AAa?$AAy?$AA?5?$AAI?$AAn?$AAt?$AAe?$AAr?$AAl?$AAe?$AAa?$AAv?$AAe?$AA?$AA@ 000709f0     UefiShellDebug1CommandsLib:QueryTable.obj
 0002:00011a18       ??_C@_1CG@GHMCIBEC@?$AAT?$AAw?$AAo?$AA?5?$AAW?$AAa?$AAy?$AA?5?$AAI?$AAn?$AAt?$AAe?$AAr?$AAl?$AAe?$AAa?$AAv?$AAe?$AA?$AA@ 00070a18     UefiShellDebug1CommandsLib:QueryTable.obj
 0002:00011a40       ??_C@_1CI@EEDBIAPK@?$AAF?$AAo?$AAu?$AAr?$AA?5?$AAW?$AAa?$AAy?$AA?5?$AAI?$AAn?$AAt?$AAe?$AAr?$AAl?$AAe?$AAa?$AAv?$AAe?$AA?$AA@ 00070a40     UefiShellDebug1CommandsLib:QueryTable.obj
 0002:00011a68       ??_C@_1CK@KPHLJNNK@?$AAE?$AAi?$AAg?$AAh?$AAt?$AA?5?$AAW?$AAa?$AAy?$AA?5?$AAI?$AAn?$AAt?$AAe?$AAr?$AAl?$AAe?$AAa?$AAv?$AAe?$AA?$AA@ 00070a68     UefiShellDebug1CommandsLib:QueryTable.obj
 0002:00011a94       ??_C@_1CO@BFIMFDHM@?$AAS?$AAi?$AAx?$AAt?$AAe?$AAe?$AAn?$AA?5?$AAW?$AAa?$AAy?$AA?5?$AAI?$AAn?$AAt?$AAe?$AAr?$AAl?$AAe?$AAa?$AAv?$AAe?$AA?$AA@ 00070a94     UefiShellDebug1CommandsLib:QueryTable.obj
 0002:00011ac4       ??_C@_1M@NIINEJAM@?$AA?5?$AA7?$AA0?$AAn?$AAs?$AA?$AA@ 00070ac4     UefiShellDebug1CommandsLib:QueryTable.obj
 0002:00011ad0       ??_C@_1M@DHEPCCDC@?$AA?5?$AA6?$AA0?$AAn?$AAs?$AA?$AA@ 00070ad0     UefiShellDebug1CommandsLib:QueryTable.obj
 0002:00011adc       ??_C@_1M@NMHIJJDB@?$AA?5?$AA5?$AA0?$AAn?$AAs?$AA?$AA@ 00070adc     UefiShellDebug1CommandsLib:QueryTable.obj
 0002:00011ae8       ??_C@_17NJHKIEKA@?$AA?5?$AA5?$AAV?$AA?$AA@ 00070ae8     UefiShellDebug1CommandsLib:QueryTable.obj
 0002:00011af0       ??_C@_1M@JPKLIOEK@?$AA?5?$AA3?$AA?4?$AA3?$AAV?$AA?$AA@ 00070af0     UefiShellDebug1CommandsLib:QueryTable.obj
 0002:00011afc       ??_C@_1M@NBPCMGBC@?$AA?5?$AA2?$AA?4?$AA9?$AAV?$AA?$AA@ 00070afc     UefiShellDebug1CommandsLib:QueryTable.obj
 0002:00011b08       ??_C@_1BE@HJHLCDAF@?$AA?5?$AAS?$AAt?$AAa?$AAn?$AAd?$AAa?$AAr?$AAd?$AA?$AA@ 00070b08     UefiShellDebug1CommandsLib:QueryTable.obj
 0002:00011b1c       ??_C@_1CA@LGABIKMO@?$AA?5?$AAF?$AAa?$AAs?$AAt?$AA?5?$AAP?$AAa?$AAg?$AAe?$AA?5?$AAM?$AAo?$AAd?$AAe?$AA?$AA@ 00070b1c     UefiShellDebug1CommandsLib:QueryTable.obj
 0002:00011b3c       ??_C@_19GFOLFIMB@?$AA?5?$AAE?$AAD?$AAO?$AA?$AA@ 00070b3c     UefiShellDebug1CommandsLib:QueryTable.obj
 0002:00011b48       ??_C@_1BA@CLBLGKNJ@?$AA?5?$AAP?$AAa?$AAr?$AAi?$AAt?$AAy?$AA?$AA@ 00070b48     UefiShellDebug1CommandsLib:QueryTable.obj
 0002:00011b58       ??_C@_1M@GKGEDMHO@?$AA?5?$AAE?$AAC?$AAC?$AA?5?$AA?$AA@ 00070b58     UefiShellDebug1CommandsLib:QueryTable.obj
 0002:00011b64       ??_C@_1M@CCFCJPLH@?$AA?5?$AAS?$AAI?$AAM?$AAM?$AA?$AA@ 00070b64     UefiShellDebug1CommandsLib:QueryTable.obj
 0002:00011b70       ??_C@_1M@OHCAAFCG@?$AA?5?$AAD?$AAI?$AAM?$AAM?$AA?$AA@ 00070b70     UefiShellDebug1CommandsLib:QueryTable.obj
 0002:00011b7c       ??_C@_1BG@JNPHIKMO@?$AA?5?$AAB?$AAu?$AAr?$AAs?$AAt?$AA?5?$AAE?$AAD?$AAO?$AA?$AA@ 00070b7c     UefiShellDebug1CommandsLib:QueryTable.obj
 0002:00011b94       ??_C@_1O@IFONHMFE@?$AA?5?$AAS?$AAD?$AAR?$AAA?$AAM?$AA?$AA@ 00070b94     UefiShellDebug1CommandsLib:QueryTable.obj
 0002:00011ba4       ??_C@_1DO@GGKDHCMG@?$AA?5?$AAU?$AAn?$AAc?$AAo?$AAr?$AAr?$AAe?$AAc?$AAt?$AAa?$AAb?$AAl?$AAe?$AA?5?$AAe?$AAr?$AAr?$AAo?$AAr?$AAs?$AA?5?$AAr?$AAe?$AAc?$AAe?$AAi?$AAv?$AAe?$AAd?$AA?$AA@ 00070ba4     UefiShellDebug1CommandsLib:QueryTable.obj
 0002:00011be4       ??_C@_1DK@GOFLEHAJ@?$AA?5?$AAC?$AAo?$AAr?$AAr?$AAe?$AAc?$AAt?$AAa?$AAb?$AAl?$AAe?$AA?5?$AAe?$AAr?$AAr?$AAo?$AAr?$AAs?$AA?5?$AAr?$AAe?$AAc?$AAe?$AAi?$AAv?$AAe?$AAd?$AA?$AA@ 00070be4     UefiShellDebug1CommandsLib:QueryTable.obj
 0002:00011c20       ??_C@_1FE@GEHKOMJG@?$AA?5?$AAE?$AAr?$AAr?$AAo?$AAr?$AA?5?$AAS?$AAt?$AAa?$AAt?$AAu?$AAs?$AA?5?$AAo?$AAb?$AAt?$AAa?$AAi?$AAn?$AAe?$AAd?$AA?5?$AAf?$AAr?$AAo?$AAm?$AA?5?$AAt?$AAh?$AAe?$AA?5@ 00070c20     UefiShellDebug1CommandsLib:QueryTable.obj
 0002:00011c74       ??_C@_1BG@MKAGJBMA@?$AA?5?$AAN?$AAo?$AAn?$AA?9?$AAB?$AAu?$AAr?$AAs?$AAt?$AA?$AA@ 00070c74     UefiShellDebug1CommandsLib:QueryTable.obj
 0002:00011c8c       ??_C@_1O@KIIGEHBK@?$AA?5?$AAB?$AAu?$AAr?$AAs?$AAt?$AA?$AA@ 00070c8c     UefiShellDebug1CommandsLib:QueryTable.obj
 0002:00011c9c       ??_C@_1CA@HJHDGNAE@?$AA?5?$AAP?$AAi?$AAp?$AAe?$AAl?$AAi?$AAn?$AAe?$AA?5?$AAB?$AAu?$AAr?$AAs?$AAt?$AA?$AA@ 00070c9c     UefiShellDebug1CommandsLib:QueryTable.obj
 0002:00011cbc       ??_C@_1BK@FPIGEJJM@?$AA?5?$AAS?$AAy?$AAn?$AAc?$AAh?$AAr?$AAo?$AAn?$AAo?$AAu?$AAs?$AA?$AA@ 00070cbc     UefiShellDebug1CommandsLib:QueryTable.obj
 0002:00011cd8       ??_C@_1BM@BEGBKMJI@?$AA?5?$AAA?$AAs?$AAy?$AAn?$AAc?$AAh?$AAr?$AAo?$AAn?$AAo?$AAu?$AAs?$AA?$AA@ 00070cd8     UefiShellDebug1CommandsLib:QueryTable.obj
 0002:00011cf4       ??_C@_1O@BCECDDG@?$AAP?$AAa?$AAr?$AAi?$AAt?$AAy?$AA?$AA@ 00070cf4     UefiShellDebug1CommandsLib:QueryTable.obj
 0002:00011d04       ??_C@_1BO@NEHMLKLI@?$AAS?$AAi?$AAn?$AAg?$AAl?$AAe?$AA?9?$AAb?$AAi?$AAt?$AA?5?$AAE?$AAC?$AAC?$AA?$AA@ 00070d04     UefiShellDebug1CommandsLib:QueryTable.obj
 0002:00011d24       ??_C@_1BM@MFBBEGD@?$AAM?$AAu?$AAl?$AAt?$AAi?$AA?9?$AAb?$AAi?$AAt?$AA?5?$AAE?$AAC?$AAC?$AA?$AA@ 00070d24     UefiShellDebug1CommandsLib:QueryTable.obj
 0002:00011d40       ??_C@_1BI@HJJJFIKM@?$AAI?$AAn?$AAs?$AAt?$AAr?$AAu?$AAc?$AAt?$AAi?$AAo?$AAn?$AA?$AA@ 00070d40     UefiShellDebug1CommandsLib:QueryTable.obj
 0002:00011d58       ??_C@_1BA@KMNJBMPC@?$AAU?$AAn?$AAi?$AAf?$AAi?$AAe?$AAd?$AA?$AA@ 00070d58     UefiShellDebug1CommandsLib:QueryTable.obj
 0002:00011d68       ??_C@_1BM@DMJMFODO@?$AAD?$AAi?$AAr?$AAe?$AAc?$AAt?$AA?5?$AAM?$AAa?$AAp?$AAp?$AAe?$AAd?$AA?$AA@ 00070d68     UefiShellDebug1CommandsLib:QueryTable.obj
 0002:00011d84       ??_C@_1CM@NPKKKHFJ@?$AA2?$AA?9?$AAw?$AAa?$AAy?$AA?5?$AAS?$AAe?$AAt?$AA?9?$AAA?$AAs?$AAs?$AAo?$AAc?$AAi?$AAa?$AAt?$AAi?$AAv?$AAe?$AA?$AA@ 00070d84     UefiShellDebug1CommandsLib:QueryTable.obj
 0002:00011db0       ??_C@_1CM@CDFKDGBF@?$AA4?$AA?9?$AAw?$AAa?$AAy?$AA?5?$AAS?$AAe?$AAt?$AA?9?$AAA?$AAs?$AAs?$AAo?$AAc?$AAi?$AAa?$AAt?$AAi?$AAv?$AAe?$AA?$AA@ 00070db0     UefiShellDebug1CommandsLib:QueryTable.obj
 0002:00011ddc       ??_C@_1CE@GLBKAPAK@?$AAF?$AAu?$AAl?$AAl?$AAy?$AA?5?$AAA?$AAs?$AAs?$AAo?$AAc?$AAi?$AAa?$AAt?$AAi?$AAv?$AAe?$AA?$AA@ 00070ddc     UefiShellDebug1CommandsLib:QueryTable.obj
 0002:00011e00       ??_C@_1CM@BMKBCMM@?$AA8?$AA?9?$AAw?$AAa?$AAy?$AA?5?$AAS?$AAe?$AAt?$AA?9?$AAA?$AAs?$AAs?$AAo?$AAc?$AAi?$AAa?$AAt?$AAi?$AAv?$AAe?$AA?$AA@ 00070e00     UefiShellDebug1CommandsLib:QueryTable.obj
 0002:00011e2c       ??_C@_1CO@OAAPFFKI@?$AA1?$AA6?$AA?9?$AAw?$AAa?$AAy?$AA?5?$AAS?$AAe?$AAt?$AA?9?$AAA?$AAs?$AAs?$AAo?$AAc?$AAi?$AAa?$AAt?$AAi?$AAv?$AAe?$AA?$AA@ 00070e2c     UefiShellDebug1CommandsLib:QueryTable.obj
 0002:00011e5c       ??_C@_1CO@EIKPLECA@?$AA1?$AA2?$AA?9?$AAw?$AAa?$AAy?$AA?5?$AAS?$AAe?$AAt?$AA?9?$AAA?$AAs?$AAs?$AAo?$AAc?$AAi?$AAa?$AAt?$AAi?$AAv?$AAe?$AA?$AA@ 00070e5c     UefiShellDebug1CommandsLib:QueryTable.obj
 0002:00011e8c       ??_C@_1CO@DEAFIJNJ@?$AA2?$AA4?$AA?9?$AAw?$AAa?$AAy?$AA?5?$AAS?$AAe?$AAt?$AA?9?$AAA?$AAs?$AAs?$AAo?$AAc?$AAi?$AAa?$AAt?$AAi?$AAv?$AAe?$AA?$AA@ 00070e8c     UefiShellDebug1CommandsLib:QueryTable.obj
 0002:00011ebc       ??_C@_1CO@LHDMIDAG@?$AA3?$AA2?$AA?9?$AAw?$AAa?$AAy?$AA?5?$AAS?$AAe?$AAt?$AA?9?$AAA?$AAs?$AAs?$AAo?$AAc?$AAi?$AAa?$AAt?$AAi?$AAv?$AAe?$AA?$AA@ 00070ebc     UefiShellDebug1CommandsLib:QueryTable.obj
 0002:00011eec       ??_C@_1CO@MNFBPCCL@?$AA4?$AA8?$AA?9?$AAw?$AAa?$AAy?$AA?5?$AAS?$AAe?$AAt?$AA?9?$AAA?$AAs?$AAs?$AAo?$AAc?$AAi?$AAa?$AAt?$AAi?$AAv?$AAe?$AA?$AA@ 00070eec     UefiShellDebug1CommandsLib:QueryTable.obj
 0002:00011f1c       ??_C@_1CO@BAFCOBNE@?$AA6?$AA4?$AA?9?$AAw?$AAa?$AAy?$AA?5?$AAS?$AAe?$AAt?$AA?9?$AAA?$AAs?$AAs?$AAo?$AAc?$AAi?$AAa?$AAt?$AAi?$AAv?$AAe?$AA?$AA@ 00070f1c     UefiShellDebug1CommandsLib:QueryTable.obj
 0002:00011f4c       ??_C@_1CO@JMKFGIFB@?$AA2?$AA0?$AA?9?$AAw?$AAa?$AAy?$AA?5?$AAS?$AAe?$AAt?$AA?9?$AAA?$AAs?$AAs?$AAo?$AAc?$AAi?$AAa?$AAt?$AAi?$AAv?$AAe?$AA?$AA@ 00070f4c     UefiShellDebug1CommandsLib:QueryTable.obj
 0002:00011f7c       ??_C@_1BG@PDHILMJJ@?$AAC?$AAe?$AAn?$AAt?$AAr?$AAo?$AAn?$AAi?$AAc?$AAs?$AA?$AA@ 00070f7c     UefiShellDebug1CommandsLib:QueryTable.obj
 0002:00011f94       ??_C@_1CA@PNELBLGF@?$AAM?$AAi?$AAn?$AAi?$AA?5?$AAC?$AAe?$AAn?$AAt?$AAr?$AAo?$AAn?$AAi?$AAc?$AAs?$AA?$AA@ 00070f94     UefiShellDebug1CommandsLib:QueryTable.obj
 0002:00011fb4       ??_C@_1BI@CDIOKNPG@?$AAP?$AAr?$AAo?$AAp?$AAr?$AAi?$AAe?$AAt?$AAa?$AAr?$AAy?$AA?$AA@ 00070fb4     UefiShellDebug1CommandsLib:QueryTable.obj
 0002:00011fcc       ??_C@_1BO@HOPAGIKJ@?$AAD?$AAB?$AA?9?$AA2?$AA5?$AA?5?$AAp?$AAi?$AAn?$AA?5?$AAm?$AAa?$AAl?$AAe?$AA?$AA@ 00070fcc     UefiShellDebug1CommandsLib:QueryTable.obj
 0002:00011fec       ??_C@_1CC@IBNONMNH@?$AAD?$AAB?$AA?9?$AA2?$AA5?$AA?5?$AAp?$AAi?$AAn?$AA?5?$AAf?$AAe?$AAm?$AAa?$AAl?$AAe?$AA?$AA@ 00070fec     UefiShellDebug1CommandsLib:QueryTable.obj
 0002:00012010       ??_C@_1BO@CGOOMBIB@?$AAD?$AAB?$AA?9?$AA1?$AA5?$AA?5?$AAp?$AAi?$AAn?$AA?5?$AAm?$AAa?$AAl?$AAe?$AA?$AA@ 00071010     UefiShellDebug1CommandsLib:QueryTable.obj
 0002:00012030       ??_C@_1CC@IDAANLPA@?$AAD?$AAB?$AA?9?$AA1?$AA5?$AA?5?$AAp?$AAi?$AAn?$AA?5?$AAf?$AAe?$AAm?$AAa?$AAl?$AAe?$AA?$AA@ 00071030     UefiShellDebug1CommandsLib:QueryTable.obj
 0002:00012054       ??_C@_1BM@KNADBFCO@?$AAD?$AAB?$AA?9?$AA9?$AA?5?$AAp?$AAi?$AAn?$AA?5?$AAm?$AAa?$AAl?$AAe?$AA?$AA@ 00071054     UefiShellDebug1CommandsLib:QueryTable.obj
 0002:00012070       ??_C@_1CA@INDCJIEG@?$AAD?$AAB?$AA?9?$AA9?$AA?5?$AAp?$AAi?$AAn?$AA?5?$AAf?$AAe?$AAm?$AAa?$AAl?$AAe?$AA?$AA@ 00071070     UefiShellDebug1CommandsLib:QueryTable.obj
 0002:00012090       ??_C@_1M@DIDAFGCB@?$AAR?$AAJ?$AA?9?$AA1?$AA1?$AA?$AA@ 00071090     UefiShellDebug1CommandsLib:QueryTable.obj
 0002:0001209c       ??_C@_1M@OHJPFAMF@?$AAR?$AAJ?$AA?9?$AA4?$AA5?$AA?$AA@ 0007109c     UefiShellDebug1CommandsLib:QueryTable.obj
 0002:000120a8       ??_C@_1CA@FGGGDIIE@?$AA5?$AA0?$AA?5?$AAP?$AAi?$AAn?$AA?5?$AAM?$AAi?$AAn?$AAi?$AAS?$AAC?$AAS?$AAI?$AA?$AA@ 000710a8     UefiShellDebug1CommandsLib:QueryTable.obj
 0002:000120c8       ??_C@_1BC@IDKNLAIN@?$AAM?$AAi?$AAn?$AAi?$AA?9?$AAD?$AAI?$AAN?$AA?$AA@ 000710c8     UefiShellDebug1CommandsLib:QueryTable.obj
 0002:000120dc       ??_C@_1BE@GJONJPEN@?$AAM?$AAi?$AAc?$AAr?$AAo?$AA?9?$AAD?$AAI?$AAN?$AA?$AA@ 000710dc     UefiShellDebug1CommandsLib:QueryTable.obj
 0002:000120f0       ??_C@_19NCBAGCCN@?$AAP?$AAS?$AA?1?$AA2?$AA?$AA@ 000710f0     UefiShellDebug1CommandsLib:QueryTable.obj
 0002:000120fc       ??_C@_1BC@EDOKPPPJ@?$AAI?$AAn?$AAf?$AAr?$AAa?$AAr?$AAe?$AAd?$AA?$AA@ 000710fc     UefiShellDebug1CommandsLib:QueryTable.obj
 0002:00012110       ??_C@_1O@NJJBNIOK@?$AAH?$AAP?$AA?9?$AAH?$AAI?$AAL?$AA?$AA@ 00071110     UefiShellDebug1CommandsLib:QueryTable.obj
 0002:00012120       ??_C@_1CC@ODIBKOIL@?$AAA?$AAc?$AAc?$AAe?$AAs?$AAs?$AA?5?$AAB?$AAu?$AAs?$AA?5?$AA?$CI?$AAU?$AAS?$AAB?$AA?$CJ?$AA?$AA@ 00071120     UefiShellDebug1CommandsLib:QueryTable.obj
 0002:00012144       ??_C@_1BC@FKGNOFOK@?$AAS?$AAS?$AAA?$AA?5?$AAS?$AAC?$AAS?$AAI?$AA?$AA@ 00071144     UefiShellDebug1CommandsLib:QueryTable.obj
 0002:00012158       ??_C@_1CI@HNFDJGJO@?$AAC?$AAi?$AAr?$AAc?$AAu?$AAl?$AAa?$AAr?$AA?5?$AAD?$AAI?$AAN?$AA?9?$AA8?$AA?5?$AAm?$AAa?$AAl?$AAe?$AA?$AA@ 00071158     UefiShellDebug1CommandsLib:QueryTable.obj
 0002:00012180       ??_C@_1CM@EPFLPMIF@?$AAC?$AAi?$AAr?$AAc?$AAu?$AAl?$AAa?$AAr?$AA?5?$AAD?$AAI?$AAN?$AA?9?$AA8?$AA?5?$AAf?$AAe?$AAm?$AAa?$AAl?$AAe?$AA?$AA@ 00071180     UefiShellDebug1CommandsLib:QueryTable.obj
 0002:000121ac       ??_C@_1BK@DDPEDENO@?$AAO?$AAn?$AA?5?$AAB?$AAo?$AAa?$AAr?$AAd?$AA?5?$AAI?$AAD?$AAE?$AA?$AA@ 000711ac     UefiShellDebug1CommandsLib:QueryTable.obj
 0002:000121c8       ??_C@_1CA@PCCPEAIO@?$AAO?$AAn?$AA?5?$AAB?$AAo?$AAa?$AAr?$AAd?$AA?5?$AAF?$AAl?$AAo?$AAp?$AAp?$AAy?$AA?$AA@ 000711c8     UefiShellDebug1CommandsLib:QueryTable.obj
 0002:000121e8       ??_C@_1DO@GKBHHBII@?$AA9?$AA?5?$AAP?$AAi?$AAn?$AA?5?$AAD?$AAu?$AAa?$AAl?$AA?5?$AAI?$AAn?$AAl?$AAi?$AAn?$AAe?$AA?5?$AA?$CI?$AAp?$AAi?$AAn?$AA?5?$AA1?$AA0?$AA?5?$AAc?$AAu?$AAt?$AA?$CJ?$AA?$AA@ 000711e8     UefiShellDebug1CommandsLib:QueryTable.obj
 0002:00012228       ??_C@_1EA@GKFKJGNC@?$AA2?$AA5?$AA?5?$AAP?$AAi?$AAn?$AA?5?$AAD?$AAu?$AAa?$AAl?$AA?5?$AAI?$AAn?$AAl?$AAi?$AAn?$AAe?$AA?5?$AA?$CI?$AAp?$AAi?$AAn?$AA?5?$AA2?$AA6?$AA?5?$AAc?$AAu?$AAt?$AA?$CJ?$AA?$AA@ 00071228     UefiShellDebug1CommandsLib:QueryTable.obj
 0002:00012268       ??_C@_1CG@BDJNBIMP@?$AA5?$AA0?$AA?5?$AAP?$AAi?$AAn?$AA?5?$AAD?$AAu?$AAa?$AAl?$AA?5?$AAI?$AAn?$AAl?$AAi?$AAn?$AAe?$AA?$AA@ 00071268     UefiShellDebug1CommandsLib:QueryTable.obj
 0002:00012290       ??_C@_1CG@CONFKJIG@?$AA6?$AA8?$AA?5?$AAP?$AAi?$AAn?$AA?5?$AAD?$AAu?$AAa?$AAl?$AA?5?$AAI?$AAn?$AAl?$AAi?$AAn?$AAe?$AA?$AA@ 00071290     UefiShellDebug1CommandsLib:QueryTable.obj
 0002:000122b8       ??_C@_1EC@PDFIJLMB@?$AAO?$AAn?$AA?5?$AAB?$AAo?$AAa?$AAr?$AAd?$AA?5?$AAS?$AAo?$AAu?$AAn?$AAd?$AA?5?$AAI?$AAn?$AAp?$AAu?$AAt?$AA?5?$AAf?$AAr?$AAo?$AAm?$AA?5?$AAC?$AAD?$AA?9?$AAR?$AAO?$AAM@ 000712b8     UefiShellDebug1CommandsLib:QueryTable.obj
 0002:000122fc       ??_C@_1DA@ELIEDONJ@?$AAM?$AAi?$AAn?$AAi?$AA?9?$AAC?$AAe?$AAn?$AAt?$AAr?$AAo?$AAn?$AAi?$AAc?$AAs?$AA?5?$AAT?$AAy?$AAp?$AAe?$AA?9?$AA1?$AA4?$AA?$AA@ 000712fc     UefiShellDebug1CommandsLib:QueryTable.obj
 0002:0001232c       ??_C@_1DA@GHBJIEPM@?$AAM?$AAi?$AAn?$AAi?$AA?9?$AAC?$AAe?$AAn?$AAt?$AAr?$AAo?$AAn?$AAi?$AAc?$AAs?$AA?5?$AAT?$AAy?$AAp?$AAe?$AA?9?$AA2?$AA6?$AA?$AA@ 0007132c     UefiShellDebug1CommandsLib:QueryTable.obj
 0002:0001235c       ??_C@_1CO@MNNKBLFF@?$AAM?$AAi?$AAn?$AAi?$AA?9?$AAj?$AAa?$AAc?$AAk?$AA?5?$AA?$CI?$AAh?$AAe?$AAa?$AAd?$AAp?$AAh?$AAo?$AAn?$AAe?$AAs?$AA?$CJ?$AA?$AA@ 0007135c     UefiShellDebug1CommandsLib:QueryTable.obj
 0002:0001238c       ??_C@_17ENJGHJMJ@?$AAB?$AAN?$AAC?$AA?$AA@ 0007138c     UefiShellDebug1CommandsLib:QueryTable.obj
 0002:00012394       ??_C@_19MMDKBDIC@?$AA1?$AA3?$AA9?$AA4?$AA?$AA@ 00071394     UefiShellDebug1CommandsLib:QueryTable.obj
 0002:000123a0       ??_C@_1DC@OOELNIFE@?$AAS?$AAA?$AAS?$AA?1?$AAS?$AAA?$AAT?$AAA?$AA?5?$AAP?$AAl?$AAu?$AAg?$AA?5?$AAR?$AAe?$AAc?$AAe?$AAp?$AAt?$AAa?$AAc?$AAl?$AAe?$AA?$AA@ 000713a0     UefiShellDebug1CommandsLib:QueryTable.obj
 0002:000123d4       ??_C@_1M@LJEFCOJD@?$AAP?$AAC?$AA?9?$AA9?$AA8?$AA?$AA@ 000713d4     UefiShellDebug1CommandsLib:QueryTable.obj
 0002:000123e0       ??_C@_1BI@BAKAJCAB@?$AAP?$AAC?$AA?9?$AA9?$AA8?$AAH?$AAi?$AAr?$AAe?$AAs?$AAo?$AA?$AA@ 000713e0     UefiShellDebug1CommandsLib:QueryTable.obj
 0002:000123f8       ??_C@_1O@BIIDPPLG@?$AAP?$AAC?$AA?9?$AAH?$AA9?$AA8?$AA?$AA@ 000713f8     UefiShellDebug1CommandsLib:QueryTable.obj
 0002:00012408       ??_C@_1BE@GJDMMNIL@?$AAP?$AAC?$AA?9?$AA9?$AA8?$AAN?$AAo?$AAt?$AAe?$AA?$AA@ 00071408     UefiShellDebug1CommandsLib:QueryTable.obj
 0002:0001241c       ??_C@_1BE@FBNGPOA@?$AAP?$AAC?$AA?9?$AA9?$AA8?$AAF?$AAu?$AAl?$AAl?$AA?$AA@ 0007141c     UefiShellDebug1CommandsLib:QueryTable.obj
 0002:00012430       ??_C@_1DO@LIAHKKBP@?$AAP?$AAa?$AAr?$AAa?$AAl?$AAl?$AAe?$AAl?$AA?5?$AAP?$AAo?$AAr?$AAt?$AA?5?$AAX?$AAT?$AA?1?$AAA?$AAT?$AA?5?$AAC?$AAo?$AAm?$AAp?$AAa?$AAt?$AAi?$AAb?$AAl?$AAe?$AA?$AA@ 00071430     UefiShellDebug1CommandsLib:QueryTable.obj
 0002:00012470       ??_C@_1CG@GNBEJKEE@?$AAP?$AAa?$AAr?$AAa?$AAl?$AAl?$AAe?$AAl?$AA?5?$AAP?$AAo?$AAr?$AAt?$AA?5?$AAP?$AAS?$AA?1?$AA2?$AA?$AA@ 00071470     UefiShellDebug1CommandsLib:QueryTable.obj
 0002:00012498       ??_C@_1CE@JLCOEKBM@?$AAP?$AAa?$AAr?$AAa?$AAl?$AAl?$AAe?$AAl?$AA?5?$AAP?$AAo?$AAr?$AAt?$AA?5?$AAE?$AAC?$AAP?$AA?$AA@ 00071498     UefiShellDebug1CommandsLib:QueryTable.obj
 0002:000124bc       ??_C@_1CE@BOGMDKCJ@?$AAP?$AAa?$AAr?$AAa?$AAl?$AAl?$AAe?$AAl?$AA?5?$AAP?$AAo?$AAr?$AAt?$AA?5?$AAE?$AAP?$AAP?$AA?$AA@ 000714bc     UefiShellDebug1CommandsLib:QueryTable.obj
 0002:000124e0       ??_C@_1CM@EILHOPJF@?$AAP?$AAa?$AAr?$AAa?$AAl?$AAl?$AAe?$AAl?$AA?5?$AAP?$AAo?$AAr?$AAt?$AA?5?$AAE?$AAC?$AAP?$AA?1?$AAE?$AAP?$AAP?$AA?$AA@ 000714e0     UefiShellDebug1CommandsLib:QueryTable.obj
 0002:0001250c       ??_C@_1DK@GFJNGLPP@?$AAS?$AAe?$AAr?$AAi?$AAa?$AAl?$AA?5?$AAP?$AAo?$AAr?$AAt?$AA?5?$AAX?$AAT?$AA?1?$AAA?$AAT?$AA?5?$AAC?$AAo?$AAm?$AAp?$AAa?$AAt?$AAi?$AAb?$AAl?$AAe?$AA?$AA@ 0007150c     UefiShellDebug1CommandsLib:QueryTable.obj
 0002:00012548       ??_C@_1DK@DPDCAMIC@?$AAS?$AAe?$AAr?$AAi?$AAa?$AAl?$AA?5?$AAP?$AAo?$AAr?$AAt?$AA?5?$AA1?$AA6?$AA4?$AA5?$AA0?$AA?5?$AAC?$AAo?$AAm?$AAp?$AAa?$AAt?$AAi?$AAb?$AAl?$AAe?$AA?$AA@ 00071548     UefiShellDebug1CommandsLib:QueryTable.obj
 0002:00012584       ??_C@_1DK@DFCOPIK@?$AAS?$AAe?$AAr?$AAi?$AAa?$AAl?$AA?5?$AAP?$AAo?$AAr?$AAt?$AA?5?$AA1?$AA6?$AA5?$AA5?$AA0?$AA?5?$AAC?$AAo?$AAm?$AAp?$AAa?$AAt?$AAi?$AAb?$AAl?$AAe?$AA?$AA@ 00071584     UefiShellDebug1CommandsLib:QueryTable.obj
 0002:000125c0       ??_C@_1DM@FJBADMAE@?$AAS?$AAe?$AAr?$AAi?$AAa?$AAl?$AA?5?$AAP?$AAo?$AAr?$AAt?$AA?5?$AA1?$AA6?$AA5?$AA5?$AA0?$AAA?$AA?5?$AAC?$AAo?$AAm?$AAp?$AAa?$AAt?$AAi?$AAb?$AAl?$AAe?$AA?$AA@ 000715c0     UefiShellDebug1CommandsLib:QueryTable.obj
 0002:000125fc       ??_C@_1BE@NOJBIPAI@?$AAS?$AAC?$AAS?$AAI?$AA?5?$AAP?$AAo?$AAr?$AAt?$AA?$AA@ 000715fc     UefiShellDebug1CommandsLib:QueryTable.obj
 0002:00012610       ??_C@_1BE@COPEGMCO@?$AAM?$AAI?$AAD?$AAI?$AA?5?$AAP?$AAo?$AAr?$AAt?$AA?$AA@ 00071610     UefiShellDebug1CommandsLib:QueryTable.obj
 0002:00012624       ??_C@_1BO@EFEHLEPP@?$AAJ?$AAo?$AAy?$AA?5?$AAS?$AAt?$AAi?$AAc?$AAk?$AA?5?$AAP?$AAo?$AAr?$AAt?$AA?$AA@ 00071624     UefiShellDebug1CommandsLib:QueryTable.obj
 0002:00012644       ??_C@_1BM@JPCDIBMO@?$AAK?$AAe?$AAy?$AAb?$AAo?$AAa?$AAr?$AAd?$AA?5?$AAP?$AAo?$AAr?$AAt?$AA?$AA@ 00071644     UefiShellDebug1CommandsLib:QueryTable.obj
 0002:00012660       ??_C@_1BG@OFNCFLIC@?$AAM?$AAo?$AAu?$AAs?$AAe?$AA?5?$AAP?$AAo?$AAr?$AAt?$AA?$AA@ 00071660     UefiShellDebug1CommandsLib:QueryTable.obj
 0002:00012678       ??_C@_1CM@FJJOGJOL@?$AAF?$AAi?$AAr?$AAe?$AAW?$AAi?$AAr?$AAe?$AA?5?$AA?$CI?$AAI?$AAE?$AAE?$AAE?$AA?5?$AAP?$AA1?$AA3?$AA9?$AA4?$AA?$CJ?$AA?$AA@ 00071678     UefiShellDebug1CommandsLib:QueryTable.obj
 0002:000126a4       ??_C@_1BO@MPNLIICJ@?$AAP?$AAC?$AAM?$AAC?$AAI?$AAA?$AA?5?$AAT?$AAy?$AAp?$AAe?$AA?5?$AAI?$AAI?$AA?$AA@ 000716a4     UefiShellDebug1CommandsLib:QueryTable.obj
 0002:000126c4       ??_C@_1CA@EBDJEMJF@?$AAP?$AAC?$AAM?$AAC?$AAI?$AAA?$AA?5?$AAT?$AAy?$AAp?$AAe?$AA?5?$AAI?$AAI?$AAI?$AA?$AA@ 000716c4     UefiShellDebug1CommandsLib:QueryTable.obj
 0002:000126e4       ??_C@_1BA@KFPGBHFK@?$AAC?$AAa?$AAr?$AAd?$AAb?$AAu?$AAs?$AA?$AA@ 000716e4     UefiShellDebug1CommandsLib:QueryTable.obj
 0002:000126f4       ??_C@_1CA@LBIGPIBF@?$AAA?$AAc?$AAc?$AAe?$AAs?$AAs?$AA?5?$AAB?$AAu?$AAs?$AA?5?$AAP?$AAo?$AAr?$AAt?$AA?$AA@ 000716f4     UefiShellDebug1CommandsLib:QueryTable.obj
 0002:00012714       ??_C@_1BA@NBHKJAMF@?$AAS?$AAC?$AAS?$AAI?$AA?5?$AAI?$AAI?$AA?$AA@ 00071714     UefiShellDebug1CommandsLib:QueryTable.obj
 0002:00012724       ??_C@_1BE@MHAIEMIK@?$AAS?$AAC?$AAS?$AAI?$AA?5?$AAW?$AAi?$AAd?$AAe?$AA?$AA@ 00071724     UefiShellDebug1CommandsLib:QueryTable.obj
 0002:00012738       ??_C@_1BK@BBENEMM@?$AAP?$AAC?$AA?9?$AA9?$AA8?$AA?9?$AAH?$AAi?$AAr?$AAe?$AAs?$AAo?$AA?$AA@ 00071738     UefiShellDebug1CommandsLib:QueryTable.obj
 0002:00012754       ??_C@_1BG@OOENGAEO@?$AAV?$AAi?$AAd?$AAe?$AAo?$AA?5?$AAP?$AAo?$AAr?$AAt?$AA?$AA@ 00071754     UefiShellDebug1CommandsLib:QueryTable.obj
 0002:0001276c       ??_C@_1BG@LGLBFBEJ@?$AAA?$AAu?$AAd?$AAi?$AAo?$AA?5?$AAP?$AAo?$AAr?$AAt?$AA?$AA@ 0007176c     UefiShellDebug1CommandsLib:QueryTable.obj
 0002:00012784       ??_C@_1BG@KCMMPIDH@?$AAM?$AAo?$AAd?$AAe?$AAm?$AA?5?$AAP?$AAo?$AAr?$AAt?$AA?$AA@ 00071784     UefiShellDebug1CommandsLib:QueryTable.obj
 0002:0001279c       ??_C@_1BK@NHNIIGJK@?$AAN?$AAe?$AAt?$AAw?$AAo?$AAr?$AAk?$AA?5?$AAP?$AAo?$AAr?$AAt?$AA?$AA@ 0007179c     UefiShellDebug1CommandsLib:QueryTable.obj
 0002:000127b8       ??_C@_1BE@BFOFACMI@?$AAS?$AAA?$AAT?$AAA?$AA?5?$AAP?$AAo?$AAr?$AAt?$AA?$AA@ 000717b8     UefiShellDebug1CommandsLib:QueryTable.obj
 0002:000127cc       ??_C@_1BC@DHGJDMCD@?$AAS?$AAA?$AAS?$AA?5?$AAP?$AAo?$AAr?$AAt?$AA?$AA@ 000717cc     UefiShellDebug1CommandsLib:QueryTable.obj
 0002:000127e0       ??_C@_1CA@EMPGEJLH@?$AA8?$AA2?$AA5?$AA1?$AA?5?$AAC?$AAo?$AAm?$AAp?$AAa?$AAt?$AAi?$AAb?$AAl?$AAe?$AA?$AA@ 000717e0     UefiShellDebug1CommandsLib:QueryTable.obj
 0002:00012800       ??_C@_1CK@PPNOCDBD@?$AA8?$AA2?$AA5?$AA1?$AA?5?$AAF?$AAI?$AAF?$AAO?$AA?5?$AAC?$AAo?$AAm?$AAp?$AAa?$AAt?$AAi?$AAb?$AAl?$AAe?$AA?$AA@ 00071800     UefiShellDebug1CommandsLib:QueryTable.obj
 0002:0001282c       ??_C@_1O@KCMGJGBL@?$AAO?$AAt?$AAh?$AAe?$AAr?$AA?5?$AA?$AA@ 0007182c     UefiShellDebug1CommandsLib:QueryTable.obj
 0002:0001283c       ??_C@_17ICCBLADA@?$AAM?$AAC?$AAA?$AA?$AA@ 0007183c     UefiShellDebug1CommandsLib:QueryTable.obj
 0002:00012844       ??_C@_17KACLLMCF@?$AAP?$AAC?$AAI?$AA?$AA@ 00071844     UefiShellDebug1CommandsLib:QueryTable.obj
 0002:0001284c       ??_C@_1CC@KCBMDFAB@?$AAP?$AAC?$AA?5?$AAC?$AAa?$AAr?$AAd?$AA?5?$AA?$CI?$AAP?$AAC?$AAM?$AAC?$AAI?$AAA?$AA?$CJ?$AA?$AA@ 0007184c     UefiShellDebug1CommandsLib:QueryTable.obj
 0002:00012870       ??_C@_1BA@BJJLNGGH@?$AAV?$AAL?$AA?9?$AAV?$AAE?$AAS?$AAA?$AA?$AA@ 00071870     UefiShellDebug1CommandsLib:QueryTable.obj
 0002:00012880       ??_C@_1CI@LAEGDMLE@?$AAP?$AAr?$AAo?$AAc?$AAe?$AAs?$AAs?$AAo?$AAr?$AA?5?$AAC?$AAa?$AAr?$AAd?$AA?5?$AAS?$AAl?$AAo?$AAt?$AA?$AA@ 00071880     UefiShellDebug1CommandsLib:QueryTable.obj
 0002:000128a8       ??_C@_1DK@EAJEKNAL@?$AAP?$AAr?$AAo?$AAp?$AAr?$AAi?$AAe?$AAt?$AAa?$AAr?$AAy?$AA?5?$AAM?$AAe?$AAm?$AAo?$AAr?$AAy?$AA?5?$AAC?$AAa?$AAr?$AAd?$AA?5?$AAS?$AAl?$AAo?$AAt?$AA?$AA@ 000718a8     UefiShellDebug1CommandsLib:QueryTable.obj
 0002:000128e4       ??_C@_1CI@PDMOJGJG@?$AAI?$AA?1?$AAO?$AA?5?$AAR?$AAi?$AAs?$AAe?$AAr?$AA?5?$AAC?$AAa?$AAr?$AAd?$AA?5?$AAS?$AAl?$AAo?$AAt?$AA?$AA@ 000718e4     UefiShellDebug1CommandsLib:QueryTable.obj
 0002:0001290c       ??_C@_1M@EMFEFDC@?$AAN?$AAu?$AAB?$AAu?$AAs?$AA?$AA@ 0007190c     UefiShellDebug1CommandsLib:QueryTable.obj
 0002:00012918       ??_C@_1CI@CBCPMECI@?$AAP?$AAC?$AAI?$AA?5?$AA?9?$AA?5?$AA6?$AA6?$AAM?$AAH?$AAz?$AA?5?$AAC?$AAa?$AAp?$AAa?$AAb?$AAl?$AAe?$AA?$AA@ 00071918     UefiShellDebug1CommandsLib:QueryTable.obj
 0002:00012940       ??_C@_17KGLKNHJD@?$AAA?$AAG?$AAP?$AA?$AA@ 00071940     UefiShellDebug1CommandsLib:QueryTable.obj
 0002:00012948       ??_C@_1O@LBGAKLDF@?$AAA?$AAG?$AAP?$AA?5?$AA2?$AAX?$AA?$AA@ 00071948     UefiShellDebug1CommandsLib:QueryTable.obj
 0002:00012958       ??_C@_1O@GHDJEICI@?$AAA?$AAG?$AAP?$AA?5?$AA4?$AAX?$AA?$AA@ 00071958     UefiShellDebug1CommandsLib:QueryTable.obj
 0002:00012968       ??_C@_1M@EOIFDHFM@?$AAP?$AAC?$AAI?$AA?9?$AAX?$AA?$AA@ 00071968     UefiShellDebug1CommandsLib:QueryTable.obj
 0002:00012974       ??_C@_1O@BAPLIIFD@?$AAA?$AAG?$AAP?$AA?5?$AA8?$AAX?$AA?$AA@ 00071974     UefiShellDebug1CommandsLib:QueryTable.obj
 0002:00012988       ??_C@_1EG@JIHKNADJ@?$AAM?$AA?4?$AA2?$AA?5?$AAS?$AAo?$AAc?$AAk?$AAe?$AAt?$AA?5?$AA1?$AA?9?$AAD?$AAP?$AA?5?$AA?$CI?$AAM?$AAe?$AAc?$AAh?$AAa?$AAn?$AAi?$AAc?$AAa?$AAl?$AA?5?$AAK?$AAe?$AAy?$AA?5@ 00071988     UefiShellDebug1CommandsLib:QueryTable.obj
 0002:000129d0       ??_C@_1EG@OAGAMHPH@?$AAM?$AA?4?$AA2?$AA?5?$AAS?$AAo?$AAc?$AAk?$AAe?$AAt?$AA?5?$AA1?$AA?9?$AAS?$AAD?$AA?5?$AA?$CI?$AAM?$AAe?$AAc?$AAh?$AAa?$AAn?$AAi?$AAc?$AAa?$AAl?$AA?5?$AAK?$AAe?$AAy?$AA?5@ 000719d0     UefiShellDebug1CommandsLib:QueryTable.obj
 0002:00012a18       ??_C@_1EA@PNAJHPEJ@?$AAM?$AA?4?$AA2?$AA?5?$AAS?$AAo?$AAc?$AAk?$AAe?$AAt?$AA?5?$AA2?$AA?5?$AA?$CI?$AAM?$AAe?$AAc?$AAh?$AAa?$AAn?$AAi?$AAc?$AAa?$AAl?$AA?5?$AAK?$AAe?$AAy?$AA?5?$AAB?$AA?$CJ?$AA?$AA@ 00071a18     UefiShellDebug1CommandsLib:QueryTable.obj
 0002:00012a58       ??_C@_1EA@KNGGEJHC@?$AAM?$AA?4?$AA2?$AA?5?$AAS?$AAo?$AAc?$AAk?$AAe?$AAt?$AA?5?$AA3?$AA?5?$AA?$CI?$AAM?$AAe?$AAc?$AAh?$AAa?$AAn?$AAi?$AAc?$AAa?$AAl?$AA?5?$AAK?$AAe?$AAy?$AA?5?$AAM?$AA?$CJ?$AA?$AA@ 00071a58     UefiShellDebug1CommandsLib:QueryTable.obj
 0002:00012a98       ??_C@_1BG@HBBIGDEK@?$AAM?$AAX?$AAM?$AA?5?$AAT?$AAy?$AAp?$AAe?$AA?5?$AAI?$AA?$AA@ 00071a98     UefiShellDebug1CommandsLib:QueryTable.obj
 0002:00012ab0       ??_C@_1BI@DIDBPBMC@?$AAM?$AAX?$AAM?$AA?5?$AAT?$AAy?$AAp?$AAe?$AA?5?$AAI?$AAI?$AA?$AA@ 00071ab0     UefiShellDebug1CommandsLib:QueryTable.obj
 0002:00012ac8       ??_C@_1EE@DMCEFFOA@?$AAM?$AAX?$AAM?$AA?5?$AAT?$AAy?$AAp?$AAe?$AA?5?$AAI?$AAI?$AAI?$AA?5?$AA?$CI?$AAs?$AAt?$AAa?$AAn?$AAd?$AAa?$AAr?$AAd?$AA?5?$AAc?$AAo?$AAn?$AAn?$AAe?$AAc?$AAt?$AAo?$AAr@ 00071ac8     UefiShellDebug1CommandsLib:QueryTable.obj
 0002:00012b0c       ??_C@_1DI@MOJKLOGD@?$AAM?$AAX?$AAM?$AA?5?$AAT?$AAy?$AAp?$AAe?$AA?5?$AAI?$AAI?$AAI?$AA?5?$AA?$CI?$AAH?$AAE?$AA?5?$AAc?$AAo?$AAn?$AAn?$AAe?$AAc?$AAt?$AAo?$AAr?$AA?$CJ?$AA?$AA@ 00071b0c     UefiShellDebug1CommandsLib:QueryTable.obj
 0002:00012b44       ??_C@_1BI@DAELLGAL@?$AAM?$AAX?$AAM?$AA?5?$AAT?$AAy?$AAp?$AAe?$AA?5?$AAI?$AAV?$AA?$AA@ 00071b44     UefiShellDebug1CommandsLib:QueryTable.obj
 0002:00012b5c       ??_C@_1BO@HJEAKDMP@?$AAM?$AAX?$AAM?$AA?5?$AA3?$AA?4?$AA0?$AA?5?$AAT?$AAy?$AAp?$AAe?$AA?5?$AAA?$AA?$AA@ 00071b5c     UefiShellDebug1CommandsLib:QueryTable.obj
 0002:00012b7c       ??_C@_1BO@GLPFAMCB@?$AAM?$AAX?$AAM?$AA?5?$AA3?$AA?4?$AA0?$AA?5?$AAT?$AAy?$AAp?$AAe?$AA?5?$AAB?$AA?$AA@ 00071b7c     UefiShellDebug1CommandsLib:QueryTable.obj
 0002:00012b9c       ??_C@_1DG@PMEFNILG@?$AAP?$AAC?$AAI?$AA?5?$AAE?$AAx?$AAp?$AAr?$AAe?$AAs?$AAs?$AA?5?$AAG?$AAe?$AAn?$AA?5?$AA2?$AA?5?$AAS?$AAF?$AAF?$AA?9?$AA8?$AA6?$AA3?$AA9?$AA?$AA@ 00071b9c     UefiShellDebug1CommandsLib:QueryTable.obj
 0002:00012bd4       ??_C@_1DG@OLGNLMHG@?$AAP?$AAC?$AAI?$AA?5?$AAE?$AAx?$AAp?$AAr?$AAe?$AAs?$AAs?$AA?5?$AAG?$AAe?$AAn?$AA?5?$AA3?$AA?5?$AAS?$AAF?$AAF?$AA?9?$AA8?$AA6?$AA3?$AA9?$AA?$AA@ 00071bd4     UefiShellDebug1CommandsLib:QueryTable.obj
 0002:00012c10       ??_C@_1IG@GDFKECGO@?$AAP?$AAC?$AAI?$AA?5?$AAE?$AAx?$AAp?$AAr?$AAe?$AAs?$AAs?$AA?5?$AAM?$AAi?$AAn?$AAi?$AA?5?$AA5?$AA2?$AA?9?$AAp?$AAi?$AAn?$AA?5?$AA?$CI?$AAC?$AAE?$AAM?$AA?5?$AAs?$AAp?$AAe@ 00071c10     UefiShellDebug1CommandsLib:QueryTable.obj
 0002:00012c98       ??_C@_1IM@JNIEIDOF@?$AAP?$AAC?$AAI?$AA?5?$AAE?$AAx?$AAp?$AAr?$AAe?$AAs?$AAs?$AA?5?$AAM?$AAi?$AAn?$AAi?$AA?5?$AA5?$AA2?$AA?9?$AAp?$AAi?$AAn?$AA?5?$AA?$CI?$AAC?$AAE?$AAM?$AA?5?$AAs?$AAp?$AAe@ 00071c98     UefiShellDebug1CommandsLib:QueryTable.obj
 0002:00012d28       ??_C@_1JC@CLEKENNC@?$AAP?$AAC?$AAI?$AA?5?$AAE?$AAx?$AAp?$AAr?$AAe?$AAs?$AAs?$AA?5?$AAM?$AAi?$AAn?$AAi?$AA?5?$AA7?$AA6?$AA?9?$AAp?$AAi?$AAn?$AA?5?$AA?$CI?$AAC?$AAE?$AAM?$AA?5?$AAs?$AAp?$AAe@ 00071d28     UefiShellDebug1CommandsLib:QueryTable.obj
 0002:00012dbc       ??_C@_1BG@MILHKIJI@?$AAP?$AAC?$AA?9?$AA9?$AA8?$AA?1?$AAC?$AA2?$AA0?$AA?5?$AA?$AA@ 00071dbc     UefiShellDebug1CommandsLib:QueryTable.obj
 0002:00012dd4       ??_C@_1BG@FDCGOKIO@?$AAP?$AAC?$AA?9?$AA9?$AA8?$AA?1?$AAC?$AA2?$AA4?$AA?5?$AA?$AA@ 00071dd4     UefiShellDebug1CommandsLib:QueryTable.obj
 0002:00012dec       ??_C@_1BC@FMLHNMAD@?$AAP?$AAC?$AA?9?$AA9?$AA8?$AA?1?$AAE?$AA?5?$AA?$AA@ 00071dec     UefiShellDebug1CommandsLib:QueryTable.obj
 0002:00012e00       ??_C@_1CC@OCHBEAJE@?$AAP?$AAC?$AA?9?$AA9?$AA8?$AA?1?$AAL?$AAo?$AAc?$AAa?$AAl?$AA?5?$AAB?$AAu?$AAs?$AA?5?$AA?$AA@ 00071e00     UefiShellDebug1CommandsLib:QueryTable.obj
 0002:00012e24       ??_C@_1BI@GMPFPMOA@?$AAP?$AAC?$AA?9?$AA9?$AA8?$AA?1?$AAC?$AAa?$AAr?$AAd?$AA?5?$AA?$AA@ 00071e24     UefiShellDebug1CommandsLib:QueryTable.obj
 0002:00012e3c       ??_C@_1BK@NGAJAHOO@?$AAP?$AAC?$AAI?$AA?5?$AAE?$AAx?$AAp?$AAr?$AAe?$AAs?$AAs?$AA?5?$AA?$AA@ 00071e3c     UefiShellDebug1CommandsLib:QueryTable.obj
 0002:00012e58       ??_C@_1BO@CFNHPJHI@?$AAP?$AAC?$AAI?$AA?5?$AAE?$AAx?$AAp?$AAr?$AAe?$AAs?$AAs?$AA?5?$AAX?$AA1?$AA?$AA@ 00071e58     UefiShellDebug1CommandsLib:QueryTable.obj
 0002:00012e78       ??_C@_1BO@DHGCFGJG@?$AAP?$AAC?$AAI?$AA?5?$AAE?$AAx?$AAp?$AAr?$AAe?$AAs?$AAs?$AA?5?$AAX?$AA2?$AA?$AA@ 00071e78     UefiShellDebug1CommandsLib:QueryTable.obj
 0002:00012e98       ??_C@_1BO@BCAJAJEK@?$AAP?$AAC?$AAI?$AA?5?$AAE?$AAx?$AAp?$AAr?$AAe?$AAs?$AAs?$AA?5?$AAX?$AA4?$AA?$AA@ 00071e98     UefiShellDebug1CommandsLib:QueryTable.obj
 0002:00012eb8       ??_C@_1BO@FINPLGPC@?$AAP?$AAC?$AAI?$AA?5?$AAE?$AAx?$AAp?$AAr?$AAe?$AAs?$AAs?$AA?5?$AAX?$AA8?$AA?$AA@ 00071eb8     UefiShellDebug1CommandsLib:QueryTable.obj
 0002:00012ed8       ??_C@_1CA@PGMHDLOM@?$AAP?$AAC?$AAI?$AA?5?$AAE?$AAx?$AAp?$AAr?$AAe?$AAs?$AAs?$AA?5?$AAX?$AA1?$AA6?$AA?$AA@ 00071ed8     UefiShellDebug1CommandsLib:QueryTable.obj
 0002:00012ef8       ??_C@_1CE@HBMMGLIB@?$AAP?$AAC?$AAI?$AA?5?$AAE?$AAx?$AAp?$AAr?$AAe?$AAs?$AAs?$AA?5?$AAG?$AAe?$AAn?$AA?5?$AA2?$AA?$AA@ 00071ef8     UefiShellDebug1CommandsLib:QueryTable.obj
 0002:00012f1c       ??_C@_1CK@DJKKFPA@?$AAP?$AAC?$AAI?$AA?5?$AAE?$AAx?$AAp?$AAr?$AAe?$AAs?$AAs?$AA?5?$AAG?$AAe?$AAn?$AA?5?$AA2?$AA?5?$AAX?$AA1?$AA?$AA@ 00071f1c     UefiShellDebug1CommandsLib:QueryTable.obj
 0002:00012f48       ??_C@_1CK@BBCPAKBO@?$AAP?$AAC?$AAI?$AA?5?$AAE?$AAx?$AAp?$AAr?$AAe?$AAs?$AAs?$AA?5?$AAG?$AAe?$AAn?$AA?5?$AA2?$AA?5?$AAX?$AA2?$AA?$AA@ 00071f48     UefiShellDebug1CommandsLib:QueryTable.obj
 0002:00012f74       ??_C@_1CK@DEEEFFMC@?$AAP?$AAC?$AAI?$AA?5?$AAE?$AAx?$AAp?$AAr?$AAe?$AAs?$AAs?$AA?5?$AAG?$AAe?$AAn?$AA?5?$AA2?$AA?5?$AAX?$AA4?$AA?$AA@ 00071f74     UefiShellDebug1CommandsLib:QueryTable.obj
 0002:00012fa0       ??_C@_1CK@HOJCOKHK@?$AAP?$AAC?$AAI?$AA?5?$AAE?$AAx?$AAp?$AAr?$AAe?$AAs?$AAs?$AA?5?$AAG?$AAe?$AAn?$AA?5?$AA2?$AA?5?$AAX?$AA8?$AA?$AA@ 00071fa0     UefiShellDebug1CommandsLib:QueryTable.obj
 0002:00012fcc       ??_C@_1CM@GHEABCDN@?$AAP?$AAC?$AAI?$AA?5?$AAE?$AAx?$AAp?$AAr?$AAe?$AAs?$AAs?$AA?5?$AAG?$AAe?$AAn?$AA?5?$AA2?$AA?5?$AAX?$AA1?$AA6?$AA?$AA@ 00071fcc     UefiShellDebug1CommandsLib:QueryTable.obj
 0002:00012ff8       ??_C@_1CE@MJHAAMOE@?$AAP?$AAC?$AAI?$AA?5?$AAE?$AAx?$AAp?$AAr?$AAe?$AAs?$AAs?$AA?5?$AAG?$AAe?$AAn?$AA?5?$AA3?$AA?$AA@ 00071ff8     UefiShellDebug1CommandsLib:QueryTable.obj
 0002:0001301c       ??_C@_1CK@OMFIMOMO@?$AAP?$AAC?$AAI?$AA?5?$AAE?$AAx?$AAp?$AAr?$AAe?$AAs?$AAs?$AA?5?$AAG?$AAe?$AAn?$AA?5?$AA3?$AA?5?$AAX?$AA1?$AA?$AA@ 0007201c     UefiShellDebug1CommandsLib:QueryTable.obj
 0002:00013048       ??_C@_1CK@POONGBCA@?$AAP?$AAC?$AAI?$AA?5?$AAE?$AAx?$AAp?$AAr?$AAe?$AAs?$AAs?$AA?5?$AAG?$AAe?$AAn?$AA?5?$AA3?$AA?5?$AAX?$AA2?$AA?$AA@ 00072048     UefiShellDebug1CommandsLib:QueryTable.obj
 0002:00013074       ??_C@_1CK@NLIGDOPM@?$AAP?$AAC?$AAI?$AA?5?$AAE?$AAx?$AAp?$AAr?$AAe?$AAs?$AAs?$AA?5?$AAG?$AAe?$AAn?$AA?5?$AA3?$AA?5?$AAX?$AA4?$AA?$AA@ 00072074     UefiShellDebug1CommandsLib:QueryTable.obj
 0002:000130a0       ??_C@_1CK@JBFAIBEE@?$AAP?$AAC?$AAI?$AA?5?$AAE?$AAx?$AAp?$AAr?$AAe?$AAs?$AAs?$AA?5?$AAG?$AAe?$AAn?$AA?5?$AA3?$AA?5?$AAX?$AA8?$AA?$AA@ 000720a0     UefiShellDebug1CommandsLib:QueryTable.obj
 0002:000130cc       ??_C@_1CM@PMOFFOFC@?$AAP?$AAC?$AAI?$AA?5?$AAE?$AAx?$AAp?$AAr?$AAe?$AAs?$AAs?$AA?5?$AAG?$AAe?$AAn?$AA?5?$AA3?$AA?5?$AAX?$AA1?$AA6?$AA?$AA@ 000720cc     UefiShellDebug1CommandsLib:QueryTable.obj
 0002:000130f8       ??_C@_1O@OHDAHDFF@?$AA?5?$AA8?$AA?5?$AAb?$AAi?$AAt?$AA?$AA@ 000720f8     UefiShellDebug1CommandsLib:QueryTable.obj
 0002:00013108       ??_C@_1BA@NPIDDELO@?$AA?5?$AA1?$AA6?$AA?5?$AAb?$AAi?$AAt?$AA?$AA@ 00072108     UefiShellDebug1CommandsLib:QueryTable.obj
 0002:00013118       ??_C@_1BA@DNOLMLGM@?$AA?5?$AA3?$AA2?$AA?5?$AAb?$AAi?$AAt?$AA?$AA@ 00072118     UefiShellDebug1CommandsLib:QueryTable.obj
 0002:00013128       ??_C@_1BA@FGHFAAOB@?$AA?5?$AA6?$AA4?$AA?5?$AAb?$AAi?$AAt?$AA?$AA@ 00072128     UefiShellDebug1CommandsLib:QueryTable.obj
 0002:00013138       ??_C@_1BC@NEHKFBFM@?$AA?5?$AA1?$AA2?$AA8?$AA?5?$AAb?$AAi?$AAt?$AA?$AA@ 00072138     UefiShellDebug1CommandsLib:QueryTable.obj
 0002:0001314c       ??_C@_1BE@OJJKOGNM@?$AA?5?$AA1?$AAx?$AA?5?$AAo?$AAr?$AA?5?$AAx?$AA1?$AA?$AA@ 0007214c     UefiShellDebug1CommandsLib:QueryTable.obj
 0002:00013160       ??_C@_1BE@BBKJJEFA@?$AA?5?$AA2?$AAx?$AA?5?$AAo?$AAr?$AA?5?$AAx?$AA2?$AA?$AA@ 00072160     UefiShellDebug1CommandsLib:QueryTable.obj
 0002:00013174       ??_C@_1BE@DKLOHHAJ@?$AA?5?$AA4?$AAx?$AA?5?$AAo?$AAr?$AA?5?$AAx?$AA4?$AA?$AA@ 00072174     UefiShellDebug1CommandsLib:QueryTable.obj
 0002:00013188       ??_C@_1BE@GMJBLBLL@?$AA?5?$AA8?$AAx?$AA?5?$AAo?$AAr?$AA?5?$AAx?$AA8?$AA?$AA@ 00072188     UefiShellDebug1CommandsLib:QueryTable.obj
 0002:0001319c       ??_C@_1BI@NKIOPCBP@?$AA?5?$AA1?$AA2?$AAx?$AA?5?$AAo?$AAr?$AA?5?$AAx?$AA1?$AA2?$AA?$AA@ 0007219c     UefiShellDebug1CommandsLib:QueryTable.obj
 0002:000131b4       ??_C@_1BI@BLABIOBB@?$AA?5?$AA1?$AA6?$AAx?$AA?5?$AAo?$AAr?$AA?5?$AAx?$AA1?$AA6?$AA?$AA@ 000721b4     UefiShellDebug1CommandsLib:QueryTable.obj
 0002:000131cc       ??_C@_1BI@LJBGJKJE@?$AA?5?$AA3?$AA2?$AAx?$AA?5?$AAo?$AAr?$AA?5?$AAx?$AA3?$AA2?$AA?$AA@ 000721cc     UefiShellDebug1CommandsLib:QueryTable.obj
 0002:000131e4       ??_C@_1BG@PBNCCCP@?$AA?5?$AAA?$AAv?$AAa?$AAi?$AAl?$AAa?$AAb?$AAl?$AAe?$AA?$AA@ 000721e4     UefiShellDebug1CommandsLib:QueryTable.obj
 0002:000131fc       ??_C@_1BA@FEJMAK@?$AA?5?$AAI?$AAn?$AA?5?$AAu?$AAs?$AAe?$AA?$AA@ 000721fc     UefiShellDebug1CommandsLib:QueryTable.obj
 0002:0001320c       ??_C@_1BM@PMKIHGOB@?$AA?5?$AAS?$AAh?$AAo?$AAr?$AAt?$AA?5?$AAl?$AAe?$AAn?$AAg?$AAt?$AAh?$AA?$AA@ 0007220c     UefiShellDebug1CommandsLib:QueryTable.obj
 0002:00013228       ??_C@_1BK@FLOAHCMB@?$AA?5?$AAL?$AAo?$AAn?$AAg?$AA?5?$AAL?$AAe?$AAn?$AAg?$AAt?$AAh?$AA?$AA@ 00072228     UefiShellDebug1CommandsLib:QueryTable.obj
 0002:00013244       ??_C@_1DC@FIGFMDLI@?$AA?5?$AAC?$AAh?$AAa?$AAr?$AAa?$AAc?$AAt?$AAe?$AAr?$AAi?$AAs?$AAt?$AAi?$AAc?$AAs?$AA?5?$AAU?$AAn?$AAk?$AAn?$AAo?$AAw?$AAn?$AA?$AA@ 00072244     UefiShellDebug1CommandsLib:QueryTable.obj
 0002:00013278       ??_C@_1CI@LDBECCCN@?$AA?5?$AAP?$AAr?$AAo?$AAv?$AAi?$AAd?$AAe?$AAs?$AA?5?$AA5?$AA?4?$AA0?$AA?5?$AAV?$AAo?$AAl?$AAt?$AAs?$AA?$AA@ 00072278     UefiShellDebug1CommandsLib:QueryTable.obj
 0002:000132a0       ??_C@_1CI@BOPPALAK@?$AA?5?$AAP?$AAr?$AAo?$AAv?$AAi?$AAd?$AAe?$AAs?$AA?5?$AA3?$AA?4?$AA3?$AA?5?$AAV?$AAo?$AAl?$AAt?$AAs?$AA?$AA@ 000722a0     UefiShellDebug1CommandsLib:QueryTable.obj
 0002:000132c8       ??_C@_1JA@EIHGPDKL@?$AA?5?$AAS?$AAl?$AAo?$AAt?$AA?8?$AAs?$AA?5?$AAo?$AAp?$AAe?$AAn?$AAi?$AAn?$AAg?$AA?5?$AAi?$AAs?$AA?5?$AAs?$AAh?$AAa?$AAr?$AAe?$AAd?$AA?5?$AAw?$AAi?$AAt?$AAh?$AA?5?$AAa@ 000722c8     UefiShellDebug1CommandsLib:QueryTable.obj
 0002:00013358       ??_C@_1EE@OIOLADMH@?$AA?5?$AAP?$AAC?$AA?5?$AAC?$AAa?$AAr?$AAd?$AA?5?$AAs?$AAl?$AAo?$AAt?$AA?5?$AAs?$AAu?$AAp?$AAp?$AAo?$AAr?$AAt?$AAs?$AA?5?$AAP?$AAC?$AA?5?$AAC?$AAa?$AAr?$AAd?$AA?9?$AA1@ 00072358     UefiShellDebug1CommandsLib:QueryTable.obj
 0002:0001339c       ??_C@_1DO@JFEDJOOK@?$AA?5?$AAP?$AAC?$AA?5?$AAC?$AAa?$AAr?$AAd?$AA?5?$AAs?$AAl?$AAo?$AAt?$AA?5?$AAs?$AAu?$AAp?$AAp?$AAo?$AAr?$AAt?$AAs?$AA?5?$AAC?$AAa?$AAr?$AAd?$AAB?$AAu?$AAs?$AA?$AA@ 0007239c     UefiShellDebug1CommandsLib:QueryTable.obj
 0002:000133e0       ??_C@_1EG@IEPEODDF@?$AA?5?$AAP?$AAC?$AA?5?$AAC?$AAa?$AAr?$AAd?$AA?5?$AAs?$AAl?$AAo?$AAt?$AA?5?$AAs?$AAu?$AAp?$AAp?$AAo?$AAr?$AAt?$AAs?$AA?5?$AAZ?$AAo?$AAo?$AAm?$AA?5?$AAV?$AAi?$AAd?$AAe@ 000723e0     UefiShellDebug1CommandsLib:QueryTable.obj
 0002:00013428       ??_C@_1FE@NEBIPEBH@?$AA?5?$AAP?$AAC?$AA?5?$AAC?$AAa?$AAr?$AAd?$AA?5?$AAs?$AAl?$AAo?$AAt?$AA?5?$AAs?$AAu?$AAp?$AAp?$AAo?$AAr?$AAt?$AAs?$AA?5?$AAM?$AAo?$AAd?$AAe?$AAm?$AA?5?$AAR?$AAi?$AAn@ 00072428     UefiShellDebug1CommandsLib:QueryTable.obj
 0002:00013480       ??_C@_1HC@HOEBBJJH@?$AA?5?$AAP?$AAC?$AAI?$AA?5?$AAs?$AAl?$AAo?$AAt?$AA?5?$AAs?$AAu?$AAp?$AAp?$AAo?$AAr?$AAt?$AAs?$AA?5?$AAP?$AAo?$AAw?$AAe?$AAr?$AA?5?$AAM?$AAa?$AAn?$AAa?$AAg?$AAe?$AAm@ 00072480     UefiShellDebug1CommandsLib:QueryTable.obj
 0002:000134f8       ??_C@_1EA@FECBNCMD@?$AA?5?$AAS?$AAl?$AAo?$AAt?$AA?5?$AAs?$AAu?$AAp?$AAp?$AAo?$AAr?$AAt?$AAs?$AA?5?$AAh?$AAo?$AAt?$AA?9?$AAp?$AAl?$AAu?$AAg?$AA?5?$AAd?$AAe?$AAv?$AAi?$AAc?$AAe?$AAs?$AA?$AA@ 000724f8     UefiShellDebug1CommandsLib:QueryTable.obj
 0002:00013538       ??_C@_1EA@PLBBCABB@?$AA?5?$AAP?$AAC?$AAI?$AA?5?$AAs?$AAl?$AAo?$AAt?$AA?5?$AAs?$AAu?$AAp?$AAp?$AAo?$AAr?$AAt?$AAs?$AA?5?$AAS?$AAM?$AAB?$AAu?$AAs?$AA?5?$AAs?$AAi?$AAg?$AAn?$AAa?$AAl?$AA?$AA@ 00072538     UefiShellDebug1CommandsLib:QueryTable.obj
 0002:00013578       ??_C@_1BA@FIHGLAKE@?$AA?5?$AA?5?$AAV?$AAi?$AAd?$AAe?$AAo?$AA?$AA@ 00072578     UefiShellDebug1CommandsLib:QueryTable.obj
 0002:00013588       ??_C@_1CE@BHBIDJGK@?$AA?5?$AA?5?$AAS?$AAC?$AAS?$AAI?$AA?5?$AAC?$AAo?$AAn?$AAt?$AAr?$AAo?$AAl?$AAl?$AAe?$AAr?$AA?$AA@ 00072588     UefiShellDebug1CommandsLib:QueryTable.obj
 0002:000135ac       ??_C@_1BG@BEFJKGMH@?$AA?5?$AA?5?$AAE?$AAt?$AAh?$AAe?$AAr?$AAn?$AAe?$AAt?$AA?$AA@ 000725ac     UefiShellDebug1CommandsLib:QueryTable.obj
 0002:000135c4       ??_C@_1BK@KNKKNDDH@?$AA?5?$AA?5?$AAT?$AAo?$AAk?$AAe?$AAn?$AA?5?$AAR?$AAi?$AAn?$AAg?$AA?$AA@ 000725c4     UefiShellDebug1CommandsLib:QueryTable.obj
 0002:000135e0       ??_C@_1BA@MABMPBIE@?$AA?5?$AA?5?$AAS?$AAo?$AAu?$AAn?$AAd?$AA?$AA@ 000725e0     UefiShellDebug1CommandsLib:QueryTable.obj
 0002:000135f0       ??_C@_1CE@KPFEECDP@?$AA?5?$AA?5?$AAP?$AAa?$AAt?$AAa?$AA?5?$AAC?$AAo?$AAn?$AAt?$AAr?$AAo?$AAl?$AAl?$AAe?$AAr?$AA?$AA@ 000725f0     UefiShellDebug1CommandsLib:QueryTable.obj
 0002:00013614       ??_C@_1CE@GGELEKIA@?$AA?5?$AA?5?$AAS?$AAa?$AAt?$AAa?$AA?5?$AAC?$AAo?$AAn?$AAt?$AAr?$AAo?$AAl?$AAl?$AAe?$AAr?$AA?$AA@ 00072614     UefiShellDebug1CommandsLib:QueryTable.obj
 0002:00013638       ??_C@_1CC@IFDOBMBO@?$AA?5?$AA?5?$AAS?$AAa?$AAs?$AA?5?$AAC?$AAo?$AAn?$AAt?$AAr?$AAo?$AAl?$AAl?$AAe?$AAr?$AA?$AA@ 00072638     UefiShellDebug1CommandsLib:QueryTable.obj
 0002:0001365c       ??_C@_1BG@EFPNDPFB@?$AA?5?$AAR?$AAe?$AAs?$AAe?$AAr?$AAv?$AAe?$AAd?$AA?4?$AA?$AA@ 0007265c     UefiShellDebug1CommandsLib:QueryTable.obj
 0002:00013674       ??_C@_1DK@JCGEGJKI@?$AA?5?$AAS?$AAi?$AAn?$AAg?$AAl?$AAe?$AA?9?$AAb?$AAi?$AAt?$AA?5?$AAE?$AAC?$AAC?$AA?5?$AAm?$AAe?$AAm?$AAo?$AAr?$AAy?$AA?5?$AAe?$AAr?$AAr?$AAo?$AAr?$AA?$AA@ 00072674     UefiShellDebug1CommandsLib:QueryTable.obj
 0002:000136b0       ??_C@_1DI@IBHOKKKH@?$AA?5?$AAM?$AAu?$AAl?$AAt?$AAi?$AA?9?$AAb?$AAi?$AAt?$AA?5?$AAE?$AAC?$AAC?$AA?5?$AAm?$AAe?$AAm?$AAo?$AAr?$AAy?$AA?5?$AAe?$AAr?$AAr?$AAo?$AAr?$AA?$AA@ 000726b0     UefiShellDebug1CommandsLib:QueryTable.obj
 0002:000136e8       ??_C@_1CK@BJAGMCAE@?$AA?5?$AAP?$AAa?$AAr?$AAi?$AAt?$AAy?$AA?5?$AAm?$AAe?$AAm?$AAo?$AAr?$AAy?$AA?5?$AAe?$AAr?$AAr?$AAo?$AAr?$AA?$AA@ 000726e8     UefiShellDebug1CommandsLib:QueryTable.obj
 0002:00013714       ??_C@_1BM@LOLGDEMN@?$AA?5?$AAB?$AAu?$AAs?$AA?5?$AAt?$AAi?$AAm?$AAe?$AA?9?$AAo?$AAu?$AAt?$AA?$AA@ 00072714     UefiShellDebug1CommandsLib:QueryTable.obj
 0002:00013730       ??_C@_1CG@DNBJCKBI@?$AA?5?$AAI?$AA?1?$AAO?$AA?5?$AAC?$AAh?$AAa?$AAn?$AAn?$AAe?$AAl?$AA?5?$AAC?$AAh?$AAe?$AAc?$AAk?$AA?$AA@ 00072730     UefiShellDebug1CommandsLib:QueryTable.obj
 0002:00013758       ??_C@_1BM@HNPAJNDG@?$AA?5?$AAS?$AAo?$AAf?$AAt?$AAw?$AAa?$AAr?$AAe?$AA?5?$AAN?$AAM?$AAI?$AA?$AA@ 00072758     UefiShellDebug1CommandsLib:QueryTable.obj
 0002:00013774       ??_C@_1CI@KPDLJCME@?$AA?5?$AAP?$AAO?$AAS?$AAT?$AA?5?$AAM?$AAe?$AAm?$AAo?$AAr?$AAy?$AA?5?$AAR?$AAe?$AAs?$AAi?$AAz?$AAe?$AA?$AA@ 00072774     UefiShellDebug1CommandsLib:QueryTable.obj
 0002:0001379c       ??_C@_1BI@KLAPKJAF@?$AA?5?$AAP?$AAO?$AAS?$AAT?$AA?5?$AAE?$AAr?$AAr?$AAo?$AAr?$AA?$AA@ 0007279c     UefiShellDebug1CommandsLib:QueryTable.obj
 0002:000137b4       ??_C@_1CE@NILMJPJ@?$AA?5?$AAP?$AAC?$AAI?$AA?5?$AAP?$AAa?$AAr?$AAi?$AAt?$AAy?$AA?5?$AAE?$AAr?$AAr?$AAo?$AAr?$AA?$AA@ 000727b4     UefiShellDebug1CommandsLib:QueryTable.obj
 0002:000137d8       ??_C@_1CE@OAOCDGCK@?$AA?5?$AAP?$AAC?$AAI?$AA?5?$AAS?$AAy?$AAs?$AAt?$AAe?$AAm?$AA?5?$AAE?$AAr?$AAr?$AAo?$AAr?$AA?$AA@ 000727d8     UefiShellDebug1CommandsLib:QueryTable.obj
 0002:000137fc       ??_C@_1BK@NNPANPFC@?$AA?5?$AAC?$AAP?$AAU?$AA?5?$AAF?$AAa?$AAi?$AAl?$AAu?$AAr?$AAe?$AA?$AA@ 000727fc     UefiShellDebug1CommandsLib:QueryTable.obj
 0002:00013818       ??_C@_1DM@BDHCHFBO@?$AA?5?$AAE?$AAI?$AAS?$AAA?$AA?5?$AAF?$AAa?$AAi?$AAl?$AAS?$AAa?$AAf?$AAe?$AA?5?$AAT?$AAi?$AAm?$AAe?$AAr?$AA?5?$AAt?$AAi?$AAm?$AAe?$AA?9?$AAo?$AAu?$AAt?$AA?$AA@ 00072818     UefiShellDebug1CommandsLib:QueryTable.obj
 0002:00013858       ??_C@_1EC@CAAJHHDM@?$AA?5?$AAC?$AAo?$AAr?$AAr?$AAe?$AAc?$AAt?$AAa?$AAb?$AAl?$AAe?$AA?5?$AAm?$AAe?$AAm?$AAo?$AAr?$AAy?$AA?5?$AAl?$AAo?$AAg?$AA?5?$AAd?$AAi?$AAs?$AAa?$AAb?$AAl?$AAe?$AAd@ 00072858     UefiShellDebug1CommandsLib:QueryTable.obj
 0002:000138a0       ??_C@_1FI@GNDLBGGM@?$AA?5?$AAL?$AAo?$AAg?$AAg?$AAi?$AAn?$AAg?$AA?5?$AAd?$AAi?$AAs?$AAa?$AAb?$AAl?$AAe?$AAd?$AA?5?$AAf?$AAo?$AAr?$AA?5?$AAa?$AA?5?$AAs?$AAp?$AAe?$AAc?$AAi?$AAf?$AAi?$AAc@ 000728a0     UefiShellDebug1CommandsLib:QueryTable.obj
 0002:000138f8       ??_C@_1CO@OEOIIMKB@?$AA?5?$AAS?$AAy?$AAs?$AAt?$AAe?$AAm?$AA?5?$AAL?$AAi?$AAm?$AAi?$AAt?$AA?5?$AAE?$AAx?$AAc?$AAe?$AAe?$AAd?$AAe?$AAd?$AA?$AA@ 000728f8     UefiShellDebug1CommandsLib:QueryTable.obj
 0002:00013928       ??_C@_1HO@IMHBEFG@?$AA?5?$AAA?$AAs?$AAy?$AAn?$AAc?$AAh?$AAr?$AAo?$AAn?$AAo?$AAu?$AAs?$AA?5?$AAh?$AAa?$AAr?$AAd?$AAw?$AAa?$AAr?$AAe?$AA?5?$AAt?$AAi?$AAm?$AAe?$AAr?$AA?5?$AAe?$AAx?$AAp@ 00072928     UefiShellDebug1CommandsLib:QueryTable.obj
 0002:000139a8       ??_C@_1EE@BEEGODPM@?$AA?5?$AAS?$AAy?$AAs?$AAt?$AAe?$AAm?$AA?5?$AAc?$AAo?$AAn?$AAf?$AAi?$AAg?$AAu?$AAr?$AAa?$AAt?$AAi?$AAo?$AAn?$AA?5?$AAi?$AAn?$AAf?$AAo?$AAr?$AAm?$AAa?$AAt?$AAi?$AAo@ 000729a8     UefiShellDebug1CommandsLib:QueryTable.obj
 0002:000139ec       ??_C@_1CO@CAKKPLP@?$AA?5?$AAH?$AAa?$AAr?$AAd?$AA?9?$AAd?$AAi?$AAs?$AAk?$AA?5?$AAi?$AAn?$AAf?$AAo?$AAr?$AAm?$AAa?$AAt?$AAi?$AAo?$AAn?$AA?$AA@ 000729ec     UefiShellDebug1CommandsLib:QueryTable.obj
 0002:00013a1c       ??_C@_1CK@CGNHFMJJ@?$AA?5?$AAS?$AAy?$AAs?$AAt?$AAe?$AAm?$AA?5?$AAr?$AAe?$AAc?$AAo?$AAn?$AAf?$AAi?$AAg?$AAu?$AAr?$AAe?$AAd?$AA?$AA@ 00072a1c     UefiShellDebug1CommandsLib:QueryTable.obj
 0002:00013a48       ??_C@_1EC@CCIFCIBI@?$AA?5?$AAU?$AAn?$AAc?$AAo?$AAr?$AAr?$AAe?$AAc?$AAt?$AAa?$AAb?$AAl?$AAe?$AA?5?$AAC?$AAP?$AAU?$AA?9?$AAc?$AAo?$AAm?$AAp?$AAl?$AAe?$AAx?$AA?5?$AAe?$AAr?$AAr?$AAo?$AAr@ 00072a48     UefiShellDebug1CommandsLib:QueryTable.obj
 0002:00013a8c       ??_C@_1DA@LCIPEMME@?$AA?5?$AAL?$AAo?$AAg?$AA?5?$AAA?$AAr?$AAe?$AAa?$AA?5?$AAR?$AAe?$AAs?$AAe?$AAt?$AA?1?$AAC?$AAl?$AAe?$AAa?$AAr?$AAe?$AAd?$AA?$AA@ 00072a8c     UefiShellDebug1CommandsLib:QueryTable.obj
 0002:00013abc       ??_C@_1BK@JIKBKJOA@?$AA?5?$AAS?$AAy?$AAs?$AAt?$AAe?$AAm?$AA?5?$AAb?$AAo?$AAo?$AAt?$AA?$AA@ 00072abc     UefiShellDebug1CommandsLib:QueryTable.obj
 0002:00013ad8       ??_C@_1EA@FCCFOHFH@?$AA?5?$AAU?$AAn?$AAu?$AAs?$AAe?$AAd?$AA?5?$AAb?$AAy?$AA?5?$AAS?$AAM?$AAB?$AAI?$AAO?$AAS?$AA?5?$AAs?$AAp?$AAe?$AAc?$AAi?$AAf?$AAi?$AAc?$AAa?$AAt?$AAi?$AAo?$AAn?$AA?$AA@ 00072ad8     UefiShellDebug1CommandsLib:QueryTable.obj
 0002:00013b18       ??_C@_1DE@OPAHBBEN@?$AA?5?$AAS?$AAy?$AAs?$AAt?$AAe?$AAm?$AA?5?$AAa?$AAn?$AAd?$AA?5?$AAO?$AAE?$AAM?$AA?5?$AAs?$AAp?$AAe?$AAc?$AAi?$AAf?$AAi?$AAe?$AAd?$AA?$AA@ 00072b18     UefiShellDebug1CommandsLib:QueryTable.obj
 0002:00013b4c       ??_C@_1BI@JIFHDPDM@?$AA?5?$AAE?$AAn?$AAd?$AA?9?$AAo?$AAf?$AA?9?$AAl?$AAo?$AAg?$AA?$AA@ 00072b4c     UefiShellDebug1CommandsLib:QueryTable.obj
 0002:00013b64       ??_C@_1O@CHPEEGKN@?$AA?5?$AAN?$AAo?$AAn?$AAe?$AA?5?$AA?$AA@ 00072b64     UefiShellDebug1CommandsLib:QueryTable.obj
 0002:00013b74       ??_C@_1BC@OPDNBAFH@?$AA?5?$AAH?$AAa?$AAn?$AAd?$AAl?$AAe?$AA?5?$AA?$AA@ 00072b74     UefiShellDebug1CommandsLib:QueryTable.obj
 0002:00013b88       ??_C@_1CC@HBJFNEGG@?$AA?5?$AAM?$AAu?$AAl?$AAt?$AAi?$AAp?$AAl?$AAe?$AA?9?$AAE?$AAv?$AAe?$AAn?$AAt?$AA?5?$AA?$AA@ 00072b88     UefiShellDebug1CommandsLib:QueryTable.obj
 0002:00013bac       ??_C@_1DA@PMAJFMIF@?$AA?5?$AAM?$AAu?$AAl?$AAt?$AAi?$AAp?$AAl?$AAe?$AA?9?$AAE?$AAv?$AAe?$AAn?$AAt?$AA?5?$AAH?$AAa?$AAn?$AAd?$AAl?$AAe?$AA?5?$AA?$AA@ 00072bac     UefiShellDebug1CommandsLib:QueryTable.obj
 0002:00013bdc       ??_C@_1CM@LNKAMACD@?$AA?5?$AAP?$AAO?$AAS?$AAT?$AA?5?$AAR?$AAe?$AAs?$AAu?$AAl?$AAt?$AAs?$AA?5?$AAB?$AAi?$AAt?$AAm?$AAa?$AAp?$AA?5?$AA?$AA@ 00072bdc     UefiShellDebug1CommandsLib:QueryTable.obj
 0002:00013c08       ??_C@_1DA@LMLLDOGA@?$AA?5?$AAS?$AAy?$AAs?$AAt?$AAe?$AAm?$AA?5?$AAM?$AAa?$AAn?$AAa?$AAg?$AAe?$AAm?$AAe?$AAn?$AAt?$AA?5?$AAT?$AAy?$AAp?$AAe?$AA?$AA@ 00072c08     UefiShellDebug1CommandsLib:QueryTable.obj
 0002:00013c38       ??_C@_1FA@LOFDDJNI@?$AA?5?$AAM?$AAu?$AAl?$AAt?$AAi?$AAp?$AAl?$AAe?$AA?9?$AAE?$AAv?$AAe?$AAn?$AAt?$AA?5?$AAS?$AAy?$AAs?$AAt?$AAe?$AAm?$AA?5?$AAM?$AAa?$AAn?$AAa?$AAg?$AAe?$AAm?$AAe?$AAn@ 00072c38     UefiShellDebug1CommandsLib:QueryTable.obj
 0002:00013c88       ??_C@_1BC@DKCPMDIL@?$AA?5?$AAU?$AAn?$AAu?$AAs?$AAe?$AAd?$AA?5?$AA?$AA@ 00072c88     UefiShellDebug1CommandsLib:QueryTable.obj
 0002:00013c9c       ??_C@_1BO@GCNEBFHF@?$AA?5?$AAO?$AAE?$AAM?$AA?5?$AAa?$AAs?$AAs?$AAi?$AAg?$AAn?$AAe?$AAd?$AA?5?$AA?$AA@ 00072c9c     UefiShellDebug1CommandsLib:QueryTable.obj
 0002:00013cbc       ??_C@_1DA@NBEBMC@?$AA?5?$AAC?$AAh?$AAa?$AAn?$AAn?$AAe?$AAl?$AA?5?$AA2?$AA?5?$AAT?$AAi?$AAm?$AAe?$AAr?$AA?5?$AAe?$AAr?$AAr?$AAo?$AAr?$AA?5?$AA?$AA@ 00072cbc     UefiShellDebug1CommandsLib:QueryTable.obj
 0002:00013cec       ??_C@_1DK@MDGFNBLI@?$AA?5?$AAM?$AAa?$AAs?$AAt?$AAe?$AAr?$AA?5?$AAP?$AAI?$AAC?$AA?5?$AA?$CI?$AA8?$AA2?$AA5?$AA9?$AA?5?$AA?$CD?$AA1?$AA?$CJ?$AA?5?$AAe?$AAr?$AAr?$AAo?$AAr?$AA?5?$AA?$AA@ 00072cec     UefiShellDebug1CommandsLib:QueryTable.obj
 0002:00013d28       ??_C@_1DI@OMKGLDAO@?$AA?5?$AAS?$AAl?$AAa?$AAv?$AAe?$AA?5?$AAP?$AAI?$AAC?$AA?5?$AA?$CI?$AA8?$AA2?$AA5?$AA9?$AA?5?$AA?$CD?$AA2?$AA?$CJ?$AA?5?$AAe?$AAr?$AAr?$AAo?$AAr?$AA?5?$AA?$AA@ 00072d28     UefiShellDebug1CommandsLib:QueryTable.obj
 0002:00013d60       ??_C@_1CO@JBMKMEBD@?$AA?5?$AAC?$AAM?$AAO?$AAS?$AA?5?$AAB?$AAa?$AAt?$AAt?$AAe?$AAr?$AAy?$AA?5?$AAF?$AAa?$AAi?$AAl?$AAu?$AAr?$AAe?$AA?5?$AA?$AA@ 00072d60     UefiShellDebug1CommandsLib:QueryTable.obj
 0002:00013d90       ??_C@_1DM@EBIMHGJG@?$AA?5?$AAC?$AAM?$AAO?$AAS?$AA?5?$AAS?$AAy?$AAs?$AAt?$AAe?$AAm?$AA?5?$AAO?$AAp?$AAt?$AAi?$AAo?$AAn?$AAs?$AA?5?$AAN?$AAo?$AAt?$AA?5?$AAS?$AAe?$AAt?$AA?5?$AA?$AA@ 00072d90     UefiShellDebug1CommandsLib:QueryTable.obj
 0002:00013dcc       ??_C@_1CM@CFJBDCNB@?$AA?5?$AAC?$AAM?$AAO?$AAS?$AA?5?$AAC?$AAh?$AAe?$AAc?$AAk?$AAs?$AAu?$AAm?$AA?5?$AAE?$AAr?$AAr?$AAo?$AAr?$AA?5?$AA?$AA@ 00072dcc     UefiShellDebug1CommandsLib:QueryTable.obj
 0002:00013df8       ??_C@_1DG@HFAODPMF@?$AA?5?$AAC?$AAM?$AAO?$AAS?$AA?5?$AAC?$AAo?$AAn?$AAf?$AAi?$AAg?$AAu?$AAr?$AAa?$AAt?$AAi?$AAo?$AAn?$AA?5?$AAE?$AAr?$AAr?$AAo?$AAr?$AA?5?$AA?$AA@ 00072df8     UefiShellDebug1CommandsLib:QueryTable.obj
 0002:00013e30       ??_C@_1DK@CKOKNKLD@?$AA?5?$AAM?$AAo?$AAu?$AAs?$AAe?$AA?5?$AAa?$AAn?$AAd?$AA?5?$AAK?$AAe?$AAy?$AAb?$AAo?$AAa?$AAr?$AAd?$AA?5?$AAS?$AAw?$AAa?$AAp?$AAp?$AAe?$AAd?$AA?5?$AA?$AA@ 00072e30     UefiShellDebug1CommandsLib:QueryTable.obj
 0002:00013e6c       ??_C@_1CE@HKNJNPPA@?$AA?5?$AAK?$AAe?$AAy?$AAb?$AAo?$AAa?$AAr?$AAd?$AA?5?$AAL?$AAo?$AAc?$AAk?$AAe?$AAd?$AA?5?$AA?$AA@ 00072e6c     UefiShellDebug1CommandsLib:QueryTable.obj
 0002:00013e90       ??_C@_1DE@JPJEMPHC@?$AA?5?$AAK?$AAe?$AAy?$AAb?$AAo?$AAa?$AAr?$AAd?$AA?5?$AAN?$AAo?$AAt?$AA?5?$AAF?$AAu?$AAn?$AAc?$AAt?$AAi?$AAo?$AAn?$AAa?$AAl?$AA?5?$AA?$AA@ 00072e90     UefiShellDebug1CommandsLib:QueryTable.obj
 0002:00013ec8       ??_C@_1EK@EKBKHGAD@?$AA?5?$AAK?$AAe?$AAy?$AAb?$AAo?$AAa?$AAr?$AAd?$AA?5?$AAC?$AAo?$AAn?$AAt?$AAr?$AAo?$AAl?$AAl?$AAe?$AAr?$AA?5?$AAN?$AAo?$AAt?$AA?5?$AAF?$AAu?$AAn?$AAc?$AAt?$AAi?$AAo@ 00072ec8     UefiShellDebug1CommandsLib:QueryTable.obj
 0002:00013f14       ??_C@_1DK@CMPKGMCK@?$AA?5?$AAC?$AAM?$AAO?$AAS?$AA?5?$AAM?$AAe?$AAm?$AAo?$AAr?$AAy?$AA?5?$AAS?$AAi?$AAz?$AAe?$AA?5?$AAD?$AAi?$AAf?$AAf?$AAe?$AAr?$AAe?$AAn?$AAt?$AA?5?$AA?$AA@ 00072f14     UefiShellDebug1CommandsLib:QueryTable.obj
 0002:00013f50       ??_C@_1DG@PLLDHOLJ@?$AA?5?$AAM?$AAe?$AAm?$AAo?$AAr?$AAy?$AA?5?$AAD?$AAe?$AAc?$AAr?$AAe?$AAa?$AAs?$AAe?$AAd?$AA?5?$AAi?$AAn?$AA?5?$AAS?$AAi?$AAz?$AAe?$AA?5?$AA?$AA@ 00072f50     UefiShellDebug1CommandsLib:QueryTable.obj
 0002:00013f88       ??_C@_1CK@BIEBBIJC@?$AA?5?$AAC?$AAa?$AAc?$AAh?$AAe?$AA?5?$AAM?$AAe?$AAm?$AAo?$AAr?$AAy?$AA?5?$AAE?$AAr?$AAr?$AAo?$AAr?$AA?5?$AA?$AA@ 00072f88     UefiShellDebug1CommandsLib:QueryTable.obj
 0002:00013fb4       ??_C@_1CO@GBFPKAEB@?$AA?5?$AAF?$AAl?$AAo?$AAp?$AAp?$AAy?$AA?5?$AAD?$AAr?$AAi?$AAv?$AAe?$AA?5?$AA0?$AA?5?$AAE?$AAr?$AAr?$AAo?$AAr?$AA?5?$AA?$AA@ 00072fb4     UefiShellDebug1CommandsLib:QueryTable.obj
 0002:00013fe4       ??_C@_1CO@IOANBGKA@?$AA?5?$AAF?$AAl?$AAo?$AAp?$AAp?$AAy?$AA?5?$AAD?$AAr?$AAi?$AAv?$AAe?$AA?5?$AA1?$AA?5?$AAE?$AAr?$AAr?$AAo?$AAr?$AA?5?$AA?$AA@ 00072fe4     UefiShellDebug1CommandsLib:QueryTable.obj
 0002:00014014       ??_C@_1DI@LGDKDBKC@?$AA?5?$AAF?$AAl?$AAo?$AAp?$AAp?$AAy?$AA?5?$AAC?$AAo?$AAn?$AAt?$AAr?$AAo?$AAl?$AAl?$AAe?$AAr?$AA?5?$AAF?$AAa?$AAi?$AAl?$AAu?$AAr?$AAe?$AA?5?$AA?$AA@ 00073014     UefiShellDebug1CommandsLib:QueryTable.obj
 0002:00014050       ??_C@_1EK@JGAKCFFG@?$AA?5?$AAN?$AAu?$AAm?$AAb?$AAe?$AAr?$AA?5?$AAo?$AAf?$AA?5?$AAA?$AAT?$AAA?$AA?5?$AAD?$AAr?$AAi?$AAv?$AAe?$AAs?$AA?5?$AAR?$AAe?$AAd?$AAu?$AAc?$AAe?$AAd?$AA?5?$AAE?$AAr@ 00073050     UefiShellDebug1CommandsLib:QueryTable.obj
 0002:0001409c       ??_C@_1CI@JHKILACA@?$AA?5?$AAC?$AAM?$AAO?$AAS?$AA?5?$AAT?$AAi?$AAm?$AAe?$AA?5?$AAN?$AAo?$AAt?$AA?5?$AAS?$AAe?$AAt?$AA?5?$AA?$AA@ 0007309c     UefiShellDebug1CommandsLib:QueryTable.obj
 0002:000140c8       ??_C@_1EG@CBFNBNLB@?$AA?5?$AAD?$AAD?$AAC?$AA?5?$AAM?$AAo?$AAn?$AAi?$AAt?$AAo?$AAr?$AA?5?$AAC?$AAo?$AAn?$AAf?$AAi?$AAg?$AAu?$AAr?$AAa?$AAt?$AAi?$AAo?$AAn?$AA?5?$AAC?$AAh?$AAa?$AAn?$AAg@ 000730c8     UefiShellDebug1CommandsLib:QueryTable.obj
 0002:00014110       ??_C@_1CK@FFBDJGID@?$AA?5?$AAR?$AAe?$AAs?$AAe?$AAr?$AAv?$AAe?$AAd?$AA?0?$AA?5?$AAs?$AAe?$AAt?$AA?5?$AAt?$AAo?$AA?5?$AA0?$AA?5?$AA?$AA@ 00073110     UefiShellDebug1CommandsLib:QueryTable.obj
 0002:0001413c       ??_C@_1DM@CMAAJKDK@?$AA?5?$AAS?$AAe?$AAc?$AAo?$AAn?$AAd?$AA?5?$AAD?$AAW?$AAO?$AAR?$AAD?$AA?5?$AAh?$AAa?$AAs?$AA?5?$AAv?$AAa?$AAl?$AAi?$AAd?$AA?5?$AAd?$AAa?$AAt?$AAa?$AA?5?$AA?$AA@ 0007313c     UefiShellDebug1CommandsLib:QueryTable.obj
 0002:00014178       ??_C@_1FG@DJMHBPCE@?$AA?5?$AAN?$AAo?$AAr?$AAm?$AAa?$AAl?$AAl?$AAy?$AA?5?$AA0?$AA?$DL?$AA?5?$AAa?$AAv?$AAa?$AAi?$AAl?$AAa?$AAb?$AAl?$AAe?$AA?5?$AAf?$AAo?$AAr?$AA?5?$AAO?$AAE?$AAM?$AA?5?$AAa@ 00073178     UefiShellDebug1CommandsLib:QueryTable.obj
 0002:000141d0       ??_C@_1CM@PPAOHOBI@?$AA?5?$AAP?$AAC?$AAI?$AA?5?$AAM?$AAe?$AAm?$AAo?$AAr?$AAy?$AA?5?$AAC?$AAo?$AAn?$AAf?$AAl?$AAi?$AAc?$AAt?$AA?5?$AA?$AA@ 000731d0     UefiShellDebug1CommandsLib:QueryTable.obj
 0002:000141fc       ??_C@_1CG@NOODKEAF@?$AA?5?$AAP?$AAC?$AAI?$AA?5?$AAI?$AA?1?$AAO?$AA?5?$AAC?$AAo?$AAn?$AAf?$AAl?$AAi?$AAc?$AAt?$AA?5?$AA?$AA@ 000731fc     UefiShellDebug1CommandsLib:QueryTable.obj
 0002:00014224       ??_C@_1CG@LKEFCEMJ@?$AA?5?$AAP?$AAC?$AAI?$AA?5?$AAI?$AAR?$AAQ?$AA?5?$AAC?$AAo?$AAn?$AAf?$AAl?$AAi?$AAc?$AAt?$AA?5?$AA?$AA@ 00073224     UefiShellDebug1CommandsLib:QueryTable.obj
 0002:0001424c       ??_C@_1CM@HFODNKGG@?$AA?5?$AAP?$AAN?$AAP?$AA?5?$AAM?$AAe?$AAm?$AAo?$AAr?$AAy?$AA?5?$AAC?$AAo?$AAn?$AAf?$AAl?$AAi?$AAc?$AAt?$AA?5?$AA?$AA@ 0007324c     UefiShellDebug1CommandsLib:QueryTable.obj
 0002:00014278       ??_C@_1DK@ICOLDMIM@?$AA?5?$AAP?$AAN?$AAP?$AA?5?$AA3?$AA2?$AA?5?$AAb?$AAi?$AAt?$AA?5?$AAM?$AAe?$AAm?$AAo?$AAr?$AAy?$AA?5?$AAC?$AAo?$AAn?$AAf?$AAl?$AAi?$AAc?$AAt?$AA?5?$AA?$AA@ 00073278     UefiShellDebug1CommandsLib:QueryTable.obj
 0002:000142b4       ??_C@_1CG@JIJMGBAN@?$AA?5?$AAP?$AAN?$AAP?$AA?5?$AAI?$AA?1?$AAO?$AA?5?$AAC?$AAo?$AAn?$AAf?$AAl?$AAi?$AAc?$AAt?$AA?5?$AA?$AA@ 000732b4     UefiShellDebug1CommandsLib:QueryTable.obj
 0002:000142dc       ??_C@_1CG@PMDKOBMB@?$AA?5?$AAP?$AAN?$AAP?$AA?5?$AAI?$AAR?$AAQ?$AA?5?$AAC?$AAo?$AAn?$AAf?$AAl?$AAi?$AAc?$AAt?$AA?5?$AA?$AA@ 000732dc     UefiShellDebug1CommandsLib:QueryTable.obj
 0002:00014304       ??_C@_1CG@KOCEHCJP@?$AA?5?$AAP?$AAN?$AAP?$AA?5?$AAD?$AAM?$AAA?$AA?5?$AAC?$AAo?$AAn?$AAf?$AAl?$AAi?$AAc?$AAt?$AA?5?$AA?$AA@ 00073304     UefiShellDebug1CommandsLib:QueryTable.obj
 0002:0001432c       ??_C@_1DK@ICHJHDMD@?$AA?5?$AAB?$AAa?$AAd?$AA?5?$AAP?$AAN?$AAP?$AA?5?$AAS?$AAe?$AAr?$AAi?$AAa?$AAl?$AA?5?$AAI?$AAD?$AA?5?$AAC?$AAh?$AAe?$AAc?$AAk?$AAs?$AAu?$AAm?$AA?5?$AA?$AA@ 0007332c     UefiShellDebug1CommandsLib:QueryTable.obj
 0002:00014368       ??_C@_1EC@PMGMKMCF@?$AA?5?$AAB?$AAa?$AAd?$AA?5?$AAP?$AAN?$AAP?$AA?5?$AAR?$AAe?$AAs?$AAo?$AAu?$AAr?$AAc?$AAe?$AA?5?$AAD?$AAa?$AAt?$AAa?$AA?5?$AAC?$AAh?$AAe?$AAc?$AAk?$AAs?$AAu?$AAm?$AA?5@ 00073368     UefiShellDebug1CommandsLib:QueryTable.obj
 0002:000143ac       ??_C@_1DG@NHJNPFDG@?$AA?5?$AAS?$AAt?$AAa?$AAt?$AAi?$AAc?$AA?5?$AAR?$AAe?$AAs?$AAo?$AAu?$AAr?$AAc?$AAe?$AA?5?$AAC?$AAo?$AAn?$AAf?$AAl?$AAi?$AAc?$AAt?$AA?5?$AA?$AA@ 000733ac     UefiShellDebug1CommandsLib:QueryTable.obj
 0002:000143e8       ??_C@_1EM@LDBJBBDL@?$AA?5?$AAN?$AAV?$AAR?$AAA?$AAM?$AA?5?$AAC?$AAh?$AAe?$AAc?$AAk?$AAs?$AAu?$AAm?$AA?5?$AAE?$AAr?$AAr?$AAo?$AAr?$AA?0?$AA?5?$AAN?$AAV?$AAR?$AAA?$AAM?$AA?5?$AAC?$AAl?$AAe@ 000733e8     UefiShellDebug1CommandsLib:QueryTable.obj
 0002:00014438       ??_C@_1FA@DKGFJHHI@?$AA?5?$AAS?$AAy?$AAs?$AAt?$AAe?$AAm?$AA?5?$AAB?$AAo?$AAa?$AAr?$AAd?$AA?5?$AAD?$AAe?$AAv?$AAi?$AAc?$AAe?$AA?5?$AAR?$AAe?$AAs?$AAo?$AAu?$AAr?$AAc?$AAe?$AA?5?$AAC?$AAo@ 00073438     UefiShellDebug1CommandsLib:QueryTable.obj
 0002:00014488       ??_C@_1EE@FMMJPMEL@?$AA?5?$AAP?$AAr?$AAi?$AAm?$AAa?$AAr?$AAy?$AA?5?$AAO?$AAu?$AAt?$AAp?$AAu?$AAt?$AA?5?$AAD?$AAe?$AAv?$AAi?$AAc?$AAe?$AA?5?$AAN?$AAo?$AAt?$AA?5?$AAF?$AAo?$AAu?$AAn?$AAd@ 00073488     UefiShellDebug1CommandsLib:QueryTable.obj
 0002:000144d0       ??_C@_1EC@GAAMAAKE@?$AA?5?$AAP?$AAr?$AAi?$AAm?$AAa?$AAr?$AAy?$AA?5?$AAI?$AAn?$AAp?$AAu?$AAt?$AA?5?$AAD?$AAe?$AAv?$AAi?$AAc?$AAe?$AA?5?$AAN?$AAo?$AAt?$AA?5?$AAF?$AAo?$AAu?$AAn?$AAd?$AA?5@ 000734d0     UefiShellDebug1CommandsLib:QueryTable.obj
 0002:00014518       ??_C@_1EA@GJDFNHMM@?$AA?5?$AAP?$AAr?$AAi?$AAm?$AAa?$AAr?$AAy?$AA?5?$AAB?$AAo?$AAo?$AAt?$AA?5?$AAD?$AAe?$AAv?$AAi?$AAc?$AAe?$AA?5?$AAN?$AAo?$AAt?$AA?5?$AAF?$AAo?$AAu?$AAn?$AAd?$AA?5?$AA?$AA@ 00073518     UefiShellDebug1CommandsLib:QueryTable.obj
 0002:00014558       ??_C@_1DE@KJEMOHJI@?$AA?5?$AAN?$AAV?$AAR?$AAA?$AAM?$AA?5?$AAC?$AAl?$AAe?$AAa?$AAr?$AAe?$AAd?$AA?5?$AAB?$AAy?$AA?5?$AAJ?$AAu?$AAm?$AAp?$AAe?$AAr?$AA?5?$AA?$AA@ 00073558     UefiShellDebug1CommandsLib:QueryTable.obj
 0002:00014590       ??_C@_1EI@GEEBAM@?$AA?5?$AAN?$AAV?$AAR?$AAA?$AAM?$AA?5?$AAD?$AAa?$AAt?$AAa?$AA?5?$AAI?$AAn?$AAv?$AAa?$AAl?$AAi?$AAd?$AA?0?$AA?5?$AAN?$AAV?$AAR?$AAA?$AAM?$AA?5?$AAC?$AAl?$AAe?$AAa?$AAr@ 00073590     UefiShellDebug1CommandsLib:QueryTable.obj
 0002:000145d8       ??_C@_1DA@HOECFJC@?$AA?5?$AAF?$AAD?$AAC?$AA?5?$AAR?$AAe?$AAs?$AAo?$AAu?$AAr?$AAc?$AAe?$AA?5?$AAC?$AAo?$AAn?$AAf?$AAl?$AAi?$AAc?$AAt?$AA?5?$AA?$AA@ 000735d8     UefiShellDebug1CommandsLib:QueryTable.obj
 0002:00014608       ??_C@_1FG@KFIMMFIG@?$AA?5?$AAP?$AAr?$AAi?$AAm?$AAa?$AAr?$AAy?$AA?5?$AAA?$AAT?$AAA?$AA?5?$AAC?$AAo?$AAn?$AAt?$AAr?$AAo?$AAl?$AAl?$AAe?$AAr?$AA?5?$AAR?$AAe?$AAs?$AAo?$AAu?$AAr?$AAc?$AAe@ 00073608     UefiShellDebug1CommandsLib:QueryTable.obj
 0002:00014660       ??_C@_1FK@INNONJPP@?$AA?5?$AAS?$AAe?$AAc?$AAo?$AAn?$AAd?$AAa?$AAr?$AAy?$AA?5?$AAA?$AAT?$AAA?$AA?5?$AAC?$AAo?$AAn?$AAt?$AAr?$AAo?$AAl?$AAl?$AAe?$AAr?$AA?5?$AAR?$AAe?$AAs?$AAo?$AAu?$AAr@ 00073660     UefiShellDebug1CommandsLib:QueryTable.obj
 0002:000146c0       ??_C@_1EE@PKJNLPOF@?$AA?5?$AAP?$AAa?$AAr?$AAa?$AAl?$AAl?$AAe?$AAl?$AA?5?$AAP?$AAo?$AAr?$AAt?$AA?5?$AAR?$AAe?$AAs?$AAo?$AAu?$AAr?$AAc?$AAe?$AA?5?$AAC?$AAo?$AAn?$AAf?$AAl?$AAi?$AAc?$AAt@ 000736c0     UefiShellDebug1CommandsLib:QueryTable.obj
 0002:00014708       ??_C@_1EE@PGOIOJ@?$AA?5?$AAS?$AAe?$AAr?$AAi?$AAa?$AAl?$AA?5?$AAP?$AAo?$AAr?$AAt?$AA?5?$AA1?$AA?5?$AAR?$AAe?$AAs?$AAo?$AAu?$AAr?$AAc?$AAe?$AA?5?$AAC?$AAo?$AAn?$AAf?$AAl?$AAi?$AAc?$AAt@ 00073708     UefiShellDebug1CommandsLib:QueryTable.obj
 0002:00014750       ??_C@_1EE@DIMNGDJK@?$AA?5?$AAS?$AAe?$AAr?$AAi?$AAa?$AAl?$AA?5?$AAP?$AAo?$AAr?$AAt?$AA?5?$AA2?$AA?5?$AAR?$AAe?$AAs?$AAo?$AAu?$AAr?$AAc?$AAe?$AA?5?$AAC?$AAo?$AAn?$AAf?$AAl?$AAi?$AAc?$AAt@ 00073750     UefiShellDebug1CommandsLib:QueryTable.obj
 0002:00014794       ??_C@_1DE@BGAKOGJM@?$AA?5?$AAA?$AAu?$AAd?$AAi?$AAo?$AA?5?$AAR?$AAe?$AAs?$AAo?$AAu?$AAr?$AAc?$AAe?$AA?5?$AAC?$AAo?$AAn?$AAf?$AAl?$AAi?$AAc?$AAt?$AA?5?$AA?$AA@ 00073794     UefiShellDebug1CommandsLib:QueryTable.obj
 0002:000147c8       ??_C@_1DC@IAGLGMGH@?$AA?5?$AA?$CL?$AA2?$AA?4?$AA5?$AAV?$AA?5?$AAO?$AAu?$AAt?$AA?5?$AAo?$AAf?$AA?5?$AAr?$AAa?$AAn?$AAg?$AAe?$AA?0?$AA?5?$AA?$CD?$AA2?$AA?5?$AA?$AA@ 000737c8     UefiShellDebug1CommandsLib:QueryTable.obj
 0002:000147fc       ??_C@_1CK@ICLNCCPK@?$AA?5?$AA?$CL?$AA3?$AA?4?$AA3?$AAV?$AA?5?$AAO?$AAu?$AAt?$AA?5?$AAo?$AAf?$AA?5?$AAr?$AAa?$AAn?$AAg?$AAe?$AA?5?$AA?$AA@ 000737fc     UefiShellDebug1CommandsLib:QueryTable.obj
 0002:00014828       ??_C@_1CG@DEEAOKBI@?$AA?5?$AA?$CL?$AA5?$AAV?$AA?5?$AAO?$AAu?$AAt?$AA?5?$AAo?$AAf?$AA?5?$AAr?$AAa?$AAn?$AAg?$AAe?$AA?5?$AA?$AA@ 00073828     UefiShellDebug1CommandsLib:QueryTable.obj
 0002:00014850       ??_C@_1CG@PNIABNOE@?$AA?5?$AA?9?$AA5?$AAV?$AA?5?$AAO?$AAu?$AAt?$AA?5?$AAo?$AAf?$AA?5?$AAr?$AAa?$AAn?$AAg?$AAe?$AA?5?$AA?$AA@ 00073850     UefiShellDebug1CommandsLib:QueryTable.obj
 0002:00014878       ??_C@_1CI@BCJNHMMN@?$AA?5?$AA?$CL?$AA1?$AA2?$AAV?$AA?5?$AAO?$AAu?$AAt?$AA?5?$AAo?$AAf?$AA?5?$AAr?$AAa?$AAn?$AAg?$AAe?$AA?5?$AA?$AA@ 00073878     UefiShellDebug1CommandsLib:QueryTable.obj
 0002:000148a0       ??_C@_1CI@IJENHMAD@?$AA?5?$AA?9?$AA1?$AA2?$AAV?$AA?5?$AAO?$AAu?$AAt?$AA?5?$AAo?$AAf?$AA?5?$AAr?$AAa?$AAn?$AAg?$AAe?$AA?5?$AA?$AA@ 000738a0     UefiShellDebug1CommandsLib:QueryTable.obj
 0002:000148c8       ??_C@_1GE@JBKBBPKI@?$AA?5?$AAR?$AAe?$AAs?$AAe?$AAr?$AAv?$AAe?$AAd?$AA?5?$AAf?$AAo?$AAr?$AA?5?$AAf?$AAu?$AAt?$AAu?$AAr?$AAe?$AA?5?$AAo?$AAu?$AAt?$AA?9?$AAo?$AAf?$AA?9?$AAr?$AAa?$AAn?$AAg@ 000738c8     UefiShellDebug1CommandsLib:QueryTable.obj
 0002:00014930       ??_C@_1FA@HGMMHNHG@?$AA?5?$AAS?$AAy?$AAs?$AAt?$AAe?$AAm?$AA?5?$AAb?$AAo?$AAa?$AAr?$AAd?$AA?5?$AAt?$AAe?$AAm?$AAp?$AAe?$AAr?$AAa?$AAt?$AAu?$AAr?$AAe?$AA?5?$AAo?$AAu?$AAt?$AA?5?$AAo?$AAf@ 00073930     UefiShellDebug1CommandsLib:QueryTable.obj
 0002:00014980       ??_C@_1FA@KAOLJIMF@?$AA?5?$AAP?$AAr?$AAo?$AAc?$AAe?$AAs?$AAs?$AAo?$AAr?$AA?5?$AA?$CD?$AA1?$AA?5?$AAt?$AAe?$AAm?$AAp?$AAe?$AAr?$AAa?$AAt?$AAu?$AAr?$AAe?$AA?5?$AAo?$AAu?$AAt?$AA?5?$AAo?$AAf@ 00073980     UefiShellDebug1CommandsLib:QueryTable.obj
 0002:000149d0       ??_C@_1FA@IGFEKMLM@?$AA?5?$AAP?$AAr?$AAo?$AAc?$AAe?$AAs?$AAs?$AAo?$AAr?$AA?5?$AA?$CD?$AA2?$AA?5?$AAt?$AAe?$AAm?$AAp?$AAe?$AAr?$AAa?$AAt?$AAu?$AAr?$AAe?$AA?5?$AAo?$AAu?$AAt?$AA?5?$AAo?$AAf@ 000739d0     UefiShellDebug1CommandsLib:QueryTable.obj
 0002:00014a20       ??_C@_1FA@JLMBLPGL@?$AA?5?$AAP?$AAr?$AAo?$AAc?$AAe?$AAs?$AAs?$AAo?$AAr?$AA?5?$AA?$CD?$AA3?$AA?5?$AAt?$AAe?$AAm?$AAp?$AAe?$AAr?$AAa?$AAt?$AAu?$AAr?$AAe?$AA?5?$AAo?$AAu?$AAt?$AA?5?$AAo?$AAf@ 00073a20     UefiShellDebug1CommandsLib:QueryTable.obj
 0002:00014a70       ??_C@_1FA@MLCKMEEO@?$AA?5?$AAP?$AAr?$AAo?$AAc?$AAe?$AAs?$AAs?$AAo?$AAr?$AA?5?$AA?$CD?$AA4?$AA?5?$AAt?$AAe?$AAm?$AAp?$AAe?$AAr?$AAa?$AAt?$AAu?$AAr?$AAe?$AA?5?$AAo?$AAu?$AAt?$AA?5?$AAo?$AAf@ 00073a70     UefiShellDebug1CommandsLib:QueryTable.obj
 0002:00014ac0       ??_C@_1FO@MFGCMAGN@?$AA?5?$AAR?$AAe?$AAs?$AAe?$AAr?$AAv?$AAe?$AAd?$AA?5?$AAf?$AAo?$AAr?$AA?5?$AAf?$AAu?$AAt?$AAu?$AAr?$AAe?$AA?5?$AAo?$AAu?$AAt?$AA?9?$AAo?$AAf?$AA?9?$AAr?$AAa?$AAn?$AAg@ 00073ac0     UefiShellDebug1CommandsLib:QueryTable.obj
 0002:00014b20       ??_C@_1EE@ICMOCLLI@?$AA?5?$AAF?$AAa?$AAn?$AA?5?$AAn?$AA?5?$AA?$CI?$AAn?$AA?5?$AA?$DN?$AA?5?$AA0?$AA?5?$AAt?$AAo?$AA?5?$AA7?$AA?$CJ?$AA?5?$AAO?$AAu?$AAt?$AA?5?$AAo?$AAf?$AA?5?$AAr?$AAa?$AAn?$AAg?$AAe@ 00073b20     UefiShellDebug1CommandsLib:QueryTable.obj
 0002:00014b68       ??_C@_1HA@PEJDPOEJ@?$AA?5?$AAR?$AAe?$AAs?$AAe?$AAr?$AAv?$AAe?$AAd?$AA?5?$AAf?$AAo?$AAr?$AA?5?$AAf?$AAu?$AAt?$AAu?$AAr?$AAe?$AA?5?$AAa?$AAs?$AAs?$AAi?$AAg?$AAn?$AAm?$AAe?$AAn?$AAt?$AA?5@ 00073b68     UefiShellDebug1CommandsLib:QueryTable.obj
 0002:00014bd8       ??_C@_1EE@DEEIHEFI@?$AA?5?$AAC?$AAh?$AAa?$AAs?$AAs?$AAi?$AAs?$AA?5?$AAs?$AAe?$AAc?$AAu?$AAr?$AAe?$AA?5?$AAs?$AAw?$AAi?$AAt?$AAc?$AAh?$AA?5?$AAa?$AAc?$AAt?$AAi?$AAv?$AAa?$AAt?$AAe?$AAd@ 00073bd8     UefiShellDebug1CommandsLib:QueryTable.obj
 0002:00014c1c       ??_C@_1DM@HPAFAGAE@?$AA?5?$AA?5?$AAS?$AAy?$AAs?$AAt?$AAe?$AAm?$AA?5?$AAb?$AAo?$AAa?$AAr?$AAd?$AA?5?$AAo?$AAr?$AA?5?$AAm?$AAo?$AAt?$AAh?$AAe?$AAr?$AAb?$AAo?$AAa?$AAr?$AAd?$AA?$AA@ 00073c1c     UefiShellDebug1CommandsLib:QueryTable.obj
 0002:00014c58       ??_C@_1CE@NLFGMECH@?$AA?5?$AA?5?$AAI?$AAS?$AAA?$AA?5?$AAa?$AAd?$AAd?$AA?9?$AAo?$AAn?$AA?5?$AAc?$AAa?$AAr?$AAd?$AA?$AA@ 00073c58     UefiShellDebug1CommandsLib:QueryTable.obj
 0002:00014c7c       ??_C@_1CG@PCDCENPO@?$AA?5?$AA?5?$AAE?$AAI?$AAS?$AAA?$AA?5?$AAa?$AAd?$AAd?$AA?9?$AAo?$AAn?$AA?5?$AAc?$AAa?$AAr?$AAd?$AA?$AA@ 00073c7c     UefiShellDebug1CommandsLib:QueryTable.obj
 0002:00014ca4       ??_C@_1CE@KJICEPNK@?$AA?5?$AA?5?$AAP?$AAC?$AAI?$AA?5?$AAa?$AAd?$AAd?$AA?9?$AAo?$AAn?$AA?5?$AAc?$AAa?$AAr?$AAd?$AA?$AA@ 00073ca4     UefiShellDebug1CommandsLib:QueryTable.obj
 0002:00014cc8       ??_C@_1CE@NKDAOCAP@?$AA?5?$AA?5?$AAM?$AAC?$AAA?$AA?5?$AAa?$AAd?$AAd?$AA?9?$AAo?$AAn?$AA?5?$AAc?$AAa?$AAr?$AAd?$AA?$AA@ 00073cc8     UefiShellDebug1CommandsLib:QueryTable.obj
 0002:00014cec       ??_C@_1CK@HOJEJHAA@?$AA?5?$AA?5?$AAP?$AAC?$AAM?$AAC?$AAI?$AAA?$AA?5?$AAa?$AAd?$AAd?$AA?9?$AAo?$AAn?$AA?5?$AAc?$AAa?$AAr?$AAd?$AA?$AA@ 00073cec     UefiShellDebug1CommandsLib:QueryTable.obj
 0002:00014d18       ??_C@_1DE@KNOJLAHG@?$AA?5?$AA?5?$AAP?$AAr?$AAo?$AAp?$AAr?$AAi?$AAe?$AAt?$AAa?$AAr?$AAy?$AA?5?$AAa?$AAd?$AAd?$AA?9?$AAo?$AAn?$AA?5?$AAc?$AAa?$AAr?$AAd?$AA?$AA@ 00073d18     UefiShellDebug1CommandsLib:QueryTable.obj
 0002:00014d4c       ??_C@_1BA@EJPAMLKN@?$AA?5?$AA?5?$AAN?$AAu?$AAB?$AAu?$AAs?$AA?$AA@ 00073d4c     UefiShellDebug1CommandsLib:QueryTable.obj
 0002:00014d5c       ??_C@_1DA@JGMAKOJM@?$AA?5?$AA?5?$AAP?$AAC?$AA?9?$AA9?$AA8?$AA?1?$AAC?$AA2?$AA0?$AA?5?$AAa?$AAd?$AAd?$AA?9?$AAo?$AAn?$AA?5?$AAc?$AAa?$AAr?$AAd?$AA?$AA@ 00073d5c     UefiShellDebug1CommandsLib:QueryTable.obj
 0002:00014d8c       ??_C@_1DA@JABHFKOI@?$AA?5?$AA?5?$AAP?$AAC?$AA?9?$AA9?$AA8?$AA?1?$AAC?$AA2?$AA4?$AA?5?$AAa?$AAd?$AAd?$AA?9?$AAo?$AAn?$AA?5?$AAc?$AAa?$AAr?$AAd?$AA?$AA@ 00073d8c     UefiShellDebug1CommandsLib:QueryTable.obj
 0002:00014dbc       ??_C@_1CM@PAIFDJEG@?$AA?5?$AA?5?$AAP?$AAC?$AA?9?$AA9?$AA8?$AA?1?$AAE?$AA?5?$AAa?$AAd?$AAd?$AA?9?$AAo?$AAn?$AA?5?$AAc?$AAa?$AAr?$AAd?$AA?$AA@ 00073dbc     UefiShellDebug1CommandsLib:QueryTable.obj
 0002:00014de8       ??_C@_1DM@OAOMGOEC@?$AA?5?$AA?5?$AAP?$AAC?$AA?9?$AA9?$AA8?$AA?1?$AAL?$AAo?$AAc?$AAa?$AAl?$AA?5?$AAb?$AAu?$AAs?$AA?5?$AAa?$AAd?$AAd?$AA?9?$AAo?$AAn?$AA?5?$AAc?$AAa?$AAr?$AAd?$AA?$AA@ 00073de8     UefiShellDebug1CommandsLib:QueryTable.obj
 0002:00014e24       ??_C@_1BO@IAEEFDAC@?$AA?5?$AAS?$AAy?$AAs?$AAt?$AAe?$AAm?$AA?5?$AAm?$AAe?$AAm?$AAo?$AAr?$AAy?$AA?$AA@ 00073e24     UefiShellDebug1CommandsLib:QueryTable.obj
 0002:00014e44       ??_C@_1BM@HJOIBICI@?$AA?5?$AAV?$AAi?$AAd?$AAe?$AAo?$AA?5?$AAm?$AAe?$AAm?$AAo?$AAr?$AAy?$AA?$AA@ 00073e44     UefiShellDebug1CommandsLib:QueryTable.obj
 0002:00014e60       ??_C@_1BM@PFNLHDHM@?$AA?5?$AAF?$AAl?$AAa?$AAs?$AAh?$AA?5?$AAm?$AAe?$AAm?$AAo?$AAr?$AAy?$AA?$AA@ 00073e60     UefiShellDebug1CommandsLib:QueryTable.obj
 0002:00014e7c       ??_C@_1CE@JDMOKCLL@?$AA?5?$AAN?$AAo?$AAn?$AA?9?$AAv?$AAo?$AAl?$AAa?$AAt?$AAi?$AAl?$AAe?$AA?5?$AAR?$AAA?$AAM?$AA?$AA@ 00073e7c     UefiShellDebug1CommandsLib:QueryTable.obj
 0002:00014ea0       ??_C@_1BM@NDDLCMF@?$AA?5?$AAC?$AAa?$AAc?$AAh?$AAe?$AA?5?$AAm?$AAe?$AAm?$AAo?$AAr?$AAy?$AA?$AA@ 00073ea0     UefiShellDebug1CommandsLib:QueryTable.obj
 0002:00014ebc       ??_C@_1O@EMKPMJAH@?$AA?5?$AA?5?$AAN?$AAo?$AAn?$AAe?$AA?$AA@ 00073ebc     UefiShellDebug1CommandsLib:QueryTable.obj
 0002:00014ecc       ??_C@_1BC@PNPNFGPB@?$AA?5?$AA?5?$AAP?$AAa?$AAr?$AAi?$AAt?$AAy?$AA?$AA@ 00073ecc     UefiShellDebug1CommandsLib:QueryTable.obj
 0002:00014ee0       ??_C@_1CC@OENHAGLD@?$AA?5?$AA?5?$AAS?$AAi?$AAn?$AAg?$AAl?$AAe?$AA?9?$AAb?$AAi?$AAt?$AA?5?$AAE?$AAC?$AAC?$AA?$AA@ 00073ee0     UefiShellDebug1CommandsLib:QueryTable.obj
 0002:00014f04       ??_C@_1CA@EOEBJDPB@?$AA?5?$AA?5?$AAM?$AAu?$AAl?$AAt?$AAi?$AA?9?$AAb?$AAi?$AAt?$AA?5?$AAE?$AAC?$AAC?$AA?$AA@ 00073f04     UefiShellDebug1CommandsLib:QueryTable.obj
 0002:00014f24       ??_C@_1M@LMLDHKJJ@?$AA?5?$AA?5?$AAC?$AAR?$AAC?$AA?$AA@ 00073f24     UefiShellDebug1CommandsLib:QueryTable.obj
 0002:00014f30       ??_C@_1O@EFFIFIMH@?$AA?5?$AA?5?$AAS?$AAI?$AAM?$AAM?$AA?$AA@ 00073f30     UefiShellDebug1CommandsLib:QueryTable.obj
 0002:00014f40       ??_C@_1M@OLLFEBJL@?$AA?5?$AA?5?$AAS?$AAI?$AAP?$AA?$AA@ 00073f40     UefiShellDebug1CommandsLib:QueryTable.obj
 0002:00014f4c       ??_C@_1O@MJFGNMLL@?$AA?5?$AA?5?$AAC?$AAh?$AAi?$AAp?$AA?$AA@ 00073f4c     UefiShellDebug1CommandsLib:QueryTable.obj
 0002:00014f5c       ??_C@_1M@JNMLHJKJ@?$AA?5?$AA?5?$AAD?$AAI?$AAP?$AA?$AA@ 00073f5c     UefiShellDebug1CommandsLib:QueryTable.obj
 0002:00014f68       ??_C@_1M@PEPKFKLA@?$AA?5?$AA?5?$AAZ?$AAI?$AAP?$AA?$AA@ 00073f68     UefiShellDebug1CommandsLib:QueryTable.obj
 0002:00014f74       ??_C@_1CG@EDGBPDJH@?$AA?5?$AA?5?$AAP?$AAr?$AAo?$AAp?$AAr?$AAi?$AAe?$AAt?$AAa?$AAr?$AAy?$AA?5?$AAC?$AAa?$AAr?$AAd?$AA?$AA@ 00073f74     UefiShellDebug1CommandsLib:QueryTable.obj
 0002:00014f9c       ??_C@_1O@IACKMCFG@?$AA?5?$AA?5?$AAD?$AAI?$AAM?$AAM?$AA?$AA@ 00073f9c     UefiShellDebug1CommandsLib:QueryTable.obj
 0002:00014fac       ??_C@_1O@KFEEEABE@?$AA?5?$AA?5?$AAT?$AAS?$AAO?$AAP?$AA?$AA@ 00073fac     UefiShellDebug1CommandsLib:QueryTable.obj
 0002:00014fbc       ??_C@_1BO@GKLCEEAO@?$AA?5?$AA?5?$AAR?$AAo?$AAw?$AA?5?$AAo?$AAf?$AA?5?$AAc?$AAh?$AAi?$AAp?$AAs?$AA?$AA@ 00073fbc     UefiShellDebug1CommandsLib:QueryTable.obj
 0002:00014fdc       ??_C@_1O@KKJKDDPJ@?$AA?5?$AA?5?$AAR?$AAI?$AAM?$AAM?$AA?$AA@ 00073fdc     UefiShellDebug1CommandsLib:QueryTable.obj
 0002:00014fec       ??_C@_1BC@LADLNCHG@?$AA?5?$AA?5?$AAS?$AAO?$AAD?$AAI?$AAM?$AAM?$AA?$AA@ 00073fec     UefiShellDebug1CommandsLib:QueryTable.obj
 0002:00015000       ??_C@_1BA@NDHBCJBC@?$AA?5?$AA?5?$AAS?$AAR?$AAI?$AAM?$AAM?$AA?$AA@ 00074000     UefiShellDebug1CommandsLib:QueryTable.obj
 0002:00015010       ??_C@_1BE@JHANBNFD@?$AA?5?$AA?5?$AAF?$AAB?$AA?9?$AAD?$AAI?$AAM?$AAM?$AA?$AA@ 00074010     UefiShellDebug1CommandsLib:QueryTable.obj
 0002:00015024       ??_C@_1O@NGDJCPFA@?$AA?5?$AA?5?$AAD?$AAR?$AAA?$AAM?$AA?$AA@ 00074024     UefiShellDebug1CommandsLib:QueryTable.obj
 0002:00015034       ??_C@_1BA@EMPHHNKH@?$AA?5?$AA?5?$AAE?$AAD?$AAR?$AAA?$AAM?$AA?$AA@ 00074034     UefiShellDebug1CommandsLib:QueryTable.obj
 0002:00015044       ??_C@_1O@PFGCHOIF@?$AA?5?$AA?5?$AAV?$AAR?$AAA?$AAM?$AA?$AA@ 00074044     UefiShellDebug1CommandsLib:QueryTable.obj
 0002:00015054       ??_C@_1O@BDELLFMB@?$AA?5?$AA?5?$AAS?$AAR?$AAA?$AAM?$AA?$AA@ 00074054     UefiShellDebug1CommandsLib:QueryTable.obj
 0002:00015064       ??_C@_1M@GJDPEMCK@?$AA?5?$AA?5?$AAR?$AAA?$AAM?$AA?$AA@ 00074064     UefiShellDebug1CommandsLib:QueryTable.obj
 0002:00015070       ??_C@_1M@FDDFCNFK@?$AA?5?$AA?5?$AAR?$AAO?$AAM?$AA?$AA@ 00074070     UefiShellDebug1CommandsLib:QueryTable.obj
 0002:0001507c       ??_C@_1BA@KDEKIKMJ@?$AA?5?$AA?5?$AAF?$AAL?$AAA?$AAS?$AAH?$AA?$AA@ 0007407c     UefiShellDebug1CommandsLib:QueryTable.obj
 0002:0001508c       ??_C@_1BC@IGCAOACJ@?$AA?5?$AA?5?$AAE?$AAE?$AAP?$AAR?$AAO?$AAM?$AA?$AA@ 0007408c     UefiShellDebug1CommandsLib:QueryTable.obj
 0002:000150a0       ??_C@_1BC@PKEBMFPC@?$AA?5?$AA?5?$AAF?$AAE?$AAP?$AAR?$AAO?$AAM?$AA?$AA@ 000740a0     UefiShellDebug1CommandsLib:QueryTable.obj
 0002:000150b4       ??_C@_1BA@FILIDNEF@?$AA?5?$AA?5?$AAE?$AAP?$AAR?$AAO?$AAM?$AA?$AA@ 000740b4     UefiShellDebug1CommandsLib:QueryTable.obj
 0002:000150c4       ??_C@_1BA@KDMKNIEH@?$AA?5?$AA?5?$AAC?$AAD?$AAR?$AAA?$AAM?$AA?$AA@ 000740c4     UefiShellDebug1CommandsLib:QueryTable.obj
 0002:000150d4       ??_C@_1BA@IHIAFJLD@?$AA?5?$AA?5?$AA3?$AAD?$AAR?$AAA?$AAM?$AA?$AA@ 000740d4     UefiShellDebug1CommandsLib:QueryTable.obj
 0002:000150e4       ??_C@_1BA@KPNCDFLL@?$AA?5?$AA?5?$AAS?$AAD?$AAR?$AAA?$AAM?$AA?$AA@ 000740e4     UefiShellDebug1CommandsLib:QueryTable.obj
 0002:000150f4       ??_C@_1BA@EEOFIOLI@?$AA?5?$AA?5?$AAS?$AAG?$AAR?$AAA?$AAM?$AA?$AA@ 000740f4     UefiShellDebug1CommandsLib:QueryTable.obj
 0002:00015104       ??_C@_1BA@DEHHHJNE@?$AA?5?$AA?5?$AAR?$AAD?$AAR?$AAA?$AAM?$AA?$AA@ 00074104     UefiShellDebug1CommandsLib:QueryTable.obj
 0002:00015114       ??_C@_1M@ILFMKCPM@?$AA?5?$AA?5?$AAD?$AAD?$AAR?$AA?$AA@ 00074114     UefiShellDebug1CommandsLib:QueryTable.obj
 0002:00015120       ??_C@_1O@NKPDNHAD@?$AA?5?$AA?5?$AAD?$AAD?$AAR?$AA2?$AA?$AA@ 00074120     UefiShellDebug1CommandsLib:QueryTable.obj
 0002:00015130       ??_C@_1BO@IJMOILHH@?$AA?5?$AA?5?$AAD?$AAD?$AAR?$AA2?$AA?5?$AAF?$AAB?$AA?9?$AAD?$AAI?$AAM?$AAM?$AA?$AA@ 00074130     UefiShellDebug1CommandsLib:QueryTable.obj
 0002:00015150       ??_C@_1O@GCEPLAGG@?$AA?5?$AA?5?$AAD?$AAD?$AAR?$AA3?$AA?$AA@ 00074150     UefiShellDebug1CommandsLib:QueryTable.obj
 0002:00015160       ??_C@_1O@MNOGOPDP@?$AA?5?$AA?5?$AAF?$AAB?$AAD?$AA2?$AA?$AA@ 00074160     UefiShellDebug1CommandsLib:QueryTable.obj
 0002:00015170       ??_C@_1O@PPJIIINP@?$AA?5?$AA?5?$AAD?$AAD?$AAR?$AA4?$AA?$AA@ 00074170     UefiShellDebug1CommandsLib:QueryTable.obj
 0002:00015180       ??_C@_1BA@BNHIIIHC@?$AA?5?$AA?5?$AAL?$AAP?$AAD?$AAD?$AAR?$AA?$AA@ 00074180     UefiShellDebug1CommandsLib:QueryTable.obj
 0002:00015190       ??_C@_1BC@KEEIDNDE@?$AA?5?$AA?5?$AAL?$AAP?$AAD?$AAD?$AAR?$AA2?$AA?$AA@ 00074190     UefiShellDebug1CommandsLib:QueryTable.obj
 0002:000151a4       ??_C@_1BC@BMPEFKFB@?$AA?5?$AA?5?$AAL?$AAP?$AAD?$AAD?$AAR?$AA3?$AA?$AA@ 000741a4     UefiShellDebug1CommandsLib:QueryTable.obj
 0002:000151b8       ??_C@_1BC@IBCDGCOI@?$AA?5?$AA?5?$AAL?$AAP?$AAD?$AAD?$AAR?$AA4?$AA?$AA@ 000741b8     UefiShellDebug1CommandsLib:QueryTable.obj
 0002:000151cc       ??_C@_1BI@COCPHOCL@?$AA?5?$AAF?$AAa?$AAs?$AAt?$AA?9?$AAp?$AAa?$AAg?$AAe?$AAd?$AA?$AA@ 000741cc     UefiShellDebug1CommandsLib:QueryTable.obj
 0002:000151e4       ??_C@_1BO@GIPEPGPD@?$AA?5?$AAS?$AAt?$AAa?$AAt?$AAi?$AAc?$AA?5?$AAc?$AAo?$AAl?$AAu?$AAm?$AAn?$AA?$AA@ 000741e4     UefiShellDebug1CommandsLib:QueryTable.obj
 0002:00015204       ??_C@_1BO@OAFCEBEG@?$AA?5?$AAP?$AAs?$AAe?$AAu?$AAd?$AAo?$AA?9?$AAS?$AAT?$AAA?$AAT?$AAI?$AAC?$AA?$AA@ 00074204     UefiShellDebug1CommandsLib:QueryTable.obj
 0002:00015224       ??_C@_1BC@FFIADKEE@?$AA?5?$AAR?$AAA?$AAM?$AAB?$AAU?$AAS?$AA?5?$AA?$AA@ 00074224     UefiShellDebug1CommandsLib:QueryTable.obj
 0002:00015238       ??_C@_1M@HMLIJBAC@?$AA?5?$AAC?$AAM?$AAO?$AAS?$AA?$AA@ 00074238     UefiShellDebug1CommandsLib:QueryTable.obj
 0002:00015244       ??_C@_1BK@IMFMDGOD@?$AA?5?$AAW?$AAi?$AAn?$AAd?$AAo?$AAw?$AA?5?$AAD?$AAR?$AAA?$AAM?$AA?$AA@ 00074244     UefiShellDebug1CommandsLib:QueryTable.obj
 0002:00015260       ??_C@_1BI@GBMFLJHH@?$AA?5?$AAC?$AAa?$AAc?$AAh?$AAe?$AA?5?$AAD?$AAR?$AAA?$AAM?$AA?$AA@ 00074260     UefiShellDebug1CommandsLib:QueryTable.obj
 0002:00015278       ??_C@_1BM@NPGEICMN@?$AA?5?$AAN?$AAo?$AAn?$AA?9?$AAv?$AAo?$AAl?$AAa?$AAt?$AAi?$AAl?$AAe?$AA?$AA@ 00074278     UefiShellDebug1CommandsLib:QueryTable.obj
 0002:00015294       ??_C@_1CM@JKBIGKDC@?$AA?5?$AAR?$AAe?$AAg?$AAi?$AAs?$AAt?$AAe?$AAr?$AAe?$AAd?$AA?$CI?$AAB?$AAu?$AAf?$AAf?$AAe?$AAr?$AAe?$AAd?$AA?$CJ?$AA?$AA@ 00074294     UefiShellDebug1CommandsLib:QueryTable.obj
 0002:000152c0       ??_C@_1DE@LMGPAJJA@?$AA?5?$AAU?$AAn?$AAb?$AAu?$AAf?$AAf?$AAe?$AAr?$AAe?$AAd?$AA?$CI?$AAU?$AAn?$AAr?$AAe?$AAg?$AAi?$AAs?$AAt?$AAe?$AAr?$AAe?$AAd?$AA?$CJ?$AA?$AA@ 000742c0     UefiShellDebug1CommandsLib:QueryTable.obj
 0002:000152f4       ??_C@_19BIEFJBIK@?$AA?5?$AA?5?$AAO?$AAK?$AA?$AA@ 000742f4     UefiShellDebug1CommandsLib:QueryTable.obj
 0002:00015300       ??_C@_1BG@HNNOBHDJ@?$AA?5?$AA?5?$AAB?$AAa?$AAd?$AA?5?$AAr?$AAe?$AAa?$AAd?$AA?$AA@ 00074300     UefiShellDebug1CommandsLib:QueryTable.obj
 0002:00015318       ??_C@_1BO@JEOAODOI@?$AA?5?$AA?5?$AAP?$AAa?$AAr?$AAi?$AAt?$AAy?$AA?5?$AAe?$AAr?$AAr?$AAo?$AAr?$AA?$AA@ 00074318     UefiShellDebug1CommandsLib:QueryTable.obj
 0002:00015338       ??_C@_1CG@IMKHFMPK@?$AA?5?$AA?5?$AAS?$AAi?$AAn?$AAg?$AAl?$AAe?$AA?9?$AAb?$AAi?$AAt?$AA?5?$AAe?$AAr?$AAr?$AAo?$AAr?$AA?$AA@ 00074338     UefiShellDebug1CommandsLib:QueryTable.obj
 0002:00015360       ??_C@_1CG@BEIIOLJG@?$AA?5?$AA?5?$AAD?$AAo?$AAu?$AAb?$AAl?$AAe?$AA?9?$AAb?$AAi?$AAt?$AA?5?$AAe?$AAr?$AAr?$AAo?$AAr?$AA?$AA@ 00074360     UefiShellDebug1CommandsLib:QueryTable.obj
 0002:00015388       ??_C@_1CE@FHHKNBDN@?$AA?5?$AA?5?$AAM?$AAu?$AAl?$AAt?$AAi?$AA?9?$AAb?$AAi?$AAt?$AA?5?$AAe?$AAr?$AAr?$AAo?$AAr?$AA?$AA@ 00074388     UefiShellDebug1CommandsLib:QueryTable.obj
 0002:000153ac       ??_C@_1BO@GFDKLKFI@?$AA?5?$AA?5?$AAN?$AAi?$AAb?$AAb?$AAl?$AAe?$AA?5?$AAe?$AAr?$AAr?$AAo?$AAr?$AA?$AA@ 000743ac     UefiShellDebug1CommandsLib:QueryTable.obj
 0002:000153cc       ??_C@_1CC@CFBNILPD@?$AA?5?$AA?5?$AAC?$AAh?$AAe?$AAc?$AAk?$AAs?$AAu?$AAm?$AA?5?$AAe?$AAr?$AAr?$AAo?$AAr?$AA?$AA@ 000743cc     UefiShellDebug1CommandsLib:QueryTable.obj
 0002:000153f0       ??_C@_1BI@HPKCMEFJ@?$AA?5?$AA?5?$AAC?$AAR?$AAC?$AA?5?$AAe?$AAr?$AAr?$AAo?$AAr?$AA?$AA@ 000743f0     UefiShellDebug1CommandsLib:QueryTable.obj
 0002:00015408       ??_C@_1DK@BKHLCP@?$AA?5?$AA?5?$AAC?$AAo?$AAr?$AAr?$AAe?$AAc?$AAt?$AAe?$AAd?$AA?5?$AAs?$AAi?$AAn?$AAg?$AAl?$AAe?$AA?9?$AAb?$AAi?$AAt?$AA?5?$AAe?$AAr?$AAr?$AAo?$AAr?$AA?$AA@ 00074408     UefiShellDebug1CommandsLib:QueryTable.obj
 0002:00015444       ??_C@_1CE@MFCEHAEA@?$AA?5?$AA?5?$AAC?$AAo?$AAr?$AAr?$AAe?$AAc?$AAt?$AAe?$AAd?$AA?5?$AAe?$AAr?$AAr?$AAo?$AAr?$AA?$AA@ 00074444     UefiShellDebug1CommandsLib:QueryTable.obj
 0002:00015468       ??_C@_1CM@KENJINEJ@?$AA?5?$AA?5?$AAU?$AAn?$AAc?$AAo?$AAr?$AAr?$AAe?$AAc?$AAt?$AAa?$AAb?$AAl?$AAe?$AA?5?$AAe?$AAr?$AAr?$AAo?$AAr?$AA?$AA@ 00074468     UefiShellDebug1CommandsLib:QueryTable.obj
 0002:00015494       ??_C@_1BO@GCMFDFAL@?$AA?5?$AA?5?$AAD?$AAe?$AAv?$AAi?$AAc?$AAe?$AA?5?$AAl?$AAe?$AAv?$AAe?$AAl?$AA?$AA@ 00074494     UefiShellDebug1CommandsLib:QueryTable.obj
 0002:000154b4       ??_C@_1DC@JOELJGIG@?$AA?5?$AA?5?$AAM?$AAe?$AAm?$AAo?$AAr?$AAy?$AA?5?$AAp?$AAa?$AAr?$AAt?$AAi?$AAt?$AAi?$AAo?$AAn?$AA?5?$AAl?$AAe?$AAv?$AAe?$AAl?$AA?$AA@ 000744b4     UefiShellDebug1CommandsLib:QueryTable.obj
 0002:000154e8       ??_C@_1O@KJBHGBBJ@?$AA?5?$AA?5?$AAR?$AAe?$AAa?$AAd?$AA?$AA@ 000744e8     UefiShellDebug1CommandsLib:QueryTable.obj
 0002:000154f8       ??_C@_1BA@CAKPKCFP@?$AA?5?$AA?5?$AAW?$AAr?$AAi?$AAt?$AAe?$AA?$AA@ 000744f8     UefiShellDebug1CommandsLib:QueryTable.obj
 0002:00015508       ??_C@_1CA@ELOGGHDG@?$AA?5?$AA?5?$AAP?$AAa?$AAr?$AAt?$AAi?$AAa?$AAl?$AA?5?$AAW?$AAr?$AAi?$AAt?$AAe?$AA?$AA@ 00074508     UefiShellDebug1CommandsLib:QueryTable.obj
 0002:00015528       ??_C@_1BA@CCMBLJEG@?$AA?5?$AA?5?$AAM?$AAo?$AAu?$AAs?$AAe?$AA?$AA@ 00074528     UefiShellDebug1CommandsLib:QueryTable.obj
 0002:00015538       ??_C@_1BK@FAAIAAOO@?$AA?5?$AA?5?$AAT?$AAr?$AAa?$AAc?$AAk?$AA?5?$AAB?$AAa?$AAl?$AAl?$AA?$AA@ 00074538     UefiShellDebug1CommandsLib:QueryTable.obj
 0002:00015554       ??_C@_1BM@NPGCFFBO@?$AA?5?$AA?5?$AAT?$AAr?$AAa?$AAc?$AAk?$AA?5?$AAP?$AAo?$AAi?$AAn?$AAt?$AA?$AA@ 00074554     UefiShellDebug1CommandsLib:QueryTable.obj
 0002:00015570       ??_C@_1BM@MGCFJPLH@?$AA?5?$AA?5?$AAG?$AAl?$AAi?$AAd?$AAe?$AA?5?$AAP?$AAo?$AAi?$AAn?$AAt?$AA?$AA@ 00074570     UefiShellDebug1CommandsLib:QueryTable.obj
 0002:0001558c       ??_C@_1BI@LGFKEHIC@?$AA?5?$AA?5?$AAT?$AAo?$AAu?$AAc?$AAh?$AA?5?$AAP?$AAa?$AAd?$AA?$AA@ 0007458c     UefiShellDebug1CommandsLib:QueryTable.obj
 0002:000155a4       ??_C@_1BA@GAKAEAPI@?$AA?5?$AAS?$AAe?$AAr?$AAi?$AAa?$AAl?$AA?$AA@ 000745a4     UefiShellDebug1CommandsLib:QueryTable.obj
 0002:000155b4       ??_C@_1M@FCHOBHMM@?$AA?5?$AAP?$AAS?$AA?1?$AA2?$AA?$AA@ 000745b4     UefiShellDebug1CommandsLib:QueryTable.obj
 0002:000155c0       ??_C@_1BE@DBNIPLDC@?$AA?5?$AAI?$AAn?$AAf?$AAr?$AAa?$AAr?$AAe?$AAd?$AA?$AA@ 000745c0     UefiShellDebug1CommandsLib:QueryTable.obj
 0002:000155d4       ??_C@_1BA@PDKOJBAF@?$AA?5?$AAH?$AAP?$AA?9?$AAH?$AAI?$AAL?$AA?$AA@ 000745d4     UefiShellDebug1CommandsLib:QueryTable.obj
 0002:000155e4       ??_C@_1BG@MFMIFFGL@?$AA?5?$AAB?$AAu?$AAs?$AA?5?$AAm?$AAo?$AAu?$AAs?$AAe?$AA?$AA@ 000745e4     UefiShellDebug1CommandsLib:QueryTable.obj
 0002:000155fc       ??_C@_1CO@MHDMPKPI@?$AA?5?$AAA?$AAD?$AAB?$AA?$CI?$AAA?$AAp?$AAp?$AAl?$AAe?$AA?5?$AAD?$AAe?$AAs?$AAk?$AAt?$AAo?$AAp?$AA?5?$AAB?$AAu?$AAs?$AA?$AA@ 000745fc     UefiShellDebug1CommandsLib:QueryTable.obj
 0002:0001562c       ??_C@_1CA@PEGNAPGB@?$AA?5?$AAB?$AAu?$AAs?$AA?5?$AAm?$AAo?$AAu?$AAs?$AAe?$AA?5?$AAD?$AAB?$AA?9?$AA9?$AA?$AA@ 0007462c     UefiShellDebug1CommandsLib:QueryTable.obj
 0002:0001564c       ??_C@_1CK@NFDDAAGC@?$AA?5?$AAB?$AAu?$AAs?$AA?5?$AAm?$AAo?$AAu?$AAs?$AAe?$AA?5?$AAm?$AAi?$AAr?$AAc?$AAo?$AA?9?$AAD?$AAI?$AAN?$AA?$AA@ 0007464c     UefiShellDebug1CommandsLib:QueryTable.obj
 0002:00015678       ??_C@_19PFOJIDBE@?$AA?5?$AAU?$AAS?$AAB?$AA?$AA@ 00074678     UefiShellDebug1CommandsLib:QueryTable.obj
 0002:00015684       ??_C@_1BA@IIPJNPPE@?$AA?5?$AAO?$AAt?$AAh?$AAe?$AAr?$AA?5?$AA?$AA@ 00074684     UefiShellDebug1CommandsLib:QueryTable.obj
 0002:00015694       ??_C@_1BE@JFPCAPHI@?$AA?5?$AAU?$AAn?$AAk?$AAn?$AAo?$AAw?$AAn?$AA?5?$AA?$AA@ 00074694     UefiShellDebug1CommandsLib:QueryTable.obj
 0002:000156a8       ??_C@_1BI@MMKCKHAH@?$AA?5?$AAL?$AAe?$AAa?$AAd?$AA?5?$AAA?$AAc?$AAi?$AAd?$AA?5?$AA?$AA@ 000746a8     UefiShellDebug1CommandsLib:QueryTable.obj
 0002:000156c0       ??_C@_1CC@NGOOMLIF@?$AA?5?$AAN?$AAi?$AAc?$AAk?$AAe?$AAl?$AA?5?$AAC?$AAa?$AAd?$AAm?$AAi?$AAu?$AAm?$AA?5?$AA?$AA@ 000746c0     UefiShellDebug1CommandsLib:QueryTable.obj
 0002:000156e4       ??_C@_1CO@OLAFLDKJ@?$AA?5?$AAN?$AAi?$AAc?$AAk?$AAe?$AAl?$AA?5?$AAm?$AAe?$AAt?$AAa?$AAl?$AA?5?$AAh?$AAy?$AAd?$AAr?$AAi?$AAd?$AAe?$AA?5?$AA?$AA@ 000746e4     UefiShellDebug1CommandsLib:QueryTable.obj
 0002:00015714       ??_C@_1BM@MNJGCDCE@?$AA?5?$AAL?$AAi?$AAt?$AAh?$AAi?$AAu?$AAm?$AA?9?$AAi?$AAo?$AAn?$AA?5?$AA?$AA@ 00074714     UefiShellDebug1CommandsLib:QueryTable.obj
 0002:00015730       ??_C@_1BG@KELNHKGA@?$AA?5?$AAZ?$AAi?$AAn?$AAc?$AA?5?$AAa?$AAi?$AAr?$AA?5?$AA?$AA@ 00074730     UefiShellDebug1CommandsLib:QueryTable.obj
 0002:00015748       ??_C@_1CE@HOBCOKCK@?$AA?5?$AAL?$AAi?$AAt?$AAh?$AAi?$AAu?$AAm?$AA?5?$AAP?$AAo?$AAl?$AAy?$AAm?$AAe?$AAr?$AA?5?$AA?$AA@ 00074748     UefiShellDebug1CommandsLib:QueryTable.obj
 0002:0001576c       ??_C@_19GGDIBBIJ@?$AA?5?$AAO?$AAK?$AA?5?$AA?$AA@ 0007476c     UefiShellDebug1CommandsLib:QueryTable.obj
 0002:00015778       ??_C@_1BO@GKEDGEEJ@?$AA?5?$AAN?$AAo?$AAn?$AA?9?$AAc?$AAr?$AAi?$AAt?$AAi?$AAc?$AAa?$AAl?$AA?5?$AA?$AA@ 00074778     UefiShellDebug1CommandsLib:QueryTable.obj
 0002:00015798       ??_C@_1BG@NCDDFIBM@?$AA?5?$AAC?$AAr?$AAi?$AAt?$AAi?$AAc?$AAa?$AAl?$AA?5?$AA?$AA@ 00074798     UefiShellDebug1CommandsLib:QueryTable.obj
 0002:000157b0       ??_C@_1CE@CEKOIDAH@?$AA?5?$AAN?$AAo?$AAn?$AA?9?$AAr?$AAe?$AAc?$AAo?$AAv?$AAe?$AAr?$AAa?$AAb?$AAl?$AAe?$AA?5?$AA?$AA@ 000747b0     UefiShellDebug1CommandsLib:QueryTable.obj
 0002:000157d4       ??_C@_1BI@GMKHOHOC@?$AA?5?$AAP?$AAr?$AAo?$AAc?$AAe?$AAs?$AAs?$AAo?$AAr?$AA?5?$AA?$AA@ 000747d4     UefiShellDebug1CommandsLib:QueryTable.obj
 0002:000157ec       ??_C@_1O@BNGJJLAB@?$AA?5?$AAD?$AAi?$AAs?$AAk?$AA?5?$AA?$AA@ 000747ec     UefiShellDebug1CommandsLib:QueryTable.obj
 0002:000157fc       ??_C@_1CC@KEALGJFC@?$AA?5?$AAP?$AAe?$AAr?$AAi?$AAp?$AAh?$AAe?$AAr?$AAa?$AAl?$AA?5?$AAB?$AAa?$AAy?$AA?5?$AA?$AA@ 000747fc     UefiShellDebug1CommandsLib:QueryTable.obj
 0002:00015820       ??_C@_1DG@OCABFDIA@?$AA?5?$AAS?$AAy?$AAs?$AAt?$AAe?$AAm?$AA?5?$AAM?$AAa?$AAn?$AAa?$AAg?$AAe?$AAm?$AAe?$AAn?$AAt?$AA?5?$AAM?$AAo?$AAd?$AAu?$AAl?$AAe?$AA?5?$AA?$AA@ 00074820     UefiShellDebug1CommandsLib:QueryTable.obj
 0002:00015858       ??_C@_1BM@KEIIIMGN@?$AA?5?$AAM?$AAo?$AAt?$AAh?$AAe?$AAr?$AAb?$AAo?$AAa?$AAr?$AAd?$AA?5?$AA?$AA@ 00074858     UefiShellDebug1CommandsLib:QueryTable.obj
 0002:00015874       ??_C@_1CA@JDEJPGMF@?$AA?5?$AAM?$AAe?$AAm?$AAo?$AAr?$AAy?$AA?5?$AAM?$AAo?$AAd?$AAu?$AAl?$AAe?$AA?5?$AA?$AA@ 00074874     UefiShellDebug1CommandsLib:QueryTable.obj
 0002:00015894       ??_C@_1CG@NCIMBGOL@?$AA?5?$AAP?$AAr?$AAo?$AAc?$AAe?$AAs?$AAs?$AAo?$AAr?$AA?5?$AAM?$AAo?$AAd?$AAu?$AAl?$AAe?$AA?5?$AA?$AA@ 00074894     UefiShellDebug1CommandsLib:QueryTable.obj
 0002:000158bc       ??_C@_1BK@DEPMCFKI@?$AA?5?$AAP?$AAo?$AAw?$AAe?$AAr?$AA?5?$AAU?$AAn?$AAi?$AAt?$AA?5?$AA?$AA@ 000748bc     UefiShellDebug1CommandsLib:QueryTable.obj
 0002:000158d8       ??_C@_1BM@GLDKJKI@?$AA?5?$AAA?$AAd?$AAd?$AA?9?$AAi?$AAn?$AA?5?$AAC?$AAa?$AAr?$AAd?$AA?5?$AA?$AA@ 000748d8     UefiShellDebug1CommandsLib:QueryTable.obj
 0002:000158f4       ??_C@_1M@IBDCPELO@?$AA?5?$AAF?$AAa?$AAn?$AA?5?$AA?$AA@ 000748f4     UefiShellDebug1CommandsLib:QueryTable.obj
 0002:00015900       ??_C@_1CK@JBDACGFA@?$AA?5?$AAC?$AAe?$AAn?$AAt?$AAr?$AAi?$AAf?$AAu?$AAg?$AAa?$AAl?$AA?5?$AAB?$AAl?$AAo?$AAw?$AAe?$AAr?$AA?5?$AA?$AA@ 00074900     UefiShellDebug1CommandsLib:QueryTable.obj
 0002:0001592c       ??_C@_1BG@LOMPKKGO@?$AA?5?$AAC?$AAh?$AAi?$AAp?$AA?5?$AAF?$AAa?$AAn?$AA?5?$AA?$AA@ 0007492c     UefiShellDebug1CommandsLib:QueryTable.obj
 0002:00015944       ??_C@_1BM@NGIONONA@?$AA?5?$AAC?$AAa?$AAb?$AAi?$AAn?$AAe?$AAt?$AA?5?$AAF?$AAa?$AAn?$AA?5?$AA?$AA@ 00074944     UefiShellDebug1CommandsLib:QueryTable.obj
 0002:00015960       ??_C@_1CG@LCMCLKCF@?$AA?5?$AAP?$AAo?$AAw?$AAe?$AAr?$AA?5?$AAS?$AAu?$AAp?$AAp?$AAl?$AAy?$AA?5?$AAF?$AAa?$AAn?$AA?5?$AA?$AA@ 00074960     UefiShellDebug1CommandsLib:QueryTable.obj
 0002:00015988       ??_C@_1BI@FOBDMCGG@?$AA?5?$AAH?$AAe?$AAa?$AAt?$AA?5?$AAP?$AAi?$AAp?$AAe?$AA?5?$AA?$AA@ 00074988     UefiShellDebug1CommandsLib:QueryTable.obj
 0002:000159a0       ??_C@_1DG@HJEBEBBL@?$AA?5?$AAI?$AAn?$AAt?$AAe?$AAg?$AAr?$AAa?$AAt?$AAe?$AAd?$AA?5?$AAR?$AAe?$AAf?$AAr?$AAi?$AAg?$AAe?$AAr?$AAa?$AAt?$AAi?$AAo?$AAn?$AA?5?$AA?$AA@ 000749a0     UefiShellDebug1CommandsLib:QueryTable.obj
 0002:000159d8       ??_C@_1CC@DKIPEHFO@?$AA?5?$AAA?$AAc?$AAt?$AAi?$AAv?$AAe?$AA?5?$AAC?$AAo?$AAo?$AAl?$AAi?$AAn?$AAg?$AA?5?$AA?$AA@ 000749d8     UefiShellDebug1CommandsLib:QueryTable.obj
 0002:000159fc       ??_C@_1CE@LOOOAFLC@?$AA?5?$AAP?$AAa?$AAs?$AAs?$AAi?$AAv?$AAe?$AA?5?$AAC?$AAo?$AAo?$AAl?$AAi?$AAn?$AAg?$AA?5?$AA?$AA@ 000749fc     UefiShellDebug1CommandsLib:QueryTable.obj
 0002:00015a20       ??_C@_1DM@LHANPIKI@?$AA?5?$AAN?$AAa?$AAt?$AAi?$AAo?$AAn?$AAa?$AAl?$AA?5?$AAS?$AAe?$AAm?$AAi?$AAc?$AAo?$AAn?$AAd?$AAu?$AAc?$AAt?$AAo?$AAr?$AA?5?$AAL?$AAM?$AA7?$AA5?$AA?5?$AA?$AA@ 00074a20     UefiShellDebug1CommandsLib:QueryTable.obj
 0002:00015a5c       ??_C@_1DM@LJDOLHG@?$AA?5?$AAN?$AAa?$AAt?$AAi?$AAo?$AAn?$AAa?$AAl?$AA?5?$AAS?$AAe?$AAm?$AAi?$AAc?$AAo?$AAn?$AAd?$AAu?$AAc?$AAt?$AAo?$AAr?$AA?5?$AAL?$AAM?$AA7?$AA8?$AA?5?$AA?$AA@ 00074a5c     UefiShellDebug1CommandsLib:QueryTable.obj
 0002:00015a98       ??_C@_1DM@MAMPDIND@?$AA?5?$AAN?$AAa?$AAt?$AAi?$AAo?$AAn?$AAa?$AAl?$AA?5?$AAS?$AAe?$AAm?$AAi?$AAc?$AAo?$AAn?$AAd?$AAu?$AAc?$AAt?$AAo?$AAr?$AA?5?$AAL?$AAM?$AA7?$AA9?$AA?5?$AA?$AA@ 00074a98     UefiShellDebug1CommandsLib:QueryTable.obj
 0002:00015ad4       ??_C@_1DM@DOOAHLLH@?$AA?5?$AAN?$AAa?$AAt?$AAi?$AAo?$AAn?$AAa?$AAl?$AA?5?$AAS?$AAe?$AAm?$AAi?$AAc?$AAo?$AAn?$AAd?$AAu?$AAc?$AAt?$AAo?$AAr?$AA?5?$AAL?$AAM?$AA8?$AA0?$AA?5?$AA?$AA@ 00074ad4     UefiShellDebug1CommandsLib:QueryTable.obj
 0002:00015b10       ??_C@_1DM@PFLMKIBC@?$AA?5?$AAN?$AAa?$AAt?$AAi?$AAo?$AAn?$AAa?$AAl?$AA?5?$AAS?$AAe?$AAm?$AAi?$AAc?$AAo?$AAn?$AAd?$AAu?$AAc?$AAt?$AAo?$AAr?$AA?5?$AAL?$AAM?$AA8?$AA1?$AA?5?$AA?$AA@ 00074b10     UefiShellDebug1CommandsLib:QueryTable.obj
 0002:00015b4c       ??_C@_1DC@NHMOKABJ@?$AA?5?$AAA?$AAn?$AAa?$AAl?$AAo?$AAg?$AA?5?$AAD?$AAe?$AAv?$AAi?$AAc?$AAe?$AAs?$AA?5?$AAA?$AAD?$AAM?$AA9?$AA2?$AA4?$AA0?$AA?5?$AA?$AA@ 00074b4c     UefiShellDebug1CommandsLib:QueryTable.obj
 0002:00015b80       ??_C@_1DM@KEDMMCPK@?$AA?5?$AAD?$AAa?$AAl?$AAl?$AAa?$AAs?$AA?5?$AAS?$AAe?$AAm?$AAi?$AAc?$AAo?$AAn?$AAd?$AAu?$AAc?$AAt?$AAo?$AAr?$AA?5?$AAD?$AAS?$AA1?$AA7?$AA8?$AA0?$AA?5?$AA?$AA@ 00074b80     UefiShellDebug1CommandsLib:QueryTable.obj
 0002:00015bbc       ??_C@_1BK@DMDILACG@?$AA?5?$AAM?$AAa?$AAx?$AAi?$AAm?$AA?5?$AA1?$AA6?$AA1?$AA7?$AA?5?$AA?$AA@ 00074bbc     UefiShellDebug1CommandsLib:QueryTable.obj
 0002:00015bd8       ??_C@_1CE@NAHLNKEI@?$AA?5?$AAG?$AAe?$AAn?$AAe?$AAs?$AAy?$AAs?$AA?5?$AAG?$AAL?$AA5?$AA1?$AA8?$AAS?$AAM?$AA?5?$AA?$AA@ 00074bd8     UefiShellDebug1CommandsLib:QueryTable.obj
 0002:00015bfc       ??_C@_1CE@LDCCHJEJ@?$AA?5?$AAW?$AAi?$AAn?$AAb?$AAo?$AAn?$AAd?$AA?5?$AAW?$AA8?$AA3?$AA7?$AA8?$AA1?$AAD?$AA?5?$AA?$AA@ 00074bfc     UefiShellDebug1CommandsLib:QueryTable.obj
 0002:00015c20       ??_C@_1CE@GNDDKDDA@?$AA?5?$AAH?$AAo?$AAl?$AAt?$AAe?$AAk?$AA?5?$AAH?$AAT?$AA8?$AA2?$AAH?$AA7?$AA9?$AA1?$AA?5?$AA?$AA@ 00074c20     UefiShellDebug1CommandsLib:QueryTable.obj
 0002:00015c44       ??_C@_1BG@BGKHBHIL@?$AA?5?$AAI?$AA?1?$AAO?$AA?5?$AAP?$AAo?$AAr?$AAt?$AA?5?$AA?$AA@ 00074c44     UefiShellDebug1CommandsLib:QueryTable.obj
 0002:00015c5c       ??_C@_1BC@BOJDIKKE@?$AA?5?$AAM?$AAe?$AAm?$AAo?$AAr?$AAy?$AA?5?$AA?$AA@ 00074c5c     UefiShellDebug1CommandsLib:QueryTable.obj
 0002:00015c70       ??_C@_1BC@JJDKDAHO@?$AA?5?$AAS?$AAM?$AA?5?$AAB?$AAu?$AAs?$AA?5?$AA?$AA@ 00074c70     UefiShellDebug1CommandsLib:QueryTable.obj
 0002:00015c84       ??_C@_1BC@HOAPPOAE@?$AA?5?$AAR?$AAa?$AAm?$AAB?$AAu?$AAs?$AA?5?$AA?$AA@ 00074c84     UefiShellDebug1CommandsLib:QueryTable.obj
 0002:00015c98       ??_C@_1BG@GCDBPALL@?$AA?5?$AAS?$AAy?$AAn?$AAc?$AAL?$AAi?$AAn?$AAk?$AA?5?$AA?$AA@ 00074c98     UefiShellDebug1CommandsLib:QueryTable.obj
 0002:00015cb0       ??_C@_1EC@KIEOMBAI@?$AA?5?$AAK?$AAC?$AAS?$AA?3?$AA?5?$AAK?$AAe?$AAy?$AAb?$AAo?$AAa?$AAr?$AAd?$AA?5?$AAC?$AAo?$AAn?$AAt?$AAr?$AAo?$AAl?$AAl?$AAe?$AAr?$AA?5?$AAS?$AAt?$AAy?$AAl?$AAe?$AA?5@ 00074cb0     UefiShellDebug1CommandsLib:QueryTable.obj
 0002:00015cf8       ??_C@_1FC@KJMILLDI@?$AA?5?$AAS?$AAM?$AAI?$AAC?$AA?3?$AA?5?$AAS?$AAe?$AAr?$AAv?$AAe?$AAr?$AA?5?$AAM?$AAa?$AAn?$AAa?$AAg?$AAe?$AAm?$AAe?$AAn?$AAt?$AA?5?$AAI?$AAn?$AAt?$AAe?$AAr?$AAf?$AAa@ 00074cf8     UefiShellDebug1CommandsLib:QueryTable.obj
 0002:00015d4c       ??_C@_1CK@IAMEFPOK@?$AA?5?$AAB?$AAT?$AA?3?$AA?5?$AAB?$AAl?$AAo?$AAc?$AAk?$AA?5?$AAT?$AAr?$AAa?$AAn?$AAs?$AAf?$AAe?$AAr?$AA?5?$AA?$AA@ 00074d4c     UefiShellDebug1CommandsLib:QueryTable.obj
 0002:00015d78       ??_C@_1GO@IFNJFDLH@?$AA?5?$AAR?$AAe?$AAs?$AAe?$AAr?$AAv?$AAe?$AAd?$AA?5?$AAf?$AAo?$AAr?$AA?5?$AAf?$AAu?$AAt?$AAu?$AAr?$AAe?$AA?5?$AAa?$AAs?$AAs?$AAi?$AAg?$AAn?$AAm?$AAe?$AAn?$AAt?$AA?5@ 00074d78     UefiShellDebug1CommandsLib:QueryTable.obj
 0002:00015de8       ??_C@_1CM@KFJAMKAL@?$AA?5?$AAM?$AAC?$AAT?$AAP?$AA?5?$AAH?$AAo?$AAs?$AAt?$AA?5?$AAI?$AAn?$AAt?$AAe?$AAr?$AAf?$AAa?$AAc?$AAe?$AA?5?$AA?$AA@ 00074de8     UefiShellDebug1CommandsLib:QueryTable.obj
 0002:00015e14       ??_C@_1DC@CPKLBJHH@?$AA?5?$AAN?$AAe?$AAt?$AAw?$AAo?$AAr?$AAk?$AA?5?$AAH?$AAo?$AAs?$AAt?$AA?5?$AAI?$AAn?$AAt?$AAe?$AAr?$AAf?$AAa?$AAc?$AAe?$AA?5?$AA?$AA@ 00074e14     UefiShellDebug1CommandsLib:QueryTable.obj
 0002:00015e48       ??_C@_1BM@OGGKBMGB@?$AA?5?$AAO?$AAE?$AAM?$AA?5?$AAd?$AAe?$AAf?$AAi?$AAn?$AAe?$AAd?$AA?5?$AA?$AA@ 00074e48     UefiShellDebug1CommandsLib:QueryTable.obj
 0002:00015e64       ??_C@_1CE@NODMCEOF@?$AA?5?$AAB?$AAI?$AAO?$AAS?$AA?5?$AAI?$AAn?$AAf?$AAo?$AAr?$AAm?$AAa?$AAt?$AAi?$AAo?$AAn?$AA?$AA@ 00074e64     UefiShellDebug1CommandsLib:QueryTable.obj
 0002:00015e88       ??_C@_1CI@JBMGMLKL@?$AA?5?$AAS?$AAy?$AAs?$AAt?$AAe?$AAm?$AA?5?$AAI?$AAn?$AAf?$AAo?$AAr?$AAm?$AAa?$AAt?$AAi?$AAo?$AAn?$AA?$AA@ 00074e88     UefiShellDebug1CommandsLib:QueryTable.obj
 0002:00015eb0       ??_C@_1DA@DLBDLIPB@?$AA?5?$AAB?$AAa?$AAs?$AAe?$AA?5?$AAB?$AAo?$AAa?$AAr?$AAd?$AA?5?$AAI?$AAn?$AAf?$AAo?$AAr?$AAm?$AAa?$AAt?$AAi?$AAo?$AAn?$AA?$AA@ 00074eb0     UefiShellDebug1CommandsLib:QueryTable.obj
 0002:00015ee0       ??_C@_1CE@MKBMKOIJ@?$AA?5?$AAS?$AAy?$AAs?$AAt?$AAe?$AAm?$AA?5?$AAE?$AAn?$AAc?$AAl?$AAo?$AAs?$AAu?$AAr?$AAe?$AA?$AA@ 00074ee0     UefiShellDebug1CommandsLib:QueryTable.obj
 0002:00015f04       ??_C@_1CO@IEFCPDIM@?$AA?5?$AAP?$AAr?$AAo?$AAc?$AAe?$AAs?$AAs?$AAo?$AAr?$AA?5?$AAI?$AAn?$AAf?$AAo?$AAr?$AAm?$AAa?$AAt?$AAi?$AAo?$AAn?$AA?$AA@ 00074f04     UefiShellDebug1CommandsLib:QueryTable.obj
 0002:00015f38       ??_C@_1EA@GLJIDPGC@?$AA?5?$AAM?$AAe?$AAm?$AAo?$AAr?$AAy?$AA?5?$AAC?$AAo?$AAn?$AAt?$AAr?$AAo?$AAl?$AAl?$AAe?$AAr?$AA?5?$AAI?$AAn?$AAf?$AAo?$AAr?$AAm?$AAa?$AAt?$AAi?$AAo?$AAn?$AA?5?$AA?$AA@ 00074f38     UefiShellDebug1CommandsLib:QueryTable.obj
 0002:00015f78       ??_C@_1DI@NGJKBOBL@?$AA?5?$AAM?$AAe?$AAm?$AAo?$AAr?$AAy?$AA?5?$AAM?$AAo?$AAd?$AAu?$AAl?$AAe?$AA?5?$AAI?$AAn?$AAf?$AAo?$AAr?$AAm?$AAa?$AAt?$AAi?$AAo?$AAn?$AA?5?$AA?$AA@ 00074f78     UefiShellDebug1CommandsLib:QueryTable.obj
 0002:00015fb0       ??_C@_1CI@KAHPHEOD@?$AA?5?$AAC?$AAa?$AAc?$AAh?$AAe?$AA?5?$AAI?$AAn?$AAf?$AAo?$AAr?$AAm?$AAa?$AAt?$AAi?$AAo?$AAn?$AA?5?$AA?$AA@ 00074fb0     UefiShellDebug1CommandsLib:QueryTable.obj
 0002:00015fd8       ??_C@_1DK@EIOCMDIE@?$AA?5?$AAP?$AAo?$AAr?$AAt?$AA?5?$AAC?$AAo?$AAn?$AAn?$AAe?$AAc?$AAt?$AAo?$AAr?$AA?5?$AAI?$AAn?$AAf?$AAo?$AAr?$AAm?$AAa?$AAt?$AAi?$AAo?$AAn?$AA?5?$AA?$AA@ 00074fd8     UefiShellDebug1CommandsLib:QueryTable.obj
 0002:00016014       ??_C@_1BO@CFNNBGGK@?$AA?5?$AAS?$AAy?$AAs?$AAt?$AAe?$AAm?$AA?5?$AAS?$AAl?$AAo?$AAt?$AAs?$AA?5?$AA?$AA@ 00075014     UefiShellDebug1CommandsLib:QueryTable.obj
 0002:00016038       ??_C@_1EA@JEIKCCNN@?$AA?5?$AAO?$AAn?$AA?5?$AAB?$AAo?$AAa?$AAr?$AAd?$AA?5?$AAD?$AAe?$AAv?$AAi?$AAc?$AAe?$AAs?$AA?5?$AAI?$AAn?$AAf?$AAo?$AAr?$AAm?$AAa?$AAt?$AAi?$AAo?$AAn?$AA?5?$AA?5?$AA?$AA@ 00075038     UefiShellDebug1CommandsLib:QueryTable.obj
 0002:00016078       ??_C@_1BK@BLOMDIIM@?$AA?5?$AAO?$AAE?$AAM?$AA?5?$AAS?$AAt?$AAr?$AAi?$AAn?$AAg?$AAs?$AA?$AA@ 00075078     UefiShellDebug1CommandsLib:QueryTable.obj
 0002:00016094       ??_C@_1DO@GLJAEBOI@?$AA?5?$AAS?$AAy?$AAs?$AAt?$AAe?$AAm?$AA?5?$AAC?$AAo?$AAn?$AAf?$AAi?$AAg?$AAu?$AAr?$AAa?$AAt?$AAi?$AAo?$AAn?$AA?5?$AAO?$AAp?$AAt?$AAi?$AAo?$AAn?$AAs?$AA?5?$AA?$AA@ 00075094     UefiShellDebug1CommandsLib:QueryTable.obj
 0002:000160d4       ??_C@_1DK@PMNAAIFF@?$AA?5?$AAB?$AAI?$AAO?$AAS?$AA?5?$AAL?$AAa?$AAn?$AAg?$AAu?$AAa?$AAg?$AAe?$AA?5?$AAI?$AAn?$AAf?$AAo?$AAr?$AAm?$AAa?$AAt?$AAi?$AAo?$AAn?$AA?5?$AA?5?$AA?$AA@ 000750d4     UefiShellDebug1CommandsLib:QueryTable.obj
 0002:00016110       ??_C@_1CK@LPHDKGOO@?$AA?5?$AAG?$AAr?$AAo?$AAu?$AAp?$AA?5?$AAA?$AAs?$AAs?$AAo?$AAc?$AAi?$AAa?$AAt?$AAi?$AAo?$AAn?$AAs?$AA?5?$AA?$AA@ 00075110     UefiShellDebug1CommandsLib:QueryTable.obj
 0002:0001613c       ??_C@_1CG@NDCDIPMA@?$AA?5?$AAS?$AAy?$AAs?$AAt?$AAe?$AAm?$AA?5?$AAE?$AAv?$AAe?$AAn?$AAt?$AA?5?$AAL?$AAo?$AAg?$AA?5?$AA?$AA@ 0007513c     UefiShellDebug1CommandsLib:QueryTable.obj
 0002:00016164       ??_C@_1DA@JNMIAO@?$AA?5?$AAP?$AAh?$AAy?$AAs?$AAi?$AAc?$AAa?$AAl?$AA?5?$AAM?$AAe?$AAm?$AAo?$AAr?$AAy?$AA?5?$AAA?$AAr?$AAr?$AAa?$AAy?$AA?5?$AA?$AA@ 00075164     UefiShellDebug1CommandsLib:QueryTable.obj
 0002:00016194       ??_C@_1CA@JIJECCCJ@?$AA?5?$AAM?$AAe?$AAm?$AAo?$AAr?$AAy?$AA?5?$AAD?$AAe?$AAv?$AAi?$AAc?$AAe?$AA?5?$AA?$AA@ 00075194     UefiShellDebug1CommandsLib:QueryTable.obj
 0002:000161b8       ??_C@_1EE@PEHMGDNH@?$AA?5?$AA3?$AA2?$AA?9?$AAb?$AAi?$AAt?$AA?5?$AAM?$AAe?$AAm?$AAo?$AAr?$AAy?$AA?5?$AAE?$AAr?$AAr?$AAo?$AAr?$AA?5?$AAI?$AAn?$AAf?$AAo?$AAr?$AAm?$AAa?$AAt?$AAi?$AAo?$AAn@ 000751b8     UefiShellDebug1CommandsLib:QueryTable.obj
 0002:000161fc       ??_C@_1DM@JGOEEHED@?$AA?5?$AAM?$AAe?$AAm?$AAo?$AAr?$AAy?$AA?5?$AAA?$AAr?$AAr?$AAa?$AAy?$AA?5?$AAM?$AAa?$AAp?$AAp?$AAe?$AAd?$AA?5?$AAA?$AAd?$AAd?$AAr?$AAe?$AAs?$AAs?$AA?5?$AA?$AA@ 000751fc     UefiShellDebug1CommandsLib:QueryTable.obj
 0002:00016238       ??_C@_1EA@CCKEJEPI@?$AA?5?$AAM?$AAe?$AAm?$AAo?$AAr?$AAy?$AA?5?$AAD?$AAe?$AAv?$AAi?$AAc?$AAe?$AA?5?$AAM?$AAa?$AAp?$AAp?$AAe?$AAd?$AA?5?$AAA?$AAd?$AAd?$AAr?$AAe?$AAs?$AAs?$AA?5?$AA?5?$AA?$AA@ 00075238     UefiShellDebug1CommandsLib:QueryTable.obj
 0002:00016278       ??_C@_1DG@CEGKOEIA@?$AA?5?$AAB?$AAu?$AAi?$AAl?$AAt?$AA?9?$AAi?$AAn?$AA?5?$AAP?$AAo?$AAi?$AAn?$AAt?$AAi?$AAn?$AAg?$AA?5?$AAD?$AAe?$AAv?$AAi?$AAc?$AAe?$AA?5?$AA?$AA@ 00075278     UefiShellDebug1CommandsLib:QueryTable.obj
 0002:000162b0       ??_C@_1CG@BHBPCLAK@?$AA?5?$AAP?$AAo?$AAr?$AAt?$AAa?$AAb?$AAl?$AAe?$AA?5?$AAB?$AAa?$AAt?$AAt?$AAe?$AAr?$AAy?$AA?5?$AA?$AA@ 000752b0     UefiShellDebug1CommandsLib:QueryTable.obj
 0002:000162d8       ??_C@_1BO@LFPNKNOG@?$AA?5?$AAS?$AAy?$AAs?$AAt?$AAe?$AAm?$AA?5?$AAR?$AAe?$AAs?$AAe?$AAt?$AA?5?$AA?$AA@ 000752d8     UefiShellDebug1CommandsLib:QueryTable.obj
 0002:000162f8       ??_C@_1CI@HEMMAADB@?$AA?5?$AAH?$AAa?$AAr?$AAd?$AAw?$AAa?$AAr?$AAe?$AA?5?$AAS?$AAe?$AAc?$AAu?$AAr?$AAi?$AAt?$AAy?$AA?5?$AA?$AA@ 000752f8     UefiShellDebug1CommandsLib:QueryTable.obj
 0002:00016320       ??_C@_1DA@BHBLKLIE@?$AA?5?$AAS?$AAy?$AAs?$AAt?$AAe?$AAm?$AA?5?$AAP?$AAo?$AAw?$AAe?$AAr?$AA?5?$AAC?$AAo?$AAn?$AAt?$AAr?$AAo?$AAl?$AAs?$AA?5?$AA?$AA@ 00075320     UefiShellDebug1CommandsLib:QueryTable.obj
 0002:00016350       ??_C@_1CA@LPHPMNGH@?$AA?5?$AAV?$AAo?$AAl?$AAt?$AAa?$AAg?$AAe?$AA?5?$AAP?$AAr?$AAo?$AAb?$AAe?$AA?5?$AA?$AA@ 00075350     UefiShellDebug1CommandsLib:QueryTable.obj
 0002:00016370       ??_C@_1CC@HIJNABCD@?$AA?5?$AAC?$AAo?$AAo?$AAl?$AAi?$AAn?$AAg?$AA?5?$AAD?$AAe?$AAv?$AAi?$AAc?$AAe?$AA?5?$AA?$AA@ 00075370     UefiShellDebug1CommandsLib:QueryTable.obj
 0002:00016394       ??_C@_1CI@DBJFFCMH@?$AA?5?$AAT?$AAe?$AAm?$AAp?$AAe?$AAr?$AAa?$AAt?$AAu?$AAr?$AAe?$AA?5?$AAP?$AAr?$AAo?$AAb?$AAe?$AA?5?$AA?$AA@ 00075394     UefiShellDebug1CommandsLib:QueryTable.obj
 0002:000163bc       ??_C@_1DG@GLKFIJAO@?$AA?5?$AAE?$AAl?$AAe?$AAc?$AAt?$AAr?$AAi?$AAc?$AAa?$AAl?$AA?5?$AAC?$AAu?$AAr?$AAr?$AAe?$AAn?$AAt?$AA?5?$AAP?$AAr?$AAo?$AAb?$AAe?$AA?5?$AA?$AA@ 000753bc     UefiShellDebug1CommandsLib:QueryTable.obj
 0002:000163f4       ??_C@_1DK@EBFKJOBC@?$AA?5?$AAO?$AAu?$AAt?$AA?9?$AAo?$AAf?$AA?9?$AAB?$AAa?$AAn?$AAd?$AA?5?$AAR?$AAe?$AAm?$AAo?$AAt?$AAe?$AA?5?$AAA?$AAc?$AAc?$AAe?$AAs?$AAs?$AA?5?$AA?5?$AA?$AA@ 000753f4     UefiShellDebug1CommandsLib:QueryTable.obj
 0002:00016430       ??_C@_1FG@JFKJFGJC@?$AA?5?$AAB?$AAo?$AAo?$AAt?$AA?5?$AAI?$AAn?$AAt?$AAe?$AAg?$AAr?$AAi?$AAt?$AAy?$AA?5?$AAS?$AAe?$AAr?$AAv?$AAi?$AAc?$AAe?$AAs?$AA?5?$AA?$CI?$AAB?$AAI?$AAS?$AA?$CJ?$AA?5?$AAE@ 00075430     UefiShellDebug1CommandsLib:QueryTable.obj
 0002:00016488       ??_C@_1DE@EJKEMOMO@?$AA?5?$AAS?$AAy?$AAs?$AAt?$AAe?$AAm?$AA?5?$AAB?$AAo?$AAo?$AAt?$AA?5?$AAI?$AAn?$AAf?$AAo?$AAr?$AAm?$AAa?$AAt?$AAi?$AAo?$AAn?$AA?5?$AA?$AA@ 00075488     UefiShellDebug1CommandsLib:QueryTable.obj
 0002:000164c0       ??_C@_1EE@NFBOJNAJ@?$AA?5?$AA6?$AA4?$AA?9?$AAb?$AAi?$AAt?$AA?5?$AAM?$AAe?$AAm?$AAo?$AAr?$AAy?$AA?5?$AAE?$AAr?$AAr?$AAo?$AAr?$AA?5?$AAI?$AAn?$AAf?$AAo?$AAr?$AAm?$AAa?$AAt?$AAi?$AAo?$AAn@ 000754c0     UefiShellDebug1CommandsLib:QueryTable.obj
 0002:00016504       ??_C@_1CI@BCNAMOJH@?$AA?5?$AAM?$AAa?$AAn?$AAa?$AAg?$AAe?$AAm?$AAe?$AAn?$AAt?$AA?5?$AAD?$AAe?$AAv?$AAi?$AAc?$AAe?$AA?5?$AA?$AA@ 00075504     UefiShellDebug1CommandsLib:QueryTable.obj
 0002:0001652c       ??_C@_1DM@GCJAAPLD@?$AA?5?$AAM?$AAa?$AAn?$AAa?$AAg?$AAe?$AAm?$AAe?$AAn?$AAt?$AA?5?$AAD?$AAe?$AAv?$AAi?$AAc?$AAe?$AA?5?$AAC?$AAo?$AAm?$AAp?$AAo?$AAn?$AAe?$AAn?$AAt?$AA?5?$AA?$AA@ 0007552c     UefiShellDebug1CommandsLib:QueryTable.obj
 0002:00016568       ??_C@_1EG@KIKKBPNN@?$AA?5?$AAM?$AAa?$AAn?$AAa?$AAg?$AAe?$AAm?$AAe?$AAn?$AAt?$AA?5?$AAD?$AAe?$AAv?$AAi?$AAc?$AAe?$AA?5?$AAT?$AAh?$AAr?$AAe?$AAs?$AAh?$AAo?$AAl?$AAd?$AA?5?$AAD?$AAa?$AAt@ 00075568     UefiShellDebug1CommandsLib:QueryTable.obj
 0002:000165b0       ??_C@_1CC@CDPDJPBM@?$AA?5?$AAM?$AAe?$AAm?$AAo?$AAr?$AAy?$AA?5?$AAC?$AAh?$AAa?$AAn?$AAn?$AAe?$AAl?$AA?5?$AA?$AA@ 000755b0     UefiShellDebug1CommandsLib:QueryTable.obj
 0002:000165d4       ??_C@_1DE@KMAGHJDA@?$AA?5?$AAI?$AAP?$AAM?$AAI?$AA?5?$AAD?$AAe?$AAv?$AAi?$AAc?$AAe?$AA?5?$AAI?$AAn?$AAf?$AAo?$AAr?$AAm?$AAa?$AAt?$AAi?$AAo?$AAn?$AA?5?$AA?$AA@ 000755d4     UefiShellDebug1CommandsLib:QueryTable.obj
 0002:00016608       ??_C@_1CK@OCDKGLHK@?$AA?5?$AAS?$AAy?$AAs?$AAt?$AAe?$AAm?$AA?5?$AAP?$AAo?$AAw?$AAe?$AAr?$AA?5?$AAS?$AAu?$AAp?$AAp?$AAl?$AAy?$AA?$AA@ 00075608     UefiShellDebug1CommandsLib:QueryTable.obj
 0002:00016634       ??_C@_1DA@GLMBOCKD@?$AA?5?$AAA?$AAd?$AAd?$AAi?$AAt?$AAi?$AAo?$AAn?$AAa?$AAl?$AA?5?$AAI?$AAn?$AAf?$AAo?$AAr?$AAm?$AAa?$AAt?$AAi?$AAo?$AAn?$AA?$AA@ 00075634     UefiShellDebug1CommandsLib:QueryTable.obj
 0002:00016668       ??_C@_1EM@FKONMDEN@?$AA?5?$AAO?$AAn?$AAb?$AAo?$AAa?$AAr?$AAd?$AA?5?$AAD?$AAe?$AAv?$AAi?$AAc?$AAe?$AAs?$AA?5?$AAE?$AAx?$AAt?$AAe?$AAn?$AAd?$AAe?$AAd?$AA?5?$AAI?$AAn?$AAf?$AAo?$AAr?$AAm@ 00075668     UefiShellDebug1CommandsLib:QueryTable.obj
 0002:000166b8       ??_C@_1EM@CBPIKIMD@?$AA?5?$AAM?$AAa?$AAn?$AAa?$AAg?$AAe?$AAm?$AAe?$AAn?$AAt?$AA?5?$AAC?$AAo?$AAn?$AAt?$AAr?$AAo?$AAl?$AAl?$AAe?$AAr?$AA?5?$AAH?$AAo?$AAs?$AAt?$AA?5?$AAI?$AAn?$AAt?$AAe@ 000756b8     UefiShellDebug1CommandsLib:QueryTable.obj
 0002:00016704       ??_C@_1BI@EIFIKJJO@?$AA?5?$AAT?$AAP?$AAM?$AA?5?$AAD?$AAe?$AAv?$AAi?$AAc?$AAe?$AA?$AA@ 00075704     UefiShellDebug1CommandsLib:QueryTable.obj
 0002:0001671c       ??_C@_1BE@BOAAIAOA@?$AA?5?$AAI?$AAn?$AAa?$AAc?$AAt?$AAi?$AAv?$AAe?$AA?$AA@ 0007571c     UefiShellDebug1CommandsLib:QueryTable.obj
 0002:00016730       ??_C@_1BO@BNMLPACJ@?$AA?5?$AAE?$AAn?$AAd?$AA?9?$AAo?$AAf?$AA?9?$AAT?$AAa?$AAb?$AAl?$AAe?$AA?5?$AA?$AA@ 00075730     UefiShellDebug1CommandsLib:QueryTable.obj
 0002:00016750       ??_C@_1CC@PHEMCIPO@?$AAU?$AAn?$AAd?$AAe?$AAf?$AAi?$AAn?$AAe?$AAd?$AA?5?$AAV?$AAa?$AAl?$AAu?$AAe?$AA?6?$AA?$AA@ 00075750     UefiShellDebug1CommandsLib:QueryTable.obj
 0002:00016774       ??_C@_17LPHJCAEE@?$AA?5?$AA?$HM?$AA?5?$AA?$AA@ 00075774     UefiShellDebug1CommandsLib:QueryTable.obj
 0002:0001677c       ??_C@_15MDIDNHP@?$AA1?$AA9?$AA?$AA@ 0007577c     UefiShellDebug1CommandsLib:EventLogInfo.obj
 0002:00016784       ??_C@_15PHKEAAFL@?$AA2?$AA0?$AA?$AA@ 00075784     UefiShellDebug1CommandsLib:EventLogInfo.obj
 0002:00016790       ??_C@_0ED@GDBOGECH@c?3?2edk2?2ShellPkg?2Library?2UefiShe@ 00075790     UefiShellDebug1CommandsLib:Misc.obj
 0002:000167d4       ??_C@_1CG@GGCANCNJ@?$AAC?$AAa?$AAn?$AAn?$AAo?$AAt?$AA?5?$AAF?$AAi?$AAn?$AAd?$AA?5?$AAD?$AAe?$AAv?$AAi?$AAc?$AAe?$AA?$AA@ 000757d4     UefiShellDebug1CommandsLib:DiskImage.obj
 0002:000167fc       ??_C@_1CC@BOLHEDEM@?$AAR?$AAe?$AAa?$AAd?$AA?5?$AAD?$AAi?$AAs?$AAk?$AA?5?$AAF?$AAa?$AAi?$AAl?$AAe?$AAd?$AA?$AA@ 000757fc     UefiShellDebug1CommandsLib:DiskImage.obj
 0002:00016820       ??_C@_1CM@FECOOMNI@?$AAI?$AAn?$AAv?$AAa?$AAl?$AAi?$AAd?$AA?5?$AAO?$AAf?$AAf?$AAs?$AAe?$AAt?$AA?5?$AA?$CL?$AA?5?$AAS?$AAi?$AAz?$AAe?$AA?$AA@ 00075820     UefiShellDebug1CommandsLib:DiskImage.obj
 0002:00016850       ??_C@_0EI@KLOMEMDF@c?3?2edk2?2ShellPkg?2Library?2UefiShe@ 00075850     UefiShellDebug1CommandsLib:DiskImage.obj
 0002:00016898       ??_C@_1CG@PKEPGPJG@?$AAR?$AAe?$AAa?$AAd?$AA?5?$AAM?$AAe?$AAm?$AAo?$AAr?$AAy?$AA?5?$AAF?$AAa?$AAi?$AAl?$AAe?$AAd?$AA?$AA@ 00075898     UefiShellDebug1CommandsLib:MemImage.obj
 0002:000168c0       ??_C@_1EA@GENECJI@?$AAM?$AAe?$AAm?$AAo?$AAr?$AAy?$AA?5?$AAS?$AAp?$AAe?$AAc?$AAi?$AAf?$AAi?$AAe?$AAd?$AA?5?$AAN?$AAo?$AAt?$AA?5?$AAA?$AAc?$AAc?$AAe?$AAs?$AAs?$AAi?$AAb?$AAl?$AAe?$AA?$AA@ 000758c0     UefiShellDebug1CommandsLib:MemImage.obj
 0002:00016900       ??_C@_0EH@HILMNLI@c?3?2edk2?2ShellPkg?2Library?2UefiShe@ 00075900     UefiShellDebug1CommandsLib:MemImage.obj
 0002:00016948       ??_C@_1DE@HNKDFIPF@?$AAR?$AAe?$AAa?$AAd?$AA?5?$AAe?$AAr?$AAr?$AAo?$AAr?$AA?5?$AAo?$AAn?$AA?5?$AAf?$AAi?$AAl?$AAe?$AA?5?$AA?$CF?$AAs?$AA?3?$AA?5?$AA?$CF?$AAr?$AA?$AA@ 00075948     UefiShellDebug1CommandsLib:FileImage.obj
 0002:0001697c       ??_C@_1CI@LDONJDG@?$AAE?$AAr?$AAr?$AAo?$AAr?$AA?5?$AAp?$AAa?$AAr?$AAs?$AAi?$AAn?$AAg?$AA?5?$AAf?$AAi?$AAl?$AAe?$AA?4?$AA?$AA@ 0007597c     UefiShellDebug1CommandsLib:FileImage.obj
 0002:000169a8       ??_C@_0EI@FJLANDFN@c?3?2edk2?2ShellPkg?2Library?2UefiShe@ 000759a8     UefiShellDebug1CommandsLib:FileImage.obj
 0002:000169f0       ??_C@_1BC@GCDGEHJC@?$AAn?$AAe?$AAt?$AAw?$AAo?$AAr?$AAk?$AA1?$AA?$AA@ 000759f0     UefiShellNetwork1CommandsLib:UefiShellNetwork1CommandsLib.obj
 0002:00016a04       ??_C@_19LBJHAIBB@?$AAp?$AAi?$AAn?$AAg?$AA?$AA@ 00075a04     UefiShellNetwork1CommandsLib:UefiShellNetwork1CommandsLib.obj
 0002:00016a10       ??_C@_1BC@BHCGFBDA@?$AAi?$AAf?$AAc?$AAo?$AAn?$AAf?$AAi?$AAg?$AA?$AA@ 00075a10     UefiShellNetwork1CommandsLib:UefiShellNetwork1CommandsLib.obj
 0002:00016a24       _gShellNetwork1FileName    00075a24     UefiShellNetwork1CommandsLib:UefiShellNetwork1CommandsLib.obj
 0002:00016a40       ??_C@_17HMPMOCEB@?$AA?9?$AA_?$AAs?$AA?$AA@ 00075a40     UefiShellNetwork1CommandsLib:Ping.obj
 0002:00016a48       ??_C@_1M@FLGNCPGP@?$AA?9?$AA_?$AAi?$AAp?$AA6?$AA?$AA@ 00075a48     UefiShellNetwork1CommandsLib:Ping.obj
 0002:00016a54       ??_C@_0DD@HLEHBLHL@Private?9?$DOProtocolPointers?4Transm@ 00075a54     UefiShellNetwork1CommandsLib:Ping.obj
 0002:00016a88       ??_C@_0DN@LKHMHFPJ@c?3?2edk2?2ShellPkg?2Library?2UefiShe@ 00075a88     UefiShellNetwork1CommandsLib:Ping.obj
 0002:00016ac8       ??_C@_0BH@BFEOOCHJ@Private?9?$DOIpChoice?5?$DN?$DN?51?$AA@ 00075ac8     UefiShellNetwork1CommandsLib:Ping.obj
 0002:00016ae0       ??_C@_0BG@OBJJIHME@EfiSb?5?$CB?$DN?5?$CI?$CIvoid?5?$CK?$CJ?50?$CJ?$AA@ 00075ae0     UefiShellNetwork1CommandsLib:Ping.obj
 0002:00016b30       ??_C@_1O@IPFBFMHG@?$AAs?$AAt?$AAa?$AAt?$AAi?$AAc?$AA?$AA@ 00075b30     UefiShellNetwork1CommandsLib:Ifconfig.obj
 0002:00016b40       ??_C@_19CCCIFFOF@?$AAd?$AAh?$AAc?$AAp?$AA?$AA@ 00075b40     UefiShellNetwork1CommandsLib:Ifconfig.obj
 0002:00016b4c       ??_C@_17IFAIOPIP@?$AAd?$AAn?$AAs?$AA?$AA@ 00075b4c     UefiShellNetwork1CommandsLib:Ifconfig.obj
 0002:00016b54       ??_C@_0L@CLILBPOD@Size?5?$DM?$DN?532?$AA@ 00075b54     UefiShellNetwork1CommandsLib:Ifconfig.obj
 0002:00016b60       ??_C@_0EB@FNGGKPBN@c?3?2edk2?2ShellPkg?2Library?2UefiShe@ 00075b60     UefiShellNetwork1CommandsLib:Ifconfig.obj
 0002:00016ba4       ??_C@_1CG@GCGMOFLL@?$AAM?$AAe?$AAd?$AAi?$AAa?$AA?5?$AAd?$AAi?$AAs?$AAc?$AAo?$AAn?$AAn?$AAe?$AAc?$AAt?$AAe?$AAd?$AA?$AA@ 00075ba4     UefiShellNetwork1CommandsLib:Ifconfig.obj
 0002:00016bcc       ??_C@_1BM@ODGIMFHP@?$AAM?$AAe?$AAd?$AAi?$AAa?$AA?5?$AAp?$AAr?$AAe?$AAs?$AAe?$AAn?$AAt?$AA?$AA@ 00075bcc     UefiShellNetwork1CommandsLib:Ifconfig.obj
 0002:00016be8       ??_C@_1CI@GOABMHNO@?$AAM?$AAe?$AAd?$AAi?$AAa?$AA?5?$AAs?$AAt?$AAa?$AAt?$AAe?$AA?5?$AAu?$AAn?$AAk?$AAn?$AAo?$AAw?$AAn?$AA?$AA@ 00075be8     UefiShellNetwork1CommandsLib:Ifconfig.obj
 0002:00016c10       ??_C@_1BA@DPNEJNHG@?$AAS?$AAu?$AAb?$AAn?$AAe?$AAt?$AA?5?$AA?$AA@ 00075c10     UefiShellNetwork1CommandsLib:Ifconfig.obj
 0002:00016c20       ??_C@_1BA@GLEDMPLM@?$AAN?$AAe?$AAt?$AAm?$AAa?$AAs?$AAk?$AA?$AA@ 00075c20     UefiShellNetwork1CommandsLib:Ifconfig.obj
 0002:00016c30       ??_C@_1BA@LCJJAKKF@?$AAG?$AAa?$AAt?$AAe?$AAw?$AAa?$AAy?$AA?$AA@ 00075c30     UefiShellNetwork1CommandsLib:Ifconfig.obj
 0002:00016c40       ??_C@_0BI@GONLCNCH@Private?5?$CB?$DN?5?$CI?$CIvoid?5?$CK?$CJ?50?$CJ?$AA@ 00075c40     UefiShellNetwork1CommandsLib:Ifconfig.obj
 0002:00016c6c       ??_C@_1BC@HAIDOIHM@?$AAn?$AAe?$AAt?$AAw?$AAo?$AAr?$AAk?$AA2?$AA?$AA@ 00075c6c     UefiShellNetwork2CommandsLib:UefiShellNetwork2CommandsLib.obj
 0002:00016c80       ??_C@_1M@IIECLNMI@?$AAp?$AAi?$AAn?$AAg?$AA6?$AA?$AA@ 00075c80     UefiShellNetwork2CommandsLib:UefiShellNetwork2CommandsLib.obj
 0002:00016c8c       ??_C@_1BE@BGGKOHMK@?$AAi?$AAf?$AAc?$AAo?$AAn?$AAf?$AAi?$AAg?$AA6?$AA?$AA@ 00075c8c     UefiShellNetwork2CommandsLib:UefiShellNetwork2CommandsLib.obj
 0002:00016ca0       _gShellNetwork2FileName    00075ca0     UefiShellNetwork2CommandsLib:UefiShellNetwork2CommandsLib.obj
 0002:00016cbc       ??_C@_19DFBGMPLB@?$AAa?$AAu?$AAt?$AAo?$AA?$AA@ 00075cbc     UefiShellNetwork2CommandsLib:Ifconfig6.obj
 0002:00016cc8       ??_C@_17MJGCMJDD@?$AAm?$AAa?$AAn?$AA?$AA@ 00075cc8     UefiShellNetwork2CommandsLib:Ifconfig6.obj
 0002:00016cd0       ??_C@_19LOGFCJLO@?$AAh?$AAo?$AAs?$AAt?$AA?$AA@ 00075cd0     UefiShellNetwork2CommandsLib:Ifconfig6.obj
 0002:00016cdc       ??_C@_17LJJADCHM@?$AAd?$AAa?$AAd?$AA?$AA@ 00075cdc     UefiShellNetwork2CommandsLib:Ifconfig6.obj
 0002:00016ce4       ??_C@_15KNCEPJJL@?$AAg?$AAw?$AA?$AA@ 00075ce4     UefiShellNetwork2CommandsLib:Ifconfig6.obj
 0002:00016cec       ??_C@_15NFICGAJK@?$AAi?$AAd?$AA?$AA@ 00075cec     UefiShellNetwork2CommandsLib:Ifconfig6.obj
 0002:00016cf8       ??_C@_0EC@PFIJOFKC@c?3?2edk2?2ShellPkg?2Library?2UefiShe@ 00075cf8     UefiShellNetwork2CommandsLib:Ifconfig6.obj
 0002:00016d3c       ??_C@_0BI@BECPFGIL@AddrBuf?5?$CB?$DN?5?$CI?$CIvoid?5?$CK?$CJ?50?$CJ?$AA@ 00075d3c     UefiShellNetwork2CommandsLib:Ifconfig6.obj
 0002:00016d54       ??_C@_0BF@EOBKGBIE@IfId?5?$CB?$DN?5?$CI?$CIvoid?5?$CK?$CJ?50?$CJ?$AA@ 00075d54     UefiShellNetwork2CommandsLib:Ifconfig6.obj
 0002:00016d6c       ??_C@_0BG@LILLGIKM@?$CKIfId?5?$CB?$DN?5?$CI?$CIvoid?5?$CK?$CJ?50?$CJ?$AA@ 00075d6c     UefiShellNetwork2CommandsLib:Ifconfig6.obj
 0002:00016d84       ??_C@_0BH@COCICGOH@TxInfo?5?$CB?$DN?5?$CI?$CIvoid?5?$CK?$CJ?50?$CJ?$AA@ 00075d84     UefiShellNetwork2CommandsLib:Ping6.obj
 0002:00016d9c       ??_C@_0DO@BMPKONKJ@c?3?2edk2?2ShellPkg?2Library?2UefiShe@ 00075d9c     UefiShellNetwork2CommandsLib:Ping6.obj
 0002:00016ddc       ??_C@_0BG@BAADFOPM@Ip6Sb?5?$CB?$DN?5?$CI?$CIvoid?5?$CK?$CJ?50?$CJ?$AA@ 00075ddc     UefiShellNetwork2CommandsLib:Ping6.obj
 0002:00016df4       ??_C@_1M@JAHDGGDA@?$AAP?$AAi?$AAn?$AAg?$AA6?$AA?$AA@ 00075df4     UefiShellNetwork2CommandsLib:Ping6.obj
 0002:00016e00       ??_C@_0EK@NEAGPEKB@c?3?2edk2?2MdeModulePkg?2Library?2Dxe@ 00075e00     DxeReportStatusCodeLib:ReportStatusCodeLib.obj
 0002:00016e4c       ??_C@_0DN@HHIHPHHB@?$CB?$CI?$CIExtendedData?5?$DN?$DN?5?$CI?$CIvoid?5?$CK?$CJ?50?$CJ?$CJ@ 00075e4c     DxeReportStatusCodeLib:ReportStatusCodeLib.obj
 0002:00016e8c       ??_C@_0DN@BBBIFINB@?$CB?$CI?$CIExtendedData?5?$CB?$DN?5?$CI?$CIvoid?5?$CK?$CJ?50?$CJ?$CJ@ 00075e8c     DxeReportStatusCodeLib:ReportStatusCodeLib.obj
 0002:00016ecc       ??_C@_0DI@MIEIGAOH@Status?5code?5extended?5data?5is?5too@ 00075ecc     DxeReportStatusCodeLib:ReportStatusCodeLib.obj
 0002:00016f04       ??_C@_0DP@CPGOBMAI@c?3?2edk2?2MdePkg?2Library?2BaseMemor@ 00075f04     BaseMemoryLibOptDxe:CompareMemWrapper.obj
 0002:00016f44       ??_C@_0BN@MDMCNBCC@SourceBuffer?5?$CB?$DN?5?$CI?$CIvoid?5?$CK?$CJ?50?$CJ?$AA@ 00075f44     BaseMemoryLibOptDxe:CompareMemWrapper.obj
 0002:00016f64       ??_C@_0DE@PLOFBNJA@c?3?2edk2?2MdePkg?2Library?2BaseLib?2D@ 00075f64     BaseLib:DivU64x32Remainder.obj
 0002:00016f98       ??_C@_0DE@NPKDKMCA@c?3?2edk2?2MdePkg?2Library?2BaseLib?2D@ 00075f98     BaseLib:DivU64x64Remainder.obj
 0002:00016fcc       ??_C@_0CO@FMFOGLOO@c?3?2edk2?2MdePkg?2Library?2UefiLib?2U@ 00075fcc     UefiLib:UefiLibPrint.obj
 0002:00016ffc       ??_C@_0CD@NJDNMGBE@?$CI?$CIUINTN?$CJ?5Format?5?$CG?50x00000001?$CJ?5?$DN?$DN@ 00075ffc     UefiLib:UefiLibPrint.obj
 0002:00017020       ??_C@_0BI@DIKLKBJC@Console?5?$CB?$DN?5?$CI?$CIvoid?5?$CK?$CJ?50?$CJ?$AA@ 00076020     UefiLib:UefiLibPrint.obj
 0002:00017038       ??_C@_0CG@GOJLHDBH@StrSize?$CIBufferToReturn?$CJ?$DN?$DNSizeReq@ 00076038     UefiLib:UefiLibPrint.obj
 0002:00017060       ??_C@_0CO@FMCOANKO@c?3?2edk2?2MdePkg?2Library?2UefiLib?2U@ 00076060     UefiLib:UefiNotTiano.obj
 0002:00017090       ??_C@_0CB@OKGFGBHJ@FvDevicePathNode?5?$CB?$DN?5?$CI?$CIvoid?5?$CK?$CJ?50?$CJ@ 00076090     UefiLib:UefiNotTiano.obj
 0002:000170b4       ??_C@_0BJ@OAAKNPEN@Pe32Data?5?$CB?$DN?5?$CI?$CIvoid?5?$CK?$CJ?50?$CJ?$AA@ 000760b4     BasePeCoffGetEntryPointLib:PeCoffGetEntryPoint.obj
 0002:000170d0       ??_C@_0EI@FDGJKGIK@c?3?2edk2?2MdePkg?2Library?2BasePeCof@ 000760d0     BasePeCoffGetEntryPointLib:PeCoffGetEntryPoint.obj
 0002:00017118       ??_C@_19JCAOHIEH@?$AAB?$AAo?$AAo?$AAt?$AA?$AA@ 00076118     UefiShellBcfgCommandLib:UefiShellBcfgCommandLib.obj
 0002:00017124       ??_C@_1O@GAOCKAOK@?$AAD?$AAr?$AAi?$AAv?$AAe?$AAr?$AA?$AA@ 00076124     UefiShellBcfgCommandLib:UefiShellBcfgCommandLib.obj
 0002:00017134       ??_C@_1O@CJIOJFKI@?$AA?$CF?$AAs?$AA?$CF?$AA0?$AA4?$AAx?$AA?$AA@ 00076134     UefiShellBcfgCommandLib:UefiShellBcfgCommandLib.obj
 0002:00017144       ??_C@_0BN@OAGJBDOI@OriginalData?5?$CB?$DN?5?$CI?$CIvoid?5?$CK?$CJ?50?$CJ?$AA@ 00076144     UefiShellBcfgCommandLib:UefiShellBcfgCommandLib.obj
 0002:00017168       ??_C@_0EL@BNNKFNMI@c?3?2edk2?2ShellPkg?2Library?2UefiShe@ 00076168     UefiShellBcfgCommandLib:UefiShellBcfgCommandLib.obj
 0002:000171b4       ??_C@_1BE@CJHCMCEN@?$AA?$CF?$AAB?$AAo?$AAo?$AAt?$AA?$CF?$AA0?$AA4?$AAx?$AA?$AA@ 000761b4     UefiShellBcfgCommandLib:UefiShellBcfgCommandLib.obj
 0002:000171c8       ??_C@_1BM@OGCIILMP@?$AAH?$AAa?$AAn?$AAd?$AAl?$AAe?$AA?5?$AAN?$AAu?$AAm?$AAb?$AAe?$AAr?$AA?$AA@ 000761c8     UefiShellBcfgCommandLib:UefiShellBcfgCommandLib.obj
 0002:000171e4       ??_C@_19OPFPMHGB@?$AAb?$AAc?$AAf?$AAg?$AA?$AA@ 000761e4     UefiShellBcfgCommandLib:UefiShellBcfgCommandLib.obj
 0002:000171f0       ??_C@_1EK@LKIONLFB@?$AAH?$AAa?$AAn?$AAd?$AAl?$AAe?$AA?5?$AAs?$AAh?$AAo?$AAu?$AAl?$AAd?$AA?5?$AAp?$AAo?$AAi?$AAn?$AAt?$AA?5?$AAt?$AAo?$AA?5?$AAd?$AAr?$AAi?$AAv?$AAe?$AAr?$AA?5?$AAi?$AAm@ 000761f0     UefiShellBcfgCommandLib:UefiShellBcfgCommandLib.obj
 0002:00017240       ??_C@_1EG@JKFBOBM@?$AAH?$AAa?$AAn?$AAd?$AAl?$AAe?$AA?5?$AAs?$AAh?$AAo?$AAu?$AAl?$AAd?$AA?5?$AAp?$AAo?$AAi?$AAn?$AAt?$AA?5?$AAt?$AAo?$AA?5?$AAc?$AAo?$AAn?$AAt?$AAr?$AAo?$AAl?$AAl?$AAe@ 00076240     UefiShellBcfgCommandLib:UefiShellBcfgCommandLib.obj
 0002:00017288       ??_C@_1BC@HAMKBGJJ@?$AAB?$AAo?$AAo?$AAt?$AA?$CF?$AA0?$AA4?$AAx?$AA?$AA@ 00076288     UefiShellBcfgCommandLib:UefiShellBcfgCommandLib.obj
 0002:0001729c       ??_C@_1BG@IKNMHBCC@?$AAD?$AAr?$AAi?$AAv?$AAe?$AAr?$AA?$CF?$AA0?$AA4?$AAx?$AA?$AA@ 0007629c     UefiShellBcfgCommandLib:UefiShellBcfgCommandLib.obj
 0002:000172b4       ??_C@_1BE@CHCFCNKI@?$AAB?$AAo?$AAo?$AAt?$AAO?$AAr?$AAd?$AAe?$AAr?$AA?$AA@ 000762b4     UefiShellBcfgCommandLib:UefiShellBcfgCommandLib.obj
 0002:000172c8       ??_C@_1BI@PDMCFEDG@?$AAD?$AAr?$AAi?$AAv?$AAe?$AAr?$AAO?$AAr?$AAd?$AAe?$AAr?$AA?$AA@ 000762c8     UefiShellBcfgCommandLib:UefiShellBcfgCommandLib.obj
 0002:000172e0       ??_C@_1CI@FLOHBJHM@?$AAb?$AAc?$AAf?$AAg?$AA?3?$AA?5?$AAA?$AAd?$AAd?$AA?5?$AA?$CF?$AAs?$AA?5?$AAa?$AAs?$AA?5?$AA?$CF?$AAx?$AA?6?$AA?$AA@ 000762e0     UefiShellBcfgCommandLib:UefiShellBcfgCommandLib.obj
 0002:00017308       ??_C@_1BK@NLJJBAJP@?$AAO?$AAp?$AAt?$AAi?$AAo?$AAn?$AA?5?$AAI?$AAn?$AAd?$AAe?$AAx?$AA?$AA@ 00076308     UefiShellBcfgCommandLib:UefiShellBcfgCommandLib.obj
 0002:00017324       ??_C@_0BG@HLEJBMDK@Temp2?5?$CB?$DN?5?$CI?$CIvoid?5?$CK?$CJ?50?$CJ?$AA@ 00076324     UefiShellBcfgCommandLib:UefiShellBcfgCommandLib.obj
 0002:0001733c       ??_C@_0BK@FIHHKA@OptionIndex?5?$DM?$DN?5OrderCount?$AA@ 0007633c     UefiShellBcfgCommandLib:UefiShellBcfgCommandLib.obj
 0002:00017358       ??_C@_1BA@MLKFGFON@?$AAK?$AAe?$AAy?$AA?$CF?$AA0?$AA4?$AAx?$AA?$AA@ 00076358     UefiShellBcfgCommandLib:UefiShellBcfgCommandLib.obj
 0002:00017368       ??_C@_19EAGCJHPE@?$AA?9?$AAo?$AAp?$AAt?$AA?$AA@ 00076368     UefiShellBcfgCommandLib:UefiShellBcfgCommandLib.obj
 0002:00017374       ??_C@_1O@KNIGNIDC@?$AAd?$AAr?$AAi?$AAv?$AAe?$AAr?$AA?$AA@ 00076374     UefiShellBcfgCommandLib:UefiShellBcfgCommandLib.obj
 0002:00017384       ??_C@_19NNFDHLJH@?$AAb?$AAo?$AAo?$AAt?$AA?$AA@ 00076384     UefiShellBcfgCommandLib:UefiShellBcfgCommandLib.obj
 0002:00017390       ??_C@_19PPJMBAGP@?$AAd?$AAu?$AAm?$AAp?$AA?$AA@ 00076390     UefiShellBcfgCommandLib:UefiShellBcfgCommandLib.obj
 0002:0001739c       ??_C@_1CE@HIJPIOH@?$AA?9?$AAv?$AA?5?$AA?$CI?$AAw?$AAi?$AAt?$AAh?$AAo?$AAu?$AAt?$AA?5?$AAd?$AAu?$AAm?$AAp?$AA?$CJ?$AA?$AA@ 0007639c     UefiShellBcfgCommandLib:UefiShellBcfgCommandLib.obj
 0002:000173c0       ??_C@_17KBLNKNKL@?$AAa?$AAd?$AAd?$AA?$AA@ 000763c0     UefiShellBcfgCommandLib:UefiShellBcfgCommandLib.obj
 0002:000173c8       ??_C@_0CK@FNHGLDIL@CurrentOperation?4FileName?5?$DN?$DN?5?$CI?$CIv@ 000763c8     UefiShellBcfgCommandLib:UefiShellBcfgCommandLib.obj
 0002:000173f4       ??_C@_0CN@KKKPOPMN@CurrentOperation?4Description?5?$DN?$DN?5@ 000763f4     UefiShellBcfgCommandLib:UefiShellBcfgCommandLib.obj
 0002:00017424       ??_C@_19IOKLLLFG@?$AAa?$AAd?$AAd?$AAp?$AA?$AA@ 00076424     UefiShellBcfgCommandLib:UefiShellBcfgCommandLib.obj
 0002:00017430       ??_C@_19BLAGMECG@?$AAa?$AAd?$AAd?$AAh?$AA?$AA@ 00076430     UefiShellBcfgCommandLib:UefiShellBcfgCommandLib.obj
 0002:0001743c       ??_C@_17JMNFEICH@?$AAm?$AAo?$AAd?$AA?$AA@ 0007643c     UefiShellBcfgCommandLib:UefiShellBcfgCommandLib.obj
 0002:00017444       ??_C@_19LMIPEPMN@?$AAm?$AAo?$AAd?$AAf?$AA?$AA@ 00076444     UefiShellBcfgCommandLib:UefiShellBcfgCommandLib.obj
 0002:00017450       ??_C@_19MJPNEHIO@?$AAm?$AAo?$AAd?$AAp?$AA?$AA@ 00076450     UefiShellBcfgCommandLib:UefiShellBcfgCommandLib.obj
 0002:0001745c       ??_C@_19FMFADIPO@?$AAm?$AAo?$AAd?$AAh?$AA?$AA@ 0007645c     UefiShellBcfgCommandLib:UefiShellBcfgCommandLib.obj
 0002:000174a8       ??_C@_0DC@FJDILION@c?3?2edk2?2MdePkg?2Library?2BaseIoLib@ 000764a8     BaseIoLibIntrinsic:IoLib.obj
 0002:000174dc       ??_C@_0BD@KOOFJLFH@?$CIAddress?5?$CG?51?$CJ?5?$DN?$DN?50?$AA@ 000764dc     BaseIoLibIntrinsic:IoLib.obj
 0002:000174f0       ??_C@_0BD@OMMAJMCK@?$CIAddress?5?$CG?53?$CJ?5?$DN?$DN?50?$AA@ 000764f0     BaseIoLibIntrinsic:IoLib.obj
 0002:00017504       ??_C@_0BD@GIIKJCNA@?$CIAddress?5?$CG?57?$CJ?5?$DN?$DN?50?$AA@ 00076504     BaseIoLibIntrinsic:IoLib.obj
 0002:00017518       ??_C@_0BA@DAGHIEBA@?$CIPort?5?$CG?51?$CJ?5?$DN?$DN?50?$AA@ 00076518     BaseIoLibIntrinsic:IoLibMsc.obj
 0002:00017528       ??_C@_0DF@BODEDOJB@c?3?2edk2?2MdePkg?2Library?2BaseIoLib@ 00076528     BaseIoLibIntrinsic:IoLibMsc.obj
 0002:00017560       ??_C@_0BA@HCECIDGN@?$CIPort?5?$CG?53?$CJ?5?$DN?$DN?50?$AA@ 00076560     BaseIoLibIntrinsic:IoLibMsc.obj
 0002:00017570       ??_C@_0DD@KHCJANAG@c?3?2edk2?2MdeModulePkg?2Library?2Dxe@ 00076570     DxeNetLib:DxeNetLib.obj
 0002:000175a4       ??_C@_0N@NMJPNKHJ@NetMask?5?$CB?$DN?50?$AA@ 000765a4     DxeNetLib:DxeNetLib.obj
 0002:000175b4       ??_C@_0BE@FCBOEPIJ@Ip6?5?$CB?$DN?5?$CI?$CIvoid?5?$CK?$CJ?50?$CJ?$AA@ 000765b4     DxeNetLib:DxeNetLib.obj
 0002:000175c8       ??_C@_0BN@NHNKBDLL@MediaPresent?5?$CB?$DN?5?$CI?$CIvoid?5?$CK?$CJ?50?$CJ?$AA@ 000765c8     DxeNetLib:DxeNetLib.obj
 0002:000175e8       ??_C@_0BM@CPKMECHF@MCastFilter?5?$CB?$DN?5?$CI?$CIvoid?5?$CK?$CJ?50?$CJ?$AA@ 000765e8     DxeNetLib:DxeNetLib.obj
 0002:00017610       _gIp4AllMasks              00076610     DxeNetLib:DxeNetLib.obj
 0002:00017694       ??_C@_1BA@IBFPPJON@?$AAS?$AAy?$AAs?$AAP?$AAr?$AAe?$AAp?$AA?$AA@ 00076694     UefiBootManagerLib:BmLoadOption.obj
 0002:000176a4       ??_C@_1CC@LGMJPJO@?$AAP?$AAl?$AAa?$AAt?$AAf?$AAo?$AAr?$AAm?$AAR?$AAe?$AAc?$AAo?$AAv?$AAe?$AAr?$AAy?$AA?$AA@ 000766a4     UefiBootManagerLib:BmLoadOption.obj
 0002:000176c8       ??_C@_0DP@PIAIALAC@c?3?2edk2?2MdeModulePkg?2Library?2Uef@ 000766c8     UefiBootManagerLib:BmLoadOption.obj
 0002:00017708       ??_C@_0BJ@DLOFCCCI@Variable?5?$CB?$DN?5?$CI?$CIvoid?5?$CK?$CJ?50?$CJ?$AA@ 00076708     UefiBootManagerLib:BmLoadOption.obj
 0002:00017724       ??_C@_0CM@MAOCOHA@String?5?$CB?$DN?5?$CI?$CIvoid?5?$CK?$CJ?50?$CJ?5?$CG?$CG?5MaxStr@ 00076724     UefiBootManagerLib:BmLoadOption.obj
 0002:00017750       _mBmLoadOptionName         00076750     UefiBootManagerLib:BmLoadOption.obj
 0003:00000000       _gEfiDns6ServiceBindingProtocolGuid 00077000     Shell:AutoGen.obj
 0003:00000010       _gEfiVTUTF8Guid            00077010     Shell:AutoGen.obj
 0003:00000020       _gEfiExtendedSalMpServicesProtocolGuid 00077020     Shell:AutoGen.obj
 0003:00000030       _gEfiSimplePointerProtocolGuid 00077030     Shell:AutoGen.obj
 0003:00000040       _gEfiResetArchProtocolGuid 00077040     Shell:AutoGen.obj
 0003:00000050       _gEfiS3SmmSaveStateProtocolGuid 00077050     Shell:AutoGen.obj
 0003:00000060       _gEfiConsoleInDeviceGuid   00077060     Shell:AutoGen.obj
 0003:00000070       _gEfiBootManagerPolicyProtocolGuid 00077070     Shell:AutoGen.obj
 0003:00000080       _gEfiDriverHealthProtocolGuid 00077080     Shell:AutoGen.obj
 0003:00000090       _gEfiIp4ConfigProtocolGuid 00077090     Shell:AutoGen.obj
 0003:000000a0       _gEfiFileInfoGuid          000770a0     Shell:AutoGen.obj
 0003:000000b0       _gEfiPciEnumerationCompleteProtocolGuid 000770b0     Shell:AutoGen.obj
 0003:000000c0       _gEfiDxeSmmReadyToLockProtocolGuid 000770c0     Shell:AutoGen.obj
 0003:000000d0       _gEfiHashProtocolGuid      000770d0     Shell:AutoGen.obj
 0003:000000e0       _gEfiIp4ProtocolGuid       000770e0     Shell:AutoGen.obj
 0003:000000f0       _gEfiPciPlatformProtocolGuid 000770f0     Shell:AutoGen.obj
 0003:00000100       _gEfiDns4ProtocolGuid      00077100     Shell:AutoGen.obj
 0003:00000110       _gShellAliasGuid           00077110     Shell:AutoGen.obj
 0003:00000120       _gEfiSerialIoProtocolGuid  00077120     Shell:AutoGen.obj
 0003:00000130       _gEfiDriverConfiguration2ProtocolGuid 00077130     Shell:AutoGen.obj
 0003:00000140       _gEfiPartitionInfoProtocolGuid 00077140     Shell:AutoGen.obj
 0003:00000150       _gEfiFirmwareVolumeBlockProtocolGuid 00077150     Shell:AutoGen.obj
 0003:00000160       _gEfiAdapterInformationProtocolGuid 00077160     Shell:AutoGen.obj
 0003:00000170       _gEfiAcpiSdtProtocolGuid   00077170     Shell:AutoGen.obj
 0003:00000180       _gEfiAdapterInfoSanMacAddressGuid 00077180     Shell:AutoGen.obj
 0003:00000190       _gEfiI2cMasterProtocolGuid 00077190     Shell:AutoGen.obj
 0003:000001a0       _gEfiResetNotificationProtocolGuid 000771a0     Shell:AutoGen.obj
 0003:000001b0       _gEfiPxeBaseCodeProtocolGuid 000771b0     Shell:AutoGen.obj
 0003:000001c0       _gEfiRealTimeClockArchProtocolGuid 000771c0     Shell:AutoGen.obj
 0003:000001d0       _gEfiLoadedImageDevicePathProtocolGuid 000771d0     Shell:AutoGen.obj
 0003:000001e0       _gEfiFirmwareVolumeBlock2ProtocolGuid 000771e0     Shell:AutoGen.obj
 0003:000001f0       _gEfiHiiFontProtocolGuid   000771f0     Shell:AutoGen.obj
 0003:00000200       _gEfiDebugMaskProtocolGuid 00077200     Shell:AutoGen.obj
 0003:00000210       _gEfiSmmEndOfDxeProtocolGuid 00077210     Shell:AutoGen.obj
 0003:00000220       _gEfiMmSwDispatchProtocolGuid 00077220     Shell:AutoGen.obj
 0003:00000230       _gEfiMmIoTrapDispatchProtocolGuid 00077230     Shell:AutoGen.obj
 0003:00000240       _gEfiHiiDatabaseProtocolGuid 00077240     Shell:AutoGen.obj
 0003:00000250       _gEfiSmmBase2ProtocolGuid  00077250     Shell:AutoGen.obj
 0003:00000260       _gEfiMmControlProtocolGuid 00077260     Shell:AutoGen.obj
 0003:00000270       _gEfiMmCpuIoProtocolGuid   00077270     Shell:AutoGen.obj
 0003:00000280       _gEfiBisProtocolGuid       00077280     Shell:AutoGen.obj
 0003:00000290       _gEfiHash2ServiceBindingProtocolGuid 00077290     Shell:AutoGen.obj
 0003:000002a0       _gEfiDeviceIoProtocolGuid  000772a0     Shell:AutoGen.obj
 0003:000002b0       _gEfiBluetoothAttributeServiceBindingProtocolGuid 000772b0     Shell:AutoGen.obj
 0003:000002c0       _gEfiDhcp6ProtocolGuid     000772c0     Shell:AutoGen.obj
 0003:000002d0       _gEfiShellProtocolGuid     000772d0     Shell:AutoGen.obj
 0003:000002e0       _gEfiSmbios3TableGuid      000772e0     Shell:AutoGen.obj
 0003:000002f0       _gEfiSmbiosProtocolGuid    000772f0     Shell:AutoGen.obj
 0003:00000300       _gEfiSmmSwDispatch2ProtocolGuid 00077300     Shell:AutoGen.obj
 0003:00000310       _gEfiMmBaseProtocolGuid    00077310     Shell:AutoGen.obj
 0003:00000320       _gEfiDevicePathFromTextProtocolGuid 00077320     Shell:AutoGen.obj
 0003:00000330       _gEfiHiiConfigRoutingProtocolGuid 00077330     Shell:AutoGen.obj
 0003:00000340       _gEfiEapProtocolGuid       00077340     Shell:AutoGen.obj
 0003:00000350       _gEfiUdp6ProtocolGuid      00077350     Shell:AutoGen.obj
 0003:00000360       _gEfiMmPciRootBridgeIoProtocolGuid 00077360     Shell:AutoGen.obj
 0003:00000370       _gEfiExtendedSalMcaLogServicesProtocolGuid 00077370     Shell:AutoGen.obj
 0003:00000380       _gEfiComponentName2ProtocolGuid 00077380     Shell:AutoGen.obj
 0003:00000390       _gEfiFormBrowser2ProtocolGuid 00077390     Shell:AutoGen.obj
 0003:000003a0       _gEfiHiiImageExProtocolGuid 000773a0     Shell:AutoGen.obj
 0003:000003b0       _gEfiGetPcdInfoProtocolGuid 000773b0     Shell:AutoGen.obj
 0003:000003c0       _gEfiNetworkInterfaceIdentifierProtocolGuid_31 000773c0     Shell:AutoGen.obj
 0003:000003d0       _gEfiGraphicsOutputProtocolGuid 000773d0     Shell:AutoGen.obj
 0003:000003e0       _gEfiExtendedSalPciServicesProtocolGuid 000773e0     Shell:AutoGen.obj
 0003:000003f0       _gEfiSmmControl2ProtocolGuid 000773f0     Shell:AutoGen.obj
 0003:00000400       _gEfiHobListGuid           00077400     Shell:AutoGen.obj
 0003:00000410       _gEfiSmmCommunicationProtocolGuid 00077410     Shell:AutoGen.obj
 0003:00000420       _gEfiManagedNetworkServiceBindingProtocolGuid 00077420     Shell:AutoGen.obj
 0003:00000430       _gEfiUfsDeviceConfigProtocolGuid 00077430     Shell:AutoGen.obj
 0003:00000440       _gEfiExtendedSalBootServiceProtocolGuid 00077440     Shell:AutoGen.obj
 0003:00000450       _gEfiSioProtocolGuid       00077450     Shell:AutoGen.obj
 0003:00000460       _gEfiMmEndOfDxeProtocolGuid 00077460     Shell:AutoGen.obj
 0003:00000470       _gShellLevel3HiiGuid       00077470     Shell:AutoGen.obj
 0003:00000480       _gEfiHiiImageProtocolGuid  00077480     Shell:AutoGen.obj
 0003:00000490       _gEfiShellEnvironment2ExtGuid 00077490     Shell:AutoGen.obj
 0003:000004a0       _gEfiExtendedSalVariableServicesProtocolGuid 000774a0     Shell:AutoGen.obj
 0003:000004b0       _gEfiBluetoothIoServiceBindingProtocolGuid 000774b0     Shell:AutoGen.obj
 0003:000004c0       _gEfiNetworkInterfaceIdentifierProtocolGuid 000774c0     Shell:AutoGen.obj
 0003:000004d0       _gEfiHiiPackageListProtocolGuid 000774d0     Shell:AutoGen.obj
 0003:000004e0       _gEfiSmmSxDispatch2ProtocolGuid 000774e0     Shell:AutoGen.obj
 0003:000004f0       _gEfiBusSpecificDriverOverrideProtocolGuid 000774f0     Shell:AutoGen.obj
 0003:00000500       _gEfiNvmExpressPassThruProtocolGuid 00077500     Shell:AutoGen.obj
 0003:00000510       _gEfiTcg2ProtocolGuid      00077510     Shell:AutoGen.obj
 0003:00000520       _gEfiBluetoothHcProtocolGuid 00077520     Shell:AutoGen.obj
 0003:00000530       _gEfiDecompressProtocolGuid 00077530     Shell:AutoGen.obj
 0003:00000540       _gEfiMmRscHandlerProtocolGuid 00077540     Shell:AutoGen.obj
 0003:00000550       _gEfiCpuIo2ProtocolGuid    00077550     Shell:AutoGen.obj
 0003:00000560       _gEfiDriverDiagnostics2ProtocolGuid 00077560     Shell:AutoGen.obj
 0003:00000570       _gEfiDiskIoProtocolGuid    00077570     Shell:AutoGen.obj
 0003:00000580       _gEfiWiFi2ProtocolGuid     00077580     Shell:AutoGen.obj
 0003:00000590       _gShellDriver1HiiGuid      00077590     Shell:AutoGen.obj
 0003:000005a0       _gEfiSmbusHcProtocolGuid   000775a0     Shell:AutoGen.obj
 0003:000005b0       _gEfiMmReadyToLockProtocolGuid 000775b0     Shell:AutoGen.obj
 0003:000005c0       _gEfiSmmConfigurationProtocolGuid 000775c0     Shell:AutoGen.obj
 0003:000005d0       _gEfiIsaHcServiceBindingProtocolGuid 000775d0     Shell:AutoGen.obj
 0003:000005e0       _gEfiHttpUtilitiesProtocolGuid 000775e0     Shell:AutoGen.obj
 0003:000005f0       _gEfiStorageSecurityCommandProtocolGuid 000775f0     Shell:AutoGen.obj
 0003:00000600       _gEfiSmmCpuProtocolGuid    00077600     Shell:AutoGen.obj
 0003:00000610       _gEfiPciOverrideProtocolGuid 00077610     Shell:AutoGen.obj
 0003:00000620       _gEfiTcp6ServiceBindingProtocolGuid 00077620     Shell:AutoGen.obj
 0003:00000630       _gEfiLoadFile2ProtocolGuid 00077630     Shell:AutoGen.obj
 0003:00000640       _gEfiRamDiskProtocolGuid   00077640     Shell:AutoGen.obj
 0003:00000650       _gEfiDriverDiagnosticsProtocolGuid 00077650     Shell:AutoGen.obj
 0003:00000660       _gEfiTcp4ServiceBindingProtocolGuid 00077660     Shell:AutoGen.obj
 0003:00000670       _gEfiS3SaveStateProtocolGuid 00077670     Shell:AutoGen.obj
 0003:00000680       _gEfiBluetoothConfigProtocolGuid 00077680     Shell:AutoGen.obj
 0003:00000690       _gEfiBluetoothAttributeProtocolGuid 00077690     Shell:AutoGen.obj
 0003:000006a0       _gEfiBlockIoProtocolGuid   000776a0     Shell:AutoGen.obj
 0003:000006b0       _gEfiEapConfigurationProtocolGuid 000776b0     Shell:AutoGen.obj
 0003:000006c0       _gEfiDevicePathProtocolGuid 000776c0     Shell:AutoGen.obj
 0003:000006d0       _gEfiDebugSupportProtocolGuid 000776d0     Shell:AutoGen.obj
 0003:000006e0       _gEfiDevicePathUtilitiesProtocolGuid 000776e0     Shell:AutoGen.obj
 0003:000006f0       _gEfiDxeServicesTableGuid  000776f0     Shell:AutoGen.obj
 0003:00000700       _gEfiUsbIoProtocolGuid     00077700     Shell:AutoGen.obj
 0003:00000710       _gEfiSmmUsbDispatch2ProtocolGuid 00077710     Shell:AutoGen.obj
 0003:00000720       _gEfiConfigKeywordHandlerProtocolGuid 00077720     Shell:AutoGen.obj
 0003:00000730       _gEfiPciIoProtocolGuid     00077730     Shell:AutoGen.obj
 0003:00000740       _gEfiWiFiProtocolGuid      00077740     Shell:AutoGen.obj
 0003:00000750       _gEfiVlanConfigProtocolGuid 00077750     Shell:AutoGen.obj
 0003:00000760       _gEfiRuntimeArchProtocolGuid 00077760     Shell:AutoGen.obj
 0003:00000770       _gEfiTcp6ProtocolGuid      00077770     Shell:AutoGen.obj
 0003:00000780       _gEfiDriverSupportedEfiVersionProtocolGuid 00077780     Shell:AutoGen.obj
 0003:00000790       _gEfiUsb2HcProtocolGuid    00077790     Shell:AutoGen.obj
 0003:000007a0       _gShellNetwork2HiiGuid     000777a0     Shell:AutoGen.obj
 0003:000007b0       _gEfiPciHotPlugRequestProtocolGuid 000777b0     Shell:AutoGen.obj
 0003:000007c0       _gEfiEapManagementProtocolGuid 000777c0     Shell:AutoGen.obj
 0003:000007d0       _gEfiSmmPowerButtonDispatch2ProtocolGuid 000777d0     Shell:AutoGen.obj
 0003:000007e0       _gEfiScsiPassThruProtocolGuid 000777e0     Shell:AutoGen.obj
 0003:000007f0       _gEfiSmmReadyToLockProtocolGuid 000777f0     Shell:AutoGen.obj
 0003:00000800       _gEfiAtaPassThruProtocolGuid 00077800     Shell:AutoGen.obj
 0003:00000810       _gEfiDhcp4ServiceBindingProtocolGuid 00077810     Shell:AutoGen.obj
 0003:00000820       _gEfiDriverConfigurationProtocolGuid 00077820     Shell:AutoGen.obj
 0003:00000830       _gShellBcfgHiiGuid         00077830     Shell:AutoGen.obj
 0003:00000840       _gEfiHttpServiceBindingProtocolGuid 00077840     Shell:AutoGen.obj
 0003:00000850       _gEfiUdp4ServiceBindingProtocolGuid 00077850     Shell:AutoGen.obj
 0003:00000860       _gEfiSimpleFileSystemProtocolGuid 00077860     Shell:AutoGen.obj
 0003:00000870       _gEfiI2cHostProtocolGuid   00077870     Shell:AutoGen.obj
 0003:00000880       _gEfiPcdProtocolGuid       00077880     Shell:AutoGen.obj
 0003:00000890       _gEfiSupplicantServiceBindingProtocolGuid 00077890     Shell:AutoGen.obj
 0003:000008a0       _gEfiIp6ConfigProtocolGuid 000778a0     Shell:AutoGen.obj
 0003:000008b0       _gHandleParsingHiiGuid     000778b0     Shell:AutoGen.obj
 0003:000008c0       _gEfiSmmPeriodicTimerDispatch2ProtocolGuid 000778c0     Shell:AutoGen.obj
 0003:000008d0       _gEfiPciHotPlugInitProtocolGuid 000778d0     Shell:AutoGen.obj
 0003:000008e0       _gEfiMmGpiDispatchProtocolGuid 000778e0     Shell:AutoGen.obj
 0003:000008f0       _gEfiSmmPciRootBridgeIoProtocolGuid 000778f0     Shell:AutoGen.obj
 0003:00000900       _gEfiIsaHcProtocolGuid     00077900     Shell:AutoGen.obj
 0003:00000910       _gEfiUnicodeCollationProtocolGuid 00077910     Shell:AutoGen.obj
 0003:00000920       _gEfiPartTypeLegacyMbrGuid 00077920     Shell:AutoGen.obj
 0003:00000930       _gEfiFirmwareVolume2ProtocolGuid 00077930     Shell:AutoGen.obj
 0003:00000940       _gEfiMmCommunicationProtocolGuid 00077940     Shell:AutoGen.obj
 0003:00000950       _gEfiExtendedSalStallServicesProtocolGuid 00077950     Shell:AutoGen.obj
 0003:00000960       _gEfiMmPowerButtonDispatchProtocolGuid 00077960     Shell:AutoGen.obj
 0003:00000970       _gEfiAdapterInfoUndiIpv6SupportGuid 00077970     Shell:AutoGen.obj
 0003:00000980       _gEfiIp6ServiceBindingProtocolGuid 00077980     Shell:AutoGen.obj
 0003:00000990       _gEfiHiiStringProtocolGuid 00077990     Shell:AutoGen.obj
 0003:000009a0       _gEfiUserManagerProtocolGuid 000779a0     Shell:AutoGen.obj
 0003:000009b0       _gEfiFtp4ServiceBindingProtocolGuid 000779b0     Shell:AutoGen.obj
 0003:000009c0       _gEfiHiiPopupProtocolGuid  000779c0     Shell:AutoGen.obj
 0003:000009d0       _gEfiArpServiceBindingProtocolGuid 000779d0     Shell:AutoGen.obj
 0003:000009e0       _gEfiDhcp4ProtocolGuid     000779e0     Shell:AutoGen.obj
 0003:000009f0       _gEfiRestProtocolGuid      000779f0     Shell:AutoGen.obj
 0003:00000a00       _gEfiMtftp4ProtocolGuid    00077a00     Shell:AutoGen.obj
 0003:00000a10       _gEfiDebugPortProtocolGuid 00077a10     Shell:AutoGen.obj
 0003:00000a20       _gEfiAdapterInfoNetworkBootGuid 00077a20     Shell:AutoGen.obj
 0003:00000a30       _gEfiCpuArchProtocolGuid   00077a30     Shell:AutoGen.obj
 0003:00000a40       _gEfiDns6ProtocolGuid      00077a40     Shell:AutoGen.obj
 0003:00000a50       _gEfiUserCredentialProtocolGuid 00077a50     Shell:AutoGen.obj
 0003:00000a60       _gEdkiiVariableLockProtocolGuid 00077a60     Shell:AutoGen.obj
 0003:00000a70       _gEfiTcgProtocolGuid       00077a70     Shell:AutoGen.obj
 0003:00000a80       _gEfiSmbiosTableGuid       00077a80     Shell:AutoGen.obj
 0003:00000a90       _gEfiSmartCardReaderProtocolGuid 00077a90     Shell:AutoGen.obj
 0003:00000aa0       _gEfiBluetoothIoProtocolGuid 00077aa0     Shell:AutoGen.obj
 0003:00000ab0       _gEfiMtftp6ServiceBindingProtocolGuid 00077ab0     Shell:AutoGen.obj
 0003:00000ac0       _gEfiPciHostBridgeResourceAllocationProtocolGuid 00077ac0     Shell:AutoGen.obj
 0003:00000ad0       _gEfiRngProtocolGuid       00077ad0     Shell:AutoGen.obj
 0003:00000ae0       _gEfiSimpleTextInputExProtocolGuid 00077ae0     Shell:AutoGen.obj
 0003:00000af0       _gEfiPlatformToDriverConfigurationProtocolGuid 00077af0     Shell:AutoGen.obj
 0003:00000b00       _gEfiGenericVariableGuid   00077b00     Shell:AutoGen.obj
 0003:00000b10       _gEfiRscHandlerProtocolGuid 00077b10     Shell:AutoGen.obj
 0003:00000b20       _gEfiDns4ServiceBindingProtocolGuid 00077b20     Shell:AutoGen.obj
 0003:00000b30       _gEfiWatchdogTimerArchProtocolGuid 00077b30     Shell:AutoGen.obj
 0003:00000b40       _gEfiExtendedSalCacheServicesProtocolGuid 00077b40     Shell:AutoGen.obj
 0003:00000b50       _gEfiHttpBootCallbackProtocolGuid 00077b50     Shell:AutoGen.obj
 0003:00000b60       _gEfiSmmAccess2ProtocolGuid 00077b60     Shell:AutoGen.obj
 0003:00000b70       _gEfiHash2ProtocolGuid     00077b70     Shell:AutoGen.obj
 0003:00000b80       _gEfiUserCredential2ProtocolGuid 00077b80     Shell:AutoGen.obj
 0003:00000b90       _gEfiExtendedSalBaseIoServicesProtocolGuid 00077b90     Shell:AutoGen.obj
 0003:00000ba0       _gEfiSimpleNetworkProtocolGuid 00077ba0     Shell:AutoGen.obj
 0003:00000bb0       _gEfiMmUsbDispatchProtocolGuid 00077bb0     Shell:AutoGen.obj
 0003:00000bc0       _gEfiUdp4ProtocolGuid      00077bc0     Shell:AutoGen.obj
 0003:00000bd0       _gEfiExtScsiPassThruProtocolGuid 00077bd0     Shell:AutoGen.obj
 0003:00000be0       _gShellNetwork1HiiGuid     00077be0     Shell:AutoGen.obj
 0003:00000bf0       _gEfiDxeMmReadyToLockProtocolGuid 00077bf0     Shell:AutoGen.obj
 0003:00000c00       _gEfiPlatformDriverOverrideProtocolGuid 00077c00     Shell:AutoGen.obj
 0003:00000c10       _gEfiEdidActiveProtocolGuid 00077c10     Shell:AutoGen.obj
 0003:00000c20       _gEfiCallerIdGuid          00077c20     Shell:AutoGen.obj
 0003:00000c30       _gEfiUnicodeCollation2ProtocolGuid 00077c30     Shell:AutoGen.obj
 0003:00000c40       _gEfiDriverFamilyOverrideProtocolGuid 00077c40     Shell:AutoGen.obj
 0003:00000c50       _gEfiDevicePathToTextProtocolGuid 00077c50     Shell:AutoGen.obj
 0003:00000c60       _gEfiMmAccessProtocolGuid  00077c60     Shell:AutoGen.obj
 0003:00000c70       _gEfiVT100Guid             00077c70     Shell:AutoGen.obj
 0003:00000c80       _gEfiLoadedImageProtocolGuid 00077c80     Shell:AutoGen.obj
 0003:00000c90       _gEfiMmConfigurationProtocolGuid 00077c90     Shell:AutoGen.obj
 0003:00000ca0       _gEfiBlockIo2ProtocolGuid  00077ca0     Shell:AutoGen.obj
 0003:00000cb0       _gEfiSmmIoTrapDispatch2ProtocolGuid 00077cb0     Shell:AutoGen.obj
 0003:00000cc0       _gEfiAcpi10TableGuid       00077cc0     Shell:AutoGen.obj
 0003:00000cd0       _gEfiTrEEProtocolGuid      00077cd0     Shell:AutoGen.obj
 0003:00000ce0       _gEfiFileSystemInfoGuid    00077ce0     Shell:AutoGen.obj
 0003:00000cf0       _gEfiMpServiceProtocolGuid 00077cf0     Shell:AutoGen.obj
 0003:00000d00       _gEfiSecurityPolicyProtocolGuid 00077d00     Shell:AutoGen.obj
 0003:00000d10       _gEfiSmartCardEdgeProtocolGuid 00077d10     Shell:AutoGen.obj
 0003:00000d20       _gEfiExtendedSalMtcServicesProtocolGuid 00077d20     Shell:AutoGen.obj
 0003:00000d30       _gEfiDiskIo2ProtocolGuid   00077d30     Shell:AutoGen.obj
 0003:00000d40       _gEfiSdMmcPassThruProtocolGuid 00077d40     Shell:AutoGen.obj
 0003:00000d50       _gEfiScsiIoProtocolGuid    00077d50     Shell:AutoGen.obj
 0003:00000d60       _gEfiSecurityArchProtocolGuid 00077d60     Shell:AutoGen.obj
 0003:00000d70       _gEfiVariableArchProtocolGuid 00077d70     Shell:AutoGen.obj
 0003:00000d80       _gEfiVT100PlusGuid         00077d80     Shell:AutoGen.obj
 0003:00000d90       _gEfiFirmwareManagementProtocolGuid 00077d90     Shell:AutoGen.obj
 0003:00000da0       _gEfiIdeControllerInitProtocolGuid 00077da0     Shell:AutoGen.obj
 0003:00000db0       _gEfiIncompatiblePciDeviceSupportProtocolGuid 00077db0     Shell:AutoGen.obj
 0003:00000dc0       _gEfiSalSystemTableGuid    00077dc0     Shell:AutoGen.obj
 0003:00000dd0       _gEfiExtendedSalFvBlockServicesProtocolGuid 00077dd0     Shell:AutoGen.obj
 0003:00000de0       _gEfiBdsArchProtocolGuid   00077de0     Shell:AutoGen.obj
 0003:00000df0       _gEfiDiskInfoProtocolGuid  00077df0     Shell:AutoGen.obj
 0003:00000e00       _gEfiVariableWriteArchProtocolGuid 00077e00     Shell:AutoGen.obj
 0003:00000e10       _gEfiUgaIoProtocolGuid     00077e10     Shell:AutoGen.obj
 0003:00000e20       _gEfiDhcp6ServiceBindingProtocolGuid 00077e20     Shell:AutoGen.obj
 0003:00000e30       _gEfiBluetoothLeConfigProtocolGuid 00077e30     Shell:AutoGen.obj
 0003:00000e40       _gEfiKmsProtocolGuid       00077e40     Shell:AutoGen.obj
 0003:00000e50       _gEfiPcAnsiGuid            00077e50     Shell:AutoGen.obj
 0003:00000e60       _gEfiTcp4ProtocolGuid      00077e60     Shell:AutoGen.obj
 0003:00000e70       _gEfiSioControlProtocolGuid 00077e70     Shell:AutoGen.obj
 0003:00000e80       _gEfiMmSxDispatchProtocolGuid 00077e80     Shell:AutoGen.obj
 0003:00000e90       _gEfiEraseBlockProtocolGuid 00077e90     Shell:AutoGen.obj
 0003:00000ea0       _gEfiTlsProtocolGuid       00077ea0     Shell:AutoGen.obj
 0003:00000eb0       _gEfiStatusCodeDataTypeDebugGuid 00077eb0     Shell:AutoGen.obj
 0003:00000ec0       _gEfiAdapterInfoMediaStateGuid 00077ec0     Shell:AutoGen.obj
 0003:00000ed0       _gEfiMmCpuProtocolGuid     00077ed0     Shell:AutoGen.obj
 0003:00000ee0       _gEfiTlsConfigurationProtocolGuid 00077ee0     Shell:AutoGen.obj
 0003:00000ef0       _gEfiStandardErrorDeviceGuid 00077ef0     Shell:AutoGen.obj
 0003:00000f00       _gEfiSimpleTextInProtocolGuid 00077f00     Shell:AutoGen.obj
 0003:00000f10       _gGetPcdInfoProtocolGuid   00077f10     Shell:AutoGen.obj
 0003:00000f20       _gShellLevel2HiiGuid       00077f20     Shell:AutoGen.obj
 0003:00000f30       _gEfiBlockIoCryptoProtocolGuid 00077f30     Shell:AutoGen.obj
 0003:00000f40       _gShellDebug1HiiGuid       00077f40     Shell:AutoGen.obj
 0003:00000f50       _gEfiFtp4ProtocolGuid      00077f50     Shell:AutoGen.obj
 0003:00000f60       _gEfiMonotonicCounterArchProtocolGuid 00077f60     Shell:AutoGen.obj
 0003:00000f70       _gEfiUsbFunctionIoProtocolGuid 00077f70     Shell:AutoGen.obj
 0003:00000f80       _gEfiDriverBindingProtocolGuid 00077f80     Shell:AutoGen.obj
 0003:00000f90       _gEfiMpsTableGuid          00077f90     Shell:AutoGen.obj
 0003:00000fa0       _gEfiConsoleOutDeviceGuid  00077fa0     Shell:AutoGen.obj
 0003:00000fb0       _gEfiShellDynamicCommandProtocolGuid 00077fb0     Shell:AutoGen.obj
 0003:00000fc0       _gEfiIp4ServiceBindingProtocolGuid 00077fc0     Shell:AutoGen.obj
 0003:00000fd0       _gEfiExtendedSalBaseServicesProtocolGuid 00077fd0     Shell:AutoGen.obj
 0003:00000fe0       _gEfiHashServiceBindingProtocolGuid 00077fe0     Shell:AutoGen.obj
 0003:00000ff0       _gEfiAbsolutePointerProtocolGuid 00077ff0     Shell:AutoGen.obj
 0003:00001000       _gEfiArpProtocolGuid       00078000     Shell:AutoGen.obj
 0003:00001010       _gEfiManagedNetworkProtocolGuid 00078010     Shell:AutoGen.obj
 0003:00001020       _gEfiUsbHcProtocolGuid     00078020     Shell:AutoGen.obj
 0003:00001030       _gEfiSimpleTextOutProtocolGuid 00078030     Shell:AutoGen.obj
 0003:00001040       _gEfiI2cIoProtocolGuid     00078040     Shell:AutoGen.obj
 0003:00001050       _gEfiPciRootBridgeIoProtocolGuid 00078050     Shell:AutoGen.obj
 0003:00001060       _gEfiSupplicantProtocolGuid 00078060     Shell:AutoGen.obj
 0003:00001070       _gEfiPkcs7VerifyProtocolGuid 00078070     Shell:AutoGen.obj
 0003:00001080       _gEfiSmmStatusCodeProtocolGuid 00078080     Shell:AutoGen.obj
 0003:00001090       _gEfiExtendedSalPalServicesProtocolGuid 00078090     Shell:AutoGen.obj
 0003:000010a0       _gEfiSecurity2ArchProtocolGuid 000780a0     Shell:AutoGen.obj
 0003:000010b0       _gShellVariableGuid        000780b0     Shell:AutoGen.obj
 0003:000010c0       _gEfiSmmGpiDispatch2ProtocolGuid 000780c0     Shell:AutoGen.obj
 0003:000010d0       _gEfiTlsServiceBindingProtocolGuid 000780d0     Shell:AutoGen.obj
 0003:000010e0       _gEfiMmStatusCodeProtocolGuid 000780e0     Shell:AutoGen.obj
 0003:000010f0       _gEfiStatusCodeSpecificDataGuid 000780f0     Shell:AutoGen.obj
 0003:00001100       _ShellStrings              00078100     Shell:AutoGen.obj
 0003:000016b8       _gEfiEbcProtocolGuid       000786b8     Shell:AutoGen.obj
 0003:000016c8       _gEfiComponentNameProtocolGuid 000786c8     Shell:AutoGen.obj
 0003:000016d8       _gEfiSmmRscHandlerProtocolGuid 000786d8     Shell:AutoGen.obj
 0003:000016e8       _gEfiAcpi20TableGuid       000786e8     Shell:AutoGen.obj
 0003:000016f8       _gEfiSmmStandbyButtonDispatch2ProtocolGuid 000786f8     Shell:AutoGen.obj
 0003:00001708       _gEfiCapsuleArchProtocolGuid 00078708     Shell:AutoGen.obj
 0003:00001718       _gEfiPartTypeSystemPartGuid 00078718     Shell:AutoGen.obj
 0003:00001728       _gEfiPrint2SProtocolGuid   00078728     Shell:AutoGen.obj
 0003:00001738       _gEfiShellEnvironment2Guid 00078738     Shell:AutoGen.obj
 0003:00001748       _gEfiIpSec2ProtocolGuid    00078748     Shell:AutoGen.obj
 0003:00001758       _gEfiRegularExpressionProtocolGuid 00078758     Shell:AutoGen.obj
 0003:00001768       _gEfiMtftp4ServiceBindingProtocolGuid 00078768     Shell:AutoGen.obj
 0003:00001778       _gEfiHttpProtocolGuid      00078778     Shell:AutoGen.obj
 0003:00001788       _gEfiSasDevicePathGuid     00078788     Shell:AutoGen.obj
 0003:00001798       _gEfiMetronomeArchProtocolGuid 00078798     Shell:AutoGen.obj
 0003:000017a8       _gEfiEdidDiscoveredProtocolGuid 000787a8     Shell:AutoGen.obj
 0003:000017b8       _gEfiIpSecConfigProtocolGuid 000787b8     Shell:AutoGen.obj
 0003:000017c8       _gEfiTimestampProtocolGuid 000787c8     Shell:AutoGen.obj
 0003:000017d8       _gEfiI2cBusConfigurationManagementProtocolGuid 000787d8     Shell:AutoGen.obj
 0003:000017e8       _gEfiPxeBaseCodeCallbackProtocolGuid 000787e8     Shell:AutoGen.obj
 0003:000017f8       _gEfiIp6ProtocolGuid       000787f8     Shell:AutoGen.obj
 0003:00001808       _gEfiAuthenticationInfoProtocolGuid 00078808     Shell:AutoGen.obj
 0003:00001818       _gEfiHiiImageDecoderProtocolGuid 00078818     Shell:AutoGen.obj
 0003:00001828       _gEfiHiiConfigAccessProtocolGuid 00078828     Shell:AutoGen.obj
 0003:00001838       _gEfiAcpiTableProtocolGuid 00078838     Shell:AutoGen.obj
 0003:00001848       _gEfiShellParametersProtocolGuid 00078848     Shell:AutoGen.obj
 0003:00001858       _gEfiMtftp6ProtocolGuid    00078858     Shell:AutoGen.obj
 0003:00001868       _gEfiShellInterfaceGuid    00078868     Shell:AutoGen.obj
 0003:00001878       _gEfiIpSecProtocolGuid     00078878     Shell:AutoGen.obj
 0003:00001888       _gEfiGlobalVariableGuid    00078888     Shell:AutoGen.obj
 0003:00001898       _gShellLevel1HiiGuid       00078898     Shell:AutoGen.obj
 0003:000018a8       _gEfiEdidOverrideProtocolGuid 000788a8     Shell:AutoGen.obj
 0003:000018b8       _gEfiSalMcaInitPmiProtocolGuid 000788b8     Shell:AutoGen.obj
 0003:000018c8       _gEfiStatusCodeRuntimeProtocolGuid 000788c8     Shell:AutoGen.obj
 0003:000018d8       _gPcdProtocolGuid          000788d8     Shell:AutoGen.obj
 0003:000018e8       _gEfiExtendedSalStatusCodeServicesProtocolGuid 000788e8     Shell:AutoGen.obj
 0003:000018f8       _gEfiExtendedSalMcaServicesProtocolGuid 000788f8     Shell:AutoGen.obj
 0003:00001908       _gEfiUdp6ServiceBindingProtocolGuid 00078908     Shell:AutoGen.obj
 0003:00001918       _gEfiExtendedSalRtcServicesProtocolGuid 00078918     Shell:AutoGen.obj
 0003:00001928       _gEfiI2cEnumerateProtocolGuid 00078928     Shell:AutoGen.obj
 0003:00001938       _gEfiMmStandbyButtonDispatchProtocolGuid 00078938     Shell:AutoGen.obj
 0003:00001948       _gEfiIScsiInitiatorNameProtocolGuid 00078948     Shell:AutoGen.obj
 0003:00001958       _gEfiMmPeriodicTimerDispatchProtocolGuid 00078958     Shell:AutoGen.obj
 0003:00001968       _gEfiDeferredImageLoadProtocolGuid 00078968     Shell:AutoGen.obj
 0003:00001978       _gEfiSmmCpuIo2ProtocolGuid 00078978     Shell:AutoGen.obj
 0003:00001988       _gEfiLoadFileProtocolGuid  00078988     Shell:AutoGen.obj
 0003:00001998       _gEfiTapeIoProtocolGuid    00078998     Shell:AutoGen.obj
 0003:000019a8       _gEfiEapManagement2ProtocolGuid 000789a8     Shell:AutoGen.obj
 0003:000019b8       _gEfiTimerArchProtocolGuid 000789b8     Shell:AutoGen.obj
 0003:000019c8       _gEfiIp4Config2ProtocolGuid 000789c8     Shell:AutoGen.obj
 0003:000019d8       _gEfiUgaDrawProtocolGuid   000789d8     Shell:AutoGen.obj
 0003:000019e8       _gEfiLegacyRegion2ProtocolGuid 000789e8     Shell:AutoGen.obj
 0003:000019f8       _gEfiExtendedSalResetServicesProtocolGuid 000789f8     Shell:AutoGen.obj
 0003:00001a08       _ShellInfoObject           00078a08     Shell:Shell.obj
 0003:00001aa8       _mShellProtocol            00078aa8     Shell:ShellProtocol.obj
 0003:00001b60       _FileInterfaceNulFile      00078b60     Shell:FileHandleWrappers.obj
 0003:00001ba0       _FileInterfaceStdOut       00078ba0     Shell:FileHandleWrappers.obj
 0003:00001be0       _FileInterfaceStdIn        00078be0     Shell:FileHandleWrappers.obj
 0003:00001c20       _FileInterfaceStdErr       00078c20     Shell:FileHandleWrappers.obj
 0003:00001c60       _mShellManHiiDevicePath    00078c60     Shell:ShellManParser.obj
 0003:00001c78       _mDebugMaskProtocol        00078c78     DxeDebugPrintErrorLevelLib:DxeDebugPrintErrorLevelLib.obj
 0003:00001c88       _EmptyParamList            00078c88     UefiShellLib:UefiShellLib.obj
 0003:00001c90       _SfoParamList              00078c90     UefiShellLib:UefiShellLib.obj
 0003:00001ca0       _UefiHandleParsingLibStrings 00078ca0     UefiHandleParsingLib:AutoGen.obj
 0003:000065d0       _mMTDName                  0007d5d0     UefiShellCommandLib:ConsistMapping.obj
 0003:00006600       _DevPathConsistMappingTable 0007d600     UefiShellCommandLib:ConsistMapping.obj
 0003:00006700       _UefiShellLevel2CommandsLibStrings 0007d700     UefiShellLevel2CommandsLib:AutoGen.obj
 0003:00019ff8       _mDayOfMonth               00090ff8     UefiShellLevel2CommandsLib:Ls.obj
 0003:0001a028       _UefiShellLevel1CommandsLibStrings 00091028     UefiShellLevel1CommandsLib:AutoGen.obj
 0003:00022690       _UefiShellLevel3CommandsLibStrings 00099690     UefiShellLevel3CommandsLib:AutoGen.obj
 0003:0002aa48       _UefiShellDriver1CommandsLibStrings 000a1a48     UefiShellDriver1CommandsLib:AutoGen.obj
 0003:00037544       _PCIPIFClass_0803          000ae544     UefiShellDebug1CommandsLib:Pci.obj
 0003:00037578       _PCISubClass_06            000ae578     UefiShellDebug1CommandsLib:Pci.obj
 0003:00037620       _PCISubClass_01            000ae620     UefiShellDebug1CommandsLib:Pci.obj
 0003:000376b0       _PCISubClass_0a            000ae6b0     UefiShellDebug1CommandsLib:Pci.obj
 0003:000376d4       _PCIPIFClass_0109          000ae6d4     UefiShellDebug1CommandsLib:Pci.obj
 0003:000376f8       _PCISubClass_03            000ae6f8     UefiShellDebug1CommandsLib:Pci.obj
 0003:00037738       _PCISubClass_0f            000ae738     UefiShellDebug1CommandsLib:Pci.obj
 0003:00037780       _PCISubClass_10            000ae780     UefiShellDebug1CommandsLib:Pci.obj
 0003:000377b0       _PCIPIFClass_0c07          000ae7b0     UefiShellDebug1CommandsLib:Pci.obj
 0003:000377e0       _PCISubClass_0c            000ae7e0     UefiShellDebug1CommandsLib:Pci.obj
 0003:00037870       _PCIPIFClass_0701          000ae870     UefiShellDebug1CommandsLib:Pci.obj
 0003:000378b8       _PCIPIFClass_0106          000ae8b8     UefiShellDebug1CommandsLib:Pci.obj
 0003:000378e8       _PCIPIFClass_0100          000ae8e8     UefiShellDebug1CommandsLib:Pci.obj
 0003:00037930       _PCIPIFClass_0604          000ae930     UefiShellDebug1CommandsLib:Pci.obj
 0003:00037954       _PCISubClass_00            000ae954     UefiShellDebug1CommandsLib:Pci.obj
 0003:00037978       _PCIPIFClass_0703          000ae978     UefiShellDebug1CommandsLib:Pci.obj
 0003:000379c0       _PCIPIFClass_0700          000ae9c0     UefiShellDebug1CommandsLib:Pci.obj
 0003:00037a20       _PCIPIFClass_0300          000aea20     UefiShellDebug1CommandsLib:Pci.obj
 0003:00037a44       _PCIPIFClass_0c00          000aea44     UefiShellDebug1CommandsLib:Pci.obj
 0003:00037a68       _PCIPIFClass_060b          000aea68     UefiShellDebug1CommandsLib:Pci.obj
 0003:00037a8c       _PCIBlankEntry             000aea8c     UefiShellDebug1CommandsLib:Pci.obj
 0003:00037aa4       _PCISubClass_0e            000aeaa4     UefiShellDebug1CommandsLib:Pci.obj
 0003:00037abc       _PCISubClass_13            000aeabc     UefiShellDebug1CommandsLib:Pci.obj
 0003:00037ad8       _PCIPIFClass_0101          000aead8     UefiShellDebug1CommandsLib:Pci.obj
 0003:00037c68       _PCIPIFClass_0800          000aec68     UefiShellDebug1CommandsLib:Pci.obj
 0003:00037cb0       _PCIPIFClass_0107          000aecb0     UefiShellDebug1CommandsLib:Pci.obj
 0003:00037cd8       _PCISubClass_07            000aecd8     UefiShellDebug1CommandsLib:Pci.obj
 0003:00037d40       _PcieExplainList           000aed40     UefiShellDebug1CommandsLib:Pci.obj
 0003:00037e80       _PCIPIFClass_0e00          000aee80     UefiShellDebug1CommandsLib:Pci.obj
 0003:00037ea8       _PCISubClass_0d            000aeea8     UefiShellDebug1CommandsLib:Pci.obj
 0003:00037f18       _PCIPIFClass_0c03          000aef18     UefiShellDebug1CommandsLib:Pci.obj
 0003:00037f6c       _PCIPIFClass_0801          000aef6c     UefiShellDebug1CommandsLib:Pci.obj
 0003:00037f9c       _PCIPIFClass_0105          000aef9c     UefiShellDebug1CommandsLib:Pci.obj
 0003:00037fc0       _PCISubClass_05            000aefc0     UefiShellDebug1CommandsLib:Pci.obj
 0003:00037ff0       _PCIPIFClass_0108          000aeff0     UefiShellDebug1CommandsLib:Pci.obj
 0003:00038020       _PCISubClass_08            000af020     UefiShellDebug1CommandsLib:Pci.obj
 0003:00038098       _PCIPIFClass_0802          000af098     UefiShellDebug1CommandsLib:Pci.obj
 0003:000380c8       _PCISubClass_0b            000af0c8     UefiShellDebug1CommandsLib:Pci.obj
 0003:00038138       _PCISubClass_02            000af138     UefiShellDebug1CommandsLib:Pci.obj
 0003:000381b0       _PCISubClass_11            000af1b0     UefiShellDebug1CommandsLib:Pci.obj
 0003:000381f8       _PCIPIFClass_0d01          000af1f8     UefiShellDebug1CommandsLib:Pci.obj
 0003:0003821c       _PCIPIFClass_0904          000af21c     UefiShellDebug1CommandsLib:Pci.obj
 0003:00038240       _PCISubClass_09            000af240     UefiShellDebug1CommandsLib:Pci.obj
 0003:00038298       _PCISubClass_04            000af298     UefiShellDebug1CommandsLib:Pci.obj
 0003:000382e0       _gClassStringList          000af2e0     UefiShellDebug1CommandsLib:Pci.obj
 0003:000383e8       _PCIPIFClass_0609          000af3e8     UefiShellDebug1CommandsLib:Pci.obj
 0003:0003840c       _PCISubClass_12            000af40c     UefiShellDebug1CommandsLib:Pci.obj
 0003:00038428       _UefiShellDebug1CommandsLibStrings 000af428     UefiShellDebug1CommandsLib:AutoGen.obj
 0003:00055641       _gShowType                 000cc641     UefiShellDebug1CommandsLib:SmbiosView.obj
 0003:00055644       _FileBufferConst           000cc644     UefiShellDebug1CommandsLib:FileBuffer.obj
 0003:00055680       _MainControlBasedMenuFunctions 000cc680     UefiShellDebug1CommandsLib:MainTextEditor.obj
 0003:000556f0       _MainMenuItems             000cc6f0     UefiShellDebug1CommandsLib:MainTextEditor.obj
 0003:00055748       _MainEditorConst           000cc748     UefiShellDebug1CommandsLib:MainTextEditor.obj
 0003:00055774       _HMainEditorConst          000cc774     UefiShellDebug1CommandsLib:MainHexEditor.obj
 0003:000557a0       _HexMainControlBasedMenuFunctions 000cc7a0     UefiShellDebug1CommandsLib:MainHexEditor.obj
 0003:00055810       _HBufferImageConst         000cc810     UefiShellDebug1CommandsLib:BufferImage.obj
 0003:00055850       _McInterleaveSupportTable  000cc850     UefiShellDebug1CommandsLib:QueryTable.obj
 0003:00055890       _MDTypeTable               000cc890     UefiShellDebug1CommandsLib:QueryTable.obj
 0003:00055900       _SystemSlotDataBusWidthTable 000cc900     UefiShellDebug1CommandsLib:QueryTable.obj
 0003:00055970       _McErrorCorrectCapabilityTable 000cc970     UefiShellDebug1CommandsLib:QueryTable.obj
 0003:000559a0       _SlotCharacteristics1Table 000cc9a0     UefiShellDebug1CommandsLib:QueryTable.obj
 0003:000559e0       _SlotCharacteristics2Table 000cc9e0     UefiShellDebug1CommandsLib:QueryTable.obj
 0003:00055a00       _SystemEnclosureStatusTable 000cca00     UefiShellDebug1CommandsLib:QueryTable.obj
 0003:00055a30       _SELSysManagementTypesTable 000cca30     UefiShellDebug1CommandsLib:QueryTable.obj
 0003:00055ab0       _MmErrorStatusTable        000ccab0     UefiShellDebug1CommandsLib:QueryTable.obj
 0003:00055ad0       _PostResultsBitmapDw2Table 000ccad0     UefiShellDebug1CommandsLib:QueryTable.obj
 0003:00055bd0       _McMemorySpeedsTable       000ccbd0     UefiShellDebug1CommandsLib:QueryTable.obj
 0003:00055c00       _IPMIDIBMCInterfaceTypeTable 000ccc00     UefiShellDebug1CommandsLib:QueryTable.obj
 0003:00055c30       _SystemSlotTypeTable       000ccc30     UefiShellDebug1CommandsLib:QueryTable.obj
 0003:00055e00       _ProcessorCharacteristicsTable 000cce00     UefiShellDebug1CommandsLib:QueryTable.obj
 0003:00055e40       _StructureTypeInfoTable    000cce40     UefiShellDebug1CommandsLib:QueryTable.obj
 0003:00055fb0       _McErrorDetectMethodTable  000ccfb0     UefiShellDebug1CommandsLib:QueryTable.obj
 0003:00055ff0       _TemperatureProbeLocTable  000ccff0     UefiShellDebug1CommandsLib:QueryTable.obj
 0003:00056050       _PointingDeviceInterfaceTable 000cd050     UefiShellDebug1CommandsLib:QueryTable.obj
 0003:000560b0       _BaseBoardBoardTypeTable   000cd0b0     UefiShellDebug1CommandsLib:QueryTable.obj
 0003:00056120       _MemoryErrorTypeTable      000cd120     UefiShellDebug1CommandsLib:QueryTable.obj
 0003:00056190       _MemoryErrorGranularityTable 000cd190     UefiShellDebug1CommandsLib:QueryTable.obj
 0003:000561b0       _VPStatusTable             000cd1b0     UefiShellDebug1CommandsLib:QueryTable.obj
 0003:00056210       _TemperatureProbeStatusTable 000cd210     UefiShellDebug1CommandsLib:QueryTable.obj
 0003:00056240       _PostResultsBitmapDw1Table 000cd240     UefiShellDebug1CommandsLib:QueryTable.obj
 0003:00056340       _OnboardDeviceTypesTable   000cd340     UefiShellDebug1CommandsLib:QueryTable.obj
 0003:00056390       _CoolingDeviceTypeTable    000cd390     UefiShellDebug1CommandsLib:QueryTable.obj
 0003:000563f0       _PointingDeviceTypeTable   000cd3f0     UefiShellDebug1CommandsLib:QueryTable.obj
 0003:00056430       _SystemWakeupTypeTable     000cd430     UefiShellDebug1CommandsLib:QueryTable.obj
 0003:00056470       _MmMemoryTypeTable         000cd470     UefiShellDebug1CommandsLib:QueryTable.obj
 0003:000564d0       _ProcessorTypeTable        000cd4d0     UefiShellDebug1CommandsLib:QueryTable.obj
 0003:00056500       _PMAErrorCorrectionTypesTable 000cd500     UefiShellDebug1CommandsLib:QueryTable.obj
 0003:00056540       _SystemSlotCurrentUsageTable 000cd540     UefiShellDebug1CommandsLib:QueryTable.obj
 0003:00056560       _ECPStatusTable            000cd560     UefiShellDebug1CommandsLib:QueryTable.obj
 0003:00056590       _MemoryDeviceTypeTable     000cd590     UefiShellDebug1CommandsLib:QueryTable.obj
 0003:00056670       _PortConnectorTypeTable    000cd670     UefiShellDebug1CommandsLib:QueryTable.obj
 0003:000567c0       _PMAUseTable               000cd7c0     UefiShellDebug1CommandsLib:QueryTable.obj
 0003:00056800       _MemoryDeviceFormFactorTable 000cd800     UefiShellDebug1CommandsLib:QueryTable.obj
 0003:00056880       _BaseBoardFeatureFlagsTable 000cd880     UefiShellDebug1CommandsLib:QueryTable.obj
 0003:000568b0       _MCHostInterfaceTypeTable  000cd8b0     UefiShellDebug1CommandsLib:QueryTable.obj
 0003:000568d0       _CacheSystemCacheTypeTable 000cd8d0     UefiShellDebug1CommandsLib:QueryTable.obj
 0003:00056900       _PMALocationTable          000cd900     UefiShellDebug1CommandsLib:QueryTable.obj
 0003:00056970       _SystemEnclosureTypeTable  000cd970     UefiShellDebug1CommandsLib:QueryTable.obj
 0003:00056a90       _CacheErrCorrectingTypeTable 000cda90     UefiShellDebug1CommandsLib:QueryTable.obj
 0003:00056ac0       _MemoryChannelTypeTable    000cdac0     UefiShellDebug1CommandsLib:QueryTable.obj
 0003:00056ae0       _ProcessorUpgradeTable     000cdae0     UefiShellDebug1CommandsLib:QueryTable.obj
 0003:00056ca0       _PBDeviceChemistryTable    000cdca0     UefiShellDebug1CommandsLib:QueryTable.obj
 0003:00056ce0       _MemoryModuleVoltageTable  000cdce0     UefiShellDebug1CommandsLib:QueryTable.obj
 0003:00056d00       _CacheAssociativityTable   000cdd00     UefiShellDebug1CommandsLib:QueryTable.obj
 0003:00056d70       _MemoryDeviceTypeDetailTable 000cdd70     UefiShellDebug1CommandsLib:QueryTable.obj
 0003:00056de0       _SELTypesTable             000cdde0     UefiShellDebug1CommandsLib:QueryTable.obj
 0003:00056ec0       _VPLocationTable           000cdec0     UefiShellDebug1CommandsLib:QueryTable.obj
 0003:00056ef0       _PortTypeTable             000cdef0     UefiShellDebug1CommandsLib:QueryTable.obj
 0003:00057020       _CoolingDeviceStatusTable  000ce020     UefiShellDebug1CommandsLib:QueryTable.obj
 0003:00057050       _CacheSRAMTypeTable        000ce050     UefiShellDebug1CommandsLib:QueryTable.obj
 0003:00057090       _MemoryErrorOperationTable 000ce090     UefiShellDebug1CommandsLib:QueryTable.obj
 0003:000570c0       _MDAddressTypeTable        000ce0c0     UefiShellDebug1CommandsLib:QueryTable.obj
 0003:000570f0       _SELVarDataFormatTypeTable 000ce0f0     UefiShellDebug1CommandsLib:QueryTable.obj
 0003:00057140       _SESecurityStatusTable     000ce140     UefiShellDebug1CommandsLib:QueryTable.obj
 0003:00057170       _SystemSlotLengthTable     000ce170     UefiShellDebug1CommandsLib:QueryTable.obj
 0003:00057190       _ECPLocTable               000ce190     UefiShellDebug1CommandsLib:QueryTable.obj
 0003:000571e8       _UefiShellNetwork1CommandsLibStrings 000ce1e8     UefiShellNetwork1CommandsLib:AutoGen.obj
 0003:00059890       _mIfConfigCheckList        000d0890     UefiShellNetwork1CommandsLib:Ifconfig.obj
 0003:000598c0       _mSetCheckList             000d08c0     UefiShellNetwork1CommandsLib:Ifconfig.obj
 0003:00059900       _mIfConfig6SetCheckList    000d0900     UefiShellNetwork2CommandsLib:Ifconfig6.obj
 0003:00059980       _mIfConfig6CheckList       000d0980     UefiShellNetwork2CommandsLib:Ifconfig6.obj
 0003:000599b0       _UefiShellNetwork2CommandsLibStrings 000d09b0     UefiShellNetwork2CommandsLib:AutoGen.obj
 0003:0005c330       _Ping6ParamList            000d3330     UefiShellNetwork2CommandsLib:Ping6.obj
 0003:0005c358       _UefiShellBcfgCommandLibStrings 000d3358     UefiShellBcfgCommandLib:AutoGen.obj
 0003:0005f3a0       _AsciiRedirection          000d63a0     Shell:ShellParametersProtocol.obj
 0003:0005f3a4       _mShellManDriverHandle     000d63a4     Shell:ShellManParser.obj
 0003:0005f3a8       _mShellManHiiHandle        000d63a8     Shell:ShellManParser.obj
 0003:0005f3ac       _gImageHandle              000d63ac     UefiBootServicesTableLib:UefiBootServicesTableLib.obj
 0003:0005f3b0       _gST                       000d63b0     UefiBootServicesTableLib:UefiBootServicesTableLib.obj
 0003:0005f3b4       _gBS                       000d63b4     UefiBootServicesTableLib:UefiBootServicesTableLib.obj
 0003:0005f3b8       _mPrint2SProtocol          000d63b8     DxePrintLibPrint2Protocol:PrintLib.obj
 0003:0005f3bc       _mDevicePathLibDevicePathFromText 000d63bc     UefiDevicePathLibDevicePathProtocol:UefiDevicePathLib.obj
 0003:0005f3c0       _mDevicePathLibDevicePathUtilities 000d63c0     UefiDevicePathLibDevicePathProtocol:UefiDevicePathLib.obj
 0003:0005f3c4       _mDevicePathLibDevicePathToText 000d63c4     UefiDevicePathLibDevicePathProtocol:UefiDevicePathLib.obj
 0003:0005f3c8       _gRT                       000d63c8     UefiRuntimeServicesTableLib:UefiRuntimeServicesTableLib.obj
 0003:0005f3cc       _mHobList                  000d63cc     DxeHobLib:HobLib.obj
 0003:0005f3d0       _mDebugPrintErrorLevel     000d63d0     DxeDebugPrintErrorLevelLib:DxeDebugPrintErrorLevelLib.obj
 0003:0005f3d4       _mGlobalErrorLevelInitialized 000d63d4     DxeDebugPrintErrorLevelLib:DxeDebugPrintErrorLevelLib.obj
 0003:0005f3d8       _mSystemTable              000d63d8     DxeDebugPrintErrorLevelLib:DxeDebugPrintErrorLevelLib.obj
 0003:0005f3dc       _gHiiDatabase              000d63dc     UefiHiiServicesLib:UefiHiiServicesLib.obj
 0003:0005f3e0       _gHiiImage                 000d63e0     UefiHiiServicesLib:UefiHiiServicesLib.obj
 0003:0005f3e4       _gHiiFont                  000d63e4     UefiHiiServicesLib:UefiHiiServicesLib.obj
 0003:0005f3e8       _gHiiString                000d63e8     UefiHiiServicesLib:UefiHiiServicesLib.obj
 0003:0005f3ec       _gHiiConfigRouting         000d63ec     UefiHiiServicesLib:UefiHiiServicesLib.obj
 0003:0005f3f4       _gDS                       000d63f4     DxeServicesTableLib:DxeServicesTableLib.obj
 0003:0005f3f8       _mHandleParsingHiiHandle   000d63f8     UefiHandleParsingLib:UefiHandleParsingLib.obj
 0003:0005f3fc       _mHandleList               000d63fc     UefiHandleParsingLib:UefiHandleParsingLib.obj
 0003:0005f410       _gShellCurMapping          000d6410     UefiShellCommandLib:UefiShellCommandLib.obj
 0003:0005f414       _gUnicodeCollation         000d6414     UefiShellCommandLib:UefiShellCommandLib.obj
 0003:0005f420       _gShellLevel2HiiHandle     000d6420     UefiShellLevel2CommandsLib:UefiShellLevel2CommandsLib.obj
 0003:0005f424       _gShellLevel1HiiHandle     000d6424     UefiShellLevel1CommandsLib:UefiShellLevel1CommandsLib.obj
 0003:0005f428       _gShellLevel3HiiHandle     000d6428     UefiShellLevel3CommandsLib:UefiShellLevel3CommandsLib.obj
 0003:0005f42c       _gShellDriver1HiiHandle    000d642c     UefiShellDriver1CommandsLib:UefiShellDriver1CommandsLib.obj
 0003:0005f430       _gInReconnect              000d6430     UefiShellDriver1CommandsLib:UefiShellDriver1CommandsLib.obj
 0003:0005f434       _gShellDebug1HiiHandle     000d6434     UefiShellDebug1CommandsLib:UefiShellDebug1CommandsLib.obj
 0003:0005f438       _mConfigSpace              000d6438     UefiShellDebug1CommandsLib:Pci.obj
 0003:00061a34       _mHuffmanDepth             000d8a34     UefiShellDebug1CommandsLib:Compress.obj
 0003:00061a40       _Title                     000d8a40     UefiShellDebug1CommandsLib:EditTitleBar.obj
 0003:00061a44       _HClipBoardConst           000d8a44     UefiShellDebug1CommandsLib:Clipboard.obj
 0003:00061a4c       _HDiskImageConst           000d8a4c     UefiShellDebug1CommandsLib:DiskImage.obj
 0003:00061a5c       _HMemImageConst            000d8a5c     UefiShellDebug1CommandsLib:MemImage.obj
 0003:00061a68       _HFileImageConst           000d8a68     UefiShellDebug1CommandsLib:FileImage.obj
 0003:00061aa8       _gShellNetwork1HiiHandle   000d8aa8     UefiShellNetwork1CommandsLib:UefiShellNetwork1CommandsLib.obj
 0003:00061aac       _gShellNetwork2HiiHandle   000d8aac     UefiShellNetwork2CommandsLib:UefiShellNetwork2CommandsLib.obj
 0003:00061ab0       _mReportStatusCodeLibStatusCodeProtocol 000d8ab0     DxeReportStatusCodeLib:ReportStatusCodeLib.obj
 0003:00061ab8       _mZeroIp4Addr              000d8ab8     DxeNetLib:DxeNetLib.obj
 0003:00061abc       _mIp6SrcString             000d8abc     <common>
 0003:00061ac0       _mIp6DstString             000d8ac0     <common>
 0003:00061ad0       _HFileImageBackupVar       000d8ad0     <common>
 0003:00061ae0       _HFileImage                000d8ae0     <common>
 0003:00061af0       _HMemImageBackupVar        000d8af0     <common>
 0003:00061b00       _HMemImage                 000d8b00     <common>
 0003:00061b10       _HDiskImageBackupVar       000d8b10     <common>
 0003:00061b20       _HDiskImage                000d8b20     <common>
 0003:00061b30       _HClipBoard                000d8b30     <common>
 0003:00061b38       _mPrompt                   000d8b38     <common>
 0003:00061b3c       _mReturnString             000d8b3c     <common>
 0003:00061b40       _StringSize                000d8b40     <common>
 0003:00061b44       _ControlBasedMenuFunctions 000d8b44     <common>
 0003:00061b48       _NumItems                  000d8b48     <common>
 0003:00061b4c       _MenuItems                 000d8b4c     <common>
 0003:00061b50       _HBufferImageOnlyLineNeedRefresh 000d8b50     <common>
 0003:00061b60       _HBufferImageBackupVar     000d8b60     <common>
 0003:00061ba0       _HBufferImageMouseNeedRefresh 000d8ba0     <common>
 0003:00061bc0       _HBufferImage              000d8bc0     <common>
 0003:00061c00       _HBufferImageNeedRefresh   000d8c00     <common>
 0003:00061c01       _HEditorMouseAction        000d8c01     <common>
 0003:00061c20       _HMainEditor               000d8c20     <common>
 0003:00061c48       _HOriginalMode             000d8c48     <common>
 0003:00061c60       _HMainEditorBackupVar      000d8c60     <common>
 0003:00061c88       _HEditorExit               000d8c88     <common>
 0003:00061c89       _HEditorFirst              000d8c89     <common>
 0003:00061c8c       _HOriginalColors           000d8c8c     <common>
 0003:00061c90       _StatusString              000d8c90     <common>
 0003:00061c94       _StatusBarNeedRefresh      000d8c94     <common>
 0003:00061c95       _StatusStringChanged       000d8c95     <common>
 0003:00061c98       _OriginalMode              000d8c98     <common>
 0003:00061c9c       _OriginalColors            000d8c9c     <common>
 0003:00061ca0       _EditorExit                000d8ca0     <common>
 0003:00061ca1       _EditorMouseAction         000d8ca1     <common>
 0003:00061ca2       _EditorFirst               000d8ca2     <common>
 0003:00061cc0       _MainEditor                000d8cc0     <common>
 0003:00061d00       _FileBuffer                000d8d00     <common>
 0003:00061d3c       _FileBufferMouseNeedRefresh 000d8d3c     <common>
 0003:00061d40       _FileBufferBackupVar       000d8d40     <common>
 0003:00061d7c       _FileBufferNeedRefresh     000d8d7c     <common>
 0003:00061d7d       _FileBufferOnlyLineNeedRefresh 000d8d7d     <common>
 0003:00061d80       _mNumberOfSmbios64BitStructures 000d8d80     <common>
 0003:00061d84       _SmbiosMajorVersion        000d8d84     <common>
 0003:00061d85       _SmbiosMinorVersion        000d8d85     <common>
 0003:00061d88       _mSmbios64BitTableLength   000d8d88     <common>
 0003:00061da0       _gShellMapList             000d8da0     <common>
 0003:00061dc0       _mGuidList                 000d8dc0     <common>
 0003:00061dc4       _mGuidListCount            000d8dc4     <common>
 0003:00061dc8       _mEfiShellEnvironment2Handle 000d8dc8     <common>
 0003:00061de0       _FileFunctionMap           000d8de0     <common>
 0003:00061e08       _mUnicodeCollationProtocol 000d8e08     <common>
 0003:00061e0c       _mEfiShellInterface        000d8e0c     <common>
 0003:00061e10       _mEfiShellEnvironment2     000d8e10     <common>
 0003:00061e14       _gEfiShellProtocol         000d8e14     <common>
 0003:00061e18       _gEfiShellParametersProtocol 000d8e18     <common>
 0003:00061e20       _gShellEnvVarList          000d8e20     <common>

 entry point at        0001:000001d9

 Static symbols

 0001:0000001a       _InternalMemCopyMem.0      0001101a     BaseMemoryLibOptDxe:CopyMem.obj
 0001:0000002c       _InternalMemCopyMem.1      0001102c     BaseMemoryLibOptDxe:CopyMem.obj
 0001:0000003e       _InternalMemCopyMem.2      0001103e     BaseMemoryLibOptDxe:CopyMem.obj
 0001:0000005b       @CopyBackward              0001105b     BaseMemoryLibOptDxe:CopyMem.obj
 0001:00000062       @CopyBytes                 00011062     BaseMemoryLibOptDxe:CopyMem.obj
 0001:00000131       _InternalMemSetMem64.0     00011131     BaseMemoryLibOptDxe:SetMem64.obj
 0001:00000176       _InternalMathDivRemU64x64.0 00011176     BaseLib:DivU64x64Remainder.obj
 0001:0000017b       _@DivRemU64x64             0001117b     BaseLib:DivU64x64Remainder.obj
 0001:0000018e       _@DivRemU64x64.1           0001118e     BaseLib:DivU64x64Remainder.obj
 0001:000001bb       @TooLarge                  000111bb     BaseLib:DivU64x64Remainder.obj
 0001:000001c6       @Correct                   000111c6     BaseLib:DivU64x64Remainder.obj
 0001:000001d1       @Return                    000111d1     BaseLib:DivU64x64Remainder.obj
 0001:000036a1       $LN383                     000146a1     * CIL library *:* CIL module *
 0001:0000635f       _NestingEnabled            0001735f f   * CIL library *:* CIL module *
 0001:00012abf       $LN31                      00023abf     * CIL library *:* CIL module *
 0001:000135d9       _DevicePathProtocolDumpInformationEx 000245d9 f   * CIL library *:* CIL module *
 0001:00020dd9       $LN114                     00031dd9     * CIL library *:* CIL module *
 0001:00024b5a       $LN148                     00035b5a     * CIL library *:* CIL module *
 0001:00024b7a       $LN149                     00035b7a     * CIL library *:* CIL module *
 0001:000250cb       _CopyListOfCommandNamesWithDynamic 000360cb f   * CIL library *:* CIL module *
 0001:0002d983       $LN38                      0003e983     * CIL library *:* CIL module *
 0001:000304dd       $LN146                     000414dd     * CIL library *:* CIL module *
 0001:00037267       $LN40                      00048267     * CIL library *:* CIL module *
 0001:0003c04f       $LN996                     0004d04f     * CIL library *:* CIL module *
 0001:0003c0ab       $LN997                     0004d0ab     * CIL library *:* CIL module *
 0001:0003d1ab       $LN212                     0004e1ab     * CIL library *:* CIL module *
 0001:0003e5fc       $LN50                      0004f5fc     * CIL library *:* CIL module *
 0001:00042cb8       $LN34                      00053cb8     * CIL library *:* CIL module *
 0002:000007e0       _mStartupScript            0005f7e0     * CIL library *:* CIL module *
 0002:000007f8       _mScriptExtension          0005f7f8     * CIL library *:* CIL module *
 0002:00000824       _mExecutableExtensions     0005f824     * CIL library *:* CIL module *
 0002:00003a0c       _EfiIsaIoProtocolGuid      00062a0c     * CIL library *:* CIL module *
 0002:00003a1c       _EfiIsaAcpiProtocolGuid    00062a1c     * CIL library *:* CIL module *
 0002:00003a2c       _WinNtThunkProtocolGuid    00062a2c     * CIL library *:* CIL module *
 0002:00003a3c       _WinNtIoProtocolGuid       00062a3c     * CIL library *:* CIL module *
 0002:00003a50       _mGuidStringListNT         00062a50     * CIL library *:* CIL module *
 0002:00003a80       _WinNtSerialPortGuid       00062a80     * CIL library *:* CIL module *
 0002:00003a90       _mGuidStringList           00062a90     * CIL library *:* CIL module *
 0002:00004b50       _Hex                       00063b50     * CIL library *:* CIL module *
 0002:00004f10       _ParamList                 00063f10     * CIL library *:* CIL module *
 0002:00004f70       _SetParamList              00063f70     * CIL library *:* CIL module *
 0002:00005010       _ParamList                 00064010     * CIL library *:* CIL module *
 0002:00005110       _ResetParamList            00064110     * CIL library *:* CIL module *
 0002:00005210       _MapParamList              00064210     * CIL library *:* CIL module *
 0002:00005420       _ParamList                 00064420     * CIL library *:* CIL module *
 0002:000054f0       _TimeZoneList              000644f0     * CIL library *:* CIL module *
 0002:00005580       _TimeParamList3            00064580     * CIL library *:* CIL module *
 0002:000055a0       _TimeZoneParamList3        000645a0     * CIL library *:* CIL module *
 0002:00005840       _LsParamList               00064840     * CIL library *:* CIL module *
 0002:0000593c       _AllFiles                  0006493c     * CIL library *:* CIL module *
 0002:00005940       _AttribParamList           00064940     * CIL library *:* CIL module *
 0002:00005a30       _ParamList                 00064a30     * CIL library *:* CIL module *
 0002:00005ab0       _LoadParamList             00064ab0     * CIL library *:* CIL module *
 0002:00005ae4       _mFileName                 00064ae4     UefiShellLevel2CommandsLib:UefiShellLevel2CommandsLib.obj
 0002:00005df0       _ParamList                 00064df0     * CIL library *:* CIL module *
 0002:00006090       _ParamList                 00065090     * CIL library *:* CIL module *
 0002:000060f0       _ParamList                 000650f0     * CIL library *:* CIL module *
 0002:000061c0       _ParamList                 000651c0     * CIL library *:* CIL module *
 0002:00006260       _ParamList                 00065260     * CIL library *:* CIL module *
 0002:000062c0       _ParamList                 000652c0     * CIL library *:* CIL module *
 0002:00006310       _ParamList                 00065310     * CIL library *:* CIL module *
 0002:00006360       _ParamList                 00065360     * CIL library *:* CIL module *
 0002:00006480       _ParamList                 00065480     * CIL library *:* CIL module *
 0002:00006570       _mFileName                 00065570     UefiShellLevel2CommandsLib:UefiShellLevel2CommandsLib.obj
 0002:000066a0       _ParamList                 000656a0     * CIL library *:* CIL module *
 0002:000067e0       _ParamList                 000657e0     * CIL library *:* CIL module *
 0002:00006840       _ParamList                 00065840     * CIL library *:* CIL module *
 0002:00006a40       _ParamListPreHii           00065a40     * CIL library *:* CIL module *
 0002:00006a70       _ParamListHii              00065a70     * CIL library *:* CIL module *
 0002:00006af4       _StringDriver              00065af4     * CIL library *:* CIL module *
 0002:00006b08       _StringHandProt            00065b08     * CIL library *:* CIL module *
 0002:00006b1c       _StringDriverEx            00065b1c     * CIL library *:* CIL module *
 0002:00006b30       _StringTestProt            00065b30     * CIL library *:* CIL module *
 0002:00006b44       _StringChild               00065b44     * CIL library *:* CIL module *
 0002:00006b58       _StringExclusive           00065b58     * CIL library *:* CIL module *
 0002:00006b6c       _StringUnknown             00065b6c     * CIL library *:* CIL module *
 0002:00006b80       _StringGetProt             00065b80     * CIL library *:* CIL module *
 0002:00006bf0       _ParamList                 00065bf0     * CIL library *:* CIL module *
 0002:00006c70       _ParamList                 00065c70     * CIL library *:* CIL module *
 0002:00006cd0       _ParamList                 00065cd0     * CIL library *:* CIL module *
 0002:00006ea0       _ParamList                 00065ea0     * CIL library *:* CIL module *
 0002:00006f60       _ParamList                 00065f60     * CIL library *:* CIL module *
 0002:00006fd0       _ParamList                 00065fd0     * CIL library *:* CIL module *
 0002:00007198       _mFileName                 00066198     UefiShellLevel2CommandsLib:UefiShellLevel2CommandsLib.obj
 0002:0000ce10       _ParamList                 0006be10     * CIL library *:* CIL module *
 0002:0000cef0       _ParamList                 0006bef0     * CIL library *:* CIL module *
 0002:0000cf90       _ParamList                 0006bf90     * CIL library *:* CIL module *
 0002:0000d000       _ParamList                 0006c000     * CIL library *:* CIL module *
 0002:0000d060       _NameEfiRuntimeServicesData 0006c060     * CIL library *:* CIL module *
 0002:0000d078       _NameEfiMemoryMappedIOPortSpace 0006c078     * CIL library *:* CIL module *
 0002:0000d0a8       _NameEfiUnusableMemoryShort 0006c0a8     * CIL library *:* CIL module *
 0002:0000d0bc       _NameEfiRuntimeServicesDataShort 0006c0bc     * CIL library *:* CIL module *
 0002:0000d0cc       _NameEfiUnusableMemory     0006c0cc     * CIL library *:* CIL module *
 0002:0000d0ec       _NameEfiConventionalMemory 0006c0ec     * CIL library *:* CIL module *
 0002:0000d100       _NameEfiACPIMemoryNVSShort 0006c100     * CIL library *:* CIL module *
 0002:0000d114       _NameEfiRuntimeServicesCodeShort 0006c114     * CIL library *:* CIL module *
 0002:0000d124       _NameEfiLoaderData         0006c124     * CIL library *:* CIL module *
 0002:0000d13c       _NameEfiPersistentMemory   0006c13c     * CIL library *:* CIL module *
 0002:0000d154       _NameEfiBootServicesCodeShort 0006c154     * CIL library *:* CIL module *
 0002:0000d164       _NameEfiBootServicesDataShort 0006c164     * CIL library *:* CIL module *
 0002:0000d174       _NameEfiBootServicesCode   0006c174     * CIL library *:* CIL module *
 0002:0000d194       _NameEfiRuntimeServicesCode 0006c194     * CIL library *:* CIL module *
 0002:0000d1ac       _NameEfiReservedMemoryType 0006c1ac     * CIL library *:* CIL module *
 0002:0000d1c0       _NameEfiLoaderCode         0006c1c0     * CIL library *:* CIL module *
 0002:0000d1d8       _NameEfiPalCode            0006c1d8     * CIL library *:* CIL module *
 0002:0000d1e8       _NameEfiMemoryMappedIO     0006c1e8     * CIL library *:* CIL module *
 0002:0000d208       _NameEfiACPIMemoryNVS      0006c208     * CIL library *:* CIL module *
 0002:0000d224       _NameEfiACPIReclaimMemory  0006c224     * CIL library *:* CIL module *
 0002:0000d248       _NameEfiMemoryMappedIOPortSpaceShort 0006c248     * CIL library *:* CIL module *
 0002:0000d25c       _NameEfiACPIReclaimMemoryShort 0006c25c     * CIL library *:* CIL module *
 0002:0000d270       _NameEfiBootServicesData   0006c270     * CIL library *:* CIL module *
 0002:0000d290       _NameEfiMemoryMappedIOShort 0006c290     * CIL library *:* CIL module *
 0002:0000d340       _ParamList                 0006c340     * CIL library *:* CIL module *
 0002:0000d450       _ParamList                 0006c450     * CIL library *:* CIL module *
 0002:0000d770       _ParamList                 0006c770     * CIL library *:* CIL module *
 0002:0000d890       _ParamList                 0006c890     * CIL library *:* CIL module *
 0002:0000db40       _ParamList                 0006cb40     * CIL library *:* CIL module *
 0002:00016b00       _PingParamList             00075b00     * CIL library *:* CIL module *
 0002:00016c58       _PermanentString           00075c58     * CIL library *:* CIL module *
 0002:00017468       _mFileName                 00076468     UefiShellLevel2CommandsLib:UefiShellLevel2CommandsLib.obj
 0002:00017490       _ParamList                 00076490     * CIL library *:* CIL module *
 0003:0002aa3c       _DiagGuidList              000a1a3c     * CIL library *:* CIL module *
 0003:00037538       _CfgGuidList               000ae538     * CIL library *:* CIL module *
 0003:0005576c       _mSmbios64BitStruct        000cc76c     * CIL library *:* CIL module *
 0003:00055770       _mSmbiosStruct             000cc770     * CIL library *:* CIL module *
 0003:0005f3f0       _mUnicodeCollation         000d63f0     * CIL library *:* CIL module *
 0003:0005f418       _mBlkMaxCount              000d6418     * CIL library *:* CIL module *
 0003:0005f41c       _mFsMaxCount               000d641c     * CIL library *:* CIL module *
 0003:0005f43c       _mSmbios64BitStatisticsTable 000d643c     * CIL library *:* CIL module *
 0003:0005f440       _mStatisticsTable          000d6440     * CIL library *:* CIL module *
 0003:0005f444       _mSmbios64BitTable         000d6444     * CIL library *:* CIL module *
 0003:0005f448       _m64Init                   000d6448     * CIL library *:* CIL module *
 0003:0005f44c       _mSmbiosTable              000d644c     * CIL library *:* CIL module *
 0003:0005f450       _m_SmbiosStruct            000d6450     * CIL library *:* CIL module *
 0003:0005f454       _m_Smbios64BitStruct       000d6454     * CIL library *:* CIL module *
 0003:0005f458       _mExitRequested            000d6458     * CIL library *:* CIL module *
 0003:0005f459       _mEchoState                000d6459     * CIL library *:* CIL module *
 0003:0005f45a       _mExitScript               000d645a     * CIL library *:* CIL module *
 0003:0005f460       _mExitCode                 000d6460     * CIL library *:* CIL module *
 0003:0005f468       _mCommandList              000d6468     * CIL library *:* CIL module *
 0003:0005f488       _mScriptList               000d6488     * CIL library *:* CIL module *
 0003:0005f494       _mProfileListSize          000d6494     * CIL library *:* CIL module *
 0003:0005f498       _mProfileList              000d6498     * CIL library *:* CIL module *
 0003:0005f49c       _mAliasList                000d649c     * CIL library *:* CIL module *
 0003:0005f4ac       _mFileHandleList           000d64ac     * CIL library *:* CIL module *
 0003:0005f4b8       _mSrcUpperLimit            000d64b8     * CIL library *:* CIL module *
 0003:0005f4bc       _mMatchLen                 000d64bc     * CIL library *:* CIL module *
 0003:0005f4c0       _mCrc                      000d64c0     * CIL library *:* CIL module *
 0003:0005f4c4       _mRemainder                000d64c4     * CIL library *:* CIL module *
 0003:0005f4c8       _mOutputMask               000d64c8     * CIL library *:* CIL module *
 0003:0005f4cc       _mLevel                    000d64cc     * CIL library *:* CIL module *
 0003:0005f4d0       _mLen                      000d64d0     * CIL library *:* CIL module *
 0003:0005f4d4       _mMatchPos                 000d64d4     * CIL library *:* CIL module *
 0003:0005f4d8       _mDstUpperLimit            000d64d8     * CIL library *:* CIL module *
 0003:0005f4dc       _mText                     000d64dc     * CIL library *:* CIL module *
 0003:0005f4e0       _mFreq                     000d64e0     * CIL library *:* CIL module *
 0003:0005f4e4       _mAvail                    000d64e4     * CIL library *:* CIL module *
 0003:0005f4e8       _mCompSize                 000d64e8     * CIL library *:* CIL module *
 0003:0005f4ec       _mSrc                      000d64ec     * CIL library *:* CIL module *
 0003:0005f4f0       ?CPos@?1??CompressOutput@@9@9 000d64f0     * CIL library *:* CIL module *
 0003:0005f4f4       _mTempInt32                000d64f4     * CIL library *:* CIL module *
 0003:0005f4f8       _mPrev                     000d64f8     * CIL library *:* CIL module *
 0003:0005f500       _mCLen                     000d6500     * CIL library *:* CIL module *
 0003:0005f700       _mPTCode                   000d6700     * CIL library *:* CIL module *
 0003:0005f728       _mOutputPos                000d6728     * CIL library *:* CIL module *
 0003:0005f72c       _mPos                      000d672c     * CIL library *:* CIL module *
 0003:0005f730       _mPosition                 000d6730     * CIL library *:* CIL module *
 0003:0005f734       _mBitCount                 000d6734     * CIL library *:* CIL module *
 0003:0005f738       _mParent                   000d6738     * CIL library *:* CIL module *
 0003:0005f740       _mPTLen                    000d6740     * CIL library *:* CIL module *
 0003:0005f754       _mOrigSize                 000d6754     * CIL library *:* CIL module *
 0003:0005f758       _mSubBitBuf                000d6758     * CIL library *:* CIL module *
 0003:0005f760       _mCrcTable                 000d6760     * CIL library *:* CIL module *
 0003:0005f960       _mCFreq                    000d6960     * CIL library *:* CIL module *
 0003:00060158       _mChildCount               000d7158     * CIL library *:* CIL module *
 0003:00060160       _mLeft                     000d7160     * CIL library *:* CIL module *
 0003:00060958       _mBuf                      000d7958     * CIL library *:* CIL module *
 0003:00060960       _mTFreq                    000d7960     * CIL library *:* CIL module *
 0003:000609b0       _mLenCnt                   000d79b0     * CIL library *:* CIL module *
 0003:000609d4       _mHeapSize                 000d79d4     * CIL library *:* CIL module *
 0003:000609d8       _mSortPtr                  000d79d8     * CIL library *:* CIL module *
 0003:000609e0       _mHeap                     000d79e0     * CIL library *:* CIL module *
 0003:00060de0       _mPFreq                    000d7de0     * CIL library *:* CIL module *
 0003:00060e18       _mDst                      000d7e18     * CIL library *:* CIL module *
 0003:00060e20       _mRight                    000d7e20     * CIL library *:* CIL module *
 0003:00061618       _mSrcString                000d8618     * CIL library *:* CIL module *
 0003:00061620       _mCCode                    000d8620     * CIL library *:* CIL module *
 0003:00061a1c       _mDstString                000d8a1c     * CIL library *:* CIL module *
 0003:00061a20       ?CheckConflict@?1??IfConfigRetriveCheckListByName@@9@9 000d8a20     * CIL library *:* CIL module *
 0003:00061a24       ?CheckDuplicate@?1??IfConfigRetriveCheckListByName@@9@9 000d8a24     * CIL library *:* CIL module *
 0003:00061a28       ?CheckDuplicate@?1??IfConfig6RetriveCheckListByName@@9@9 000d8a28     * CIL library *:* CIL module *
 0003:00061a2c       ?CheckConflict@?1??IfConfig6RetriveCheckListByName@@9@9 000d8a2c     * CIL library *:* CIL module *
 0003:00061a30       _mInit                     000d8a30     * CIL library *:* CIL module *
 0003:00061a38       _mNext                     000d8a38     * CIL library *:* CIL module *
 0003:00061a3c       _mBufSiz                   000d8a3c     * CIL library *:* CIL module *
 0003:00061ab4       _gShellBcfgHiiHandle       000d8ab4     * CIL library *:* CIL module *
 0004:00000000       .edata                     000d9000     Shell.exp
 0004:00000028       rgpv                       000d9028     Shell.exp
 0004:0000002c       rgszName                   000d902c     Shell.exp
 0004:00000030       rgwOrd                     000d9030     Shell.exp
 0004:00000032       szName                     000d9032     Shell.exp
 0004:0000003c       $N00001                    000d903c     Shell.exp
