 SetupBrowser

 Timestamp is 5a2f2e85 (Tue Dec 12 08:19:01 2017)

 Preferred load address is 00010000

 Start         Length     Name                   Class
 0001:00000000 0000011fH .text                   CODE
 0001:0000011f 0001111cH .text$mn                CODE
 0002:00000000 0000286cH .rdata                  DATA
 0002:0000286c 000000a8H .rdata$debug            DATA
 0003:00000000 00000248H .data                   DATA
 0003:00000260 00000180H .bss                    DATA
 0004:00000000 00000054H .edata                  DATA

  Address         Publics by Value              Rva+Base       Lib:Object

 0000:00000000       ___guard_flags             00000000     <absolute>
 0000:00000000       ___guard_fids_table        00000000     <absolute>
 0000:00000000       ___guard_fids_count        00000000     <absolute>
 0001:00000000       _InternalMemCompareMem     00011000     BaseMemoryLibOptDxe:CompareMem.obj
 0001:00000020       _InternalMemCopyMem        00011020     BaseMemoryLibOptDxe:CopyMem.obj
 0001:00000090       _InternalMemZeroMem        00011090     BaseMemoryLibOptDxe:ZeroMem.obj
 0001:000000b0       _InternalMemSetMem         000110b0     BaseMemoryLibOptDxe:SetMem.obj
 0001:000000e0       _InternalMemSetMem32       000110e0     BaseMemoryLibOptDxe:SetMem32.obj
 0001:00000100       _InternalMemSetMem64       00011100     BaseMemoryLibOptDxe:SetMem64.obj
 0001:0000011f       __ModuleEntryPoint         0001111f f   UefiDriverEntryPoint:DriverEntryPoint.obj
 0001:00000149       _ProcessLibraryConstructorList 00011149 f   SetupBrowser:AutoGen.obj
 0001:000002eb       _ProcessLibraryDestructorList 000112eb f   SetupBrowser:AutoGen.obj
 0001:00000330       _UiAddMenuList             00011330 f   SetupBrowser:Setup.obj
 0001:00000380       _UiFindMenuList            00011380 f   SetupBrowser:Setup.obj
 0001:000004ae       _UiFindParentMenu          000114ae f   SetupBrowser:Setup.obj
 0001:00000549       _UiFreeMenuList            00011549 f   SetupBrowser:Setup.obj
 0001:00000592       _UiCopyMenuList            00011592 f   SetupBrowser:Setup.obj
 0001:00000650       _LoadAllHiiFormset         00011650 f   SetupBrowser:Setup.obj
 0001:0000072c       _PopupErrorMessage         0001172c f   SetupBrowser:Setup.obj
 0001:000007be       _SendForm                  000117be f   SetupBrowser:Setup.obj
 0001:00000a3b       _ProcessStorage            00011a3b f   SetupBrowser:Setup.obj
 0001:00000b85       _BrowserCallback           00011b85 f   SetupBrowser:Setup.obj
 0001:00000d38       _FormDisplayCallback       00011d38 f   SetupBrowser:Setup.obj
 0001:00000d5c       _InitializeSetup           00011d5c f   SetupBrowser:Setup.obj
 0001:00000efe       _NewString                 00011efe f   SetupBrowser:Setup.obj
 0001:00000f30       _DeleteString              00011f30 f   SetupBrowser:Setup.obj
 0001:00000f51       _GetToken                  00011f51 f   SetupBrowser:Setup.obj
 0001:00000fa4       _NewStringCpy              00011fa4 f   SetupBrowser:Setup.obj
 0001:00000fe5       _NewStringCat              00011fe5 f   SetupBrowser:Setup.obj
 0001:0000105a       _GetValueByName            0001205a f   SetupBrowser:Setup.obj
 0001:00001109       _SetValueByName            00012109 f   SetupBrowser:Setup.obj
 0001:000011e8       _StorageToConfigResp       000121e8 f   SetupBrowser:Setup.obj
 0001:00001306       _ConfigRespToStorage       00012306 f   SetupBrowser:Setup.obj
 0001:000013d2       _GetBitsQuestionValue      000123d2 f   SetupBrowser:Setup.obj
 0001:0000142a       _SetBitsQuestionValue      0001242a f   SetupBrowser:Setup.obj
 0001:00001489       _BufferToValue             00012489 f   SetupBrowser:Setup.obj
 0001:00001643       _GetQuestionValue          00012643 f   SetupBrowser:Setup.obj
 0001:00001b55       _SetQuestionValue          00012b55 f   SetupBrowser:Setup.obj
 0001:000020c5       _ValidateQuestion          000130c5 f   SetupBrowser:Setup.obj
 0001:00002246       _ValueChangedValidation    00013246 f   SetupBrowser:Setup.obj
 0001:0000229c       _NoSubmitCheck             0001329c f   SetupBrowser:Setup.obj
 0001:000023a3       _SynchronizeStorage        000133a3 f   SetupBrowser:Setup.obj
 0001:000024d3       _SendDiscardInfoToDriver   000134d3 f   SetupBrowser:Setup.obj
 0001:000025c1       _SubmitCallbackForForm     000135c1 f   SetupBrowser:Setup.obj
 0001:0000266c       _SubmitCallback            0001366c f   SetupBrowser:Setup.obj
 0001:000026d8       _ValidateHiiHandle         000136d8 f   SetupBrowser:Setup.obj
 0001:0000272a       _ValidateFormSet           0001372a f   SetupBrowser:Setup.obj
 0001:0000277d       _UpdateFlagForForm         0001377d f   SetupBrowser:Setup.obj
 0001:00002841       _ValueChangeResetFlagUpdate 00013841 f   SetupBrowser:Setup.obj
 0001:000028c1       _FindQuestionFromProgress  000138c1 f   SetupBrowser:Setup.obj
 0001:00002b67       _GetSyncRestoreConfigRequest 00013b67 f   SetupBrowser:Setup.obj
 0001:00002d6b       _ConfirmSaveFail           00013d6b f   SetupBrowser:Setup.obj
 0001:00002dd9       _DiscardForm               00013dd9 f   SetupBrowser:Setup.obj
 0001:00003046       _SubmitForForm             00014046 f   SetupBrowser:Setup.obj
 0001:000032c2       _SubmitForFormSet          000142c2 f   SetupBrowser:Setup.obj
 0001:000036e0       _SubmitForSystem           000146e0 f   SetupBrowser:Setup.obj
 0001:00003b4d       _SubmitForm                00014b4d f   SetupBrowser:Setup.obj
 0001:00003b73       _HiiToLower                00014b73 f   SetupBrowser:Setup.obj
 0001:00003bc8       _GetOffsetFromConfigResp   00014bc8 f   SetupBrowser:Setup.obj
 0001:00003ca1       _GetDefaultValueFromAltCfg 00014ca1 f   SetupBrowser:Setup.obj
 0001:00003dc2       _GetArrayData              00014dc2 f   SetupBrowser:Setup.obj
 0001:00003e10       _SetArrayData              00014e10 f   SetupBrowser:Setup.obj
 0001:00003e7a       _ValueToOption             00014e7a f   SetupBrowser:Setup.obj
 0001:00003f09       _GetQuestionDefault        00014f09 f   SetupBrowser:Setup.obj
 0001:0000464c       _ExtractAltCfgForForm      0001564c f   SetupBrowser:Setup.obj
 0001:00004794       _CleanAltCfgForForm        00015794 f   SetupBrowser:Setup.obj
 0001:000047f3       _ExtractAltCfgForFormSet   000157f3 f   SetupBrowser:Setup.obj
 0001:000048ce       _CleanAltCfgForFormSet     000158ce f   SetupBrowser:Setup.obj
 0001:00004934       _ExtractDefault            00015934 f   SetupBrowser:Setup.obj
 0001:00004bef       _IsQuestionValueChanged    00015bef f   SetupBrowser:Setup.obj
 0001:00004e44       _LoadFormConfig            00015e44 f   SetupBrowser:Setup.obj
 0001:00004edc       _LoadFormSetConfig         00015edc f   SetupBrowser:Setup.obj
 0001:00004f41       _RemoveConfigRequest       00015f41 f   SetupBrowser:Setup.obj
 0001:00005072       _CleanBrowserStorage       00016072 f   SetupBrowser:Setup.obj
 0001:00005106       _AppendConfigRequest       00016106 f   SetupBrowser:Setup.obj
 0001:000051a6       _ConfigRequestAdjust       000161a6 f   SetupBrowser:Setup.obj
 0001:0000530c       _LoadStorage               0001630c f   SetupBrowser:Setup.obj
 0001:00005456       _SyncStatusForQuestion     00016456 f   SetupBrowser:Setup.obj
 0001:00005524       _SyncStatusForFormSet      00016524 f   SetupBrowser:Setup.obj
 0001:00005608       _InitializeCurrentSetting  00016608 f   SetupBrowser:Setup.obj
 0001:000056aa       _GetIfrBinaryData          000166aa f   SetupBrowser:Setup.obj
 0001:000058fe       _InitializeFormSet         000168fe f   SetupBrowser:Setup.obj
 0001:0000597e       _SaveBrowserContext        0001697e f   SetupBrowser:Setup.obj
 0001:00005ae4       _RestoreBrowserContext     00016ae4 f   SetupBrowser:Setup.obj
 0001:00005c70       _GetFormSetFromHiiHandle   00016c70 f   SetupBrowser:Setup.obj
 0001:00005cdd       _IsHiiHandleInBrowserContext 00016cdd f   SetupBrowser:Setup.obj
 0001:00005d41       _PasswordCheck             00016d41 f   SetupBrowser:Setup.obj
 0001:00005de8       _GetHotKeyFromRegisterList 00016de8 f   SetupBrowser:Setup.obj
 0001:00005e4a       _SetScope                  00016e4a f   SetupBrowser:Setup.obj
 0001:00005e92       _RegisterHotKey            00016e92 f   SetupBrowser:Setup.obj
 0001:00005f83       _RegiserExitHandler        00016f83 f   SetupBrowser:Setup.obj
 0001:00005f8d       _IsBrowserDataModified     00016f8d f   SetupBrowser:Setup.obj
 0001:0000603c       _ExecuteAction             0001703c f   SetupBrowser:Setup.obj
 0001:00006127       _SaveReminder              00017127 f   SetupBrowser:Setup.obj
 0001:000061d3       _IsResetRequired           000171d3 f   SetupBrowser:Setup.obj
 0001:000061d9       _EvaluateFormExpressions   000171d9 f   SetupBrowser:Presentation.obj
 0001:00006261       _GetDisplayStatement       00017261 f   SetupBrowser:Presentation.obj
 0001:000062b7       _UpdateStatement           000172b7 f   SetupBrowser:Presentation.obj
 0001:0000630c       _RefreshEventNotifyForStatement 0001730c f   SetupBrowser:Presentation.obj
 0001:00006327       _RefreshEventNotifyForForm 00017327 f   SetupBrowser:Presentation.obj
 0001:00006343       _CreateRefreshEventForStatement 00017343 f   SetupBrowser:Presentation.obj
 0001:000063d6       _CreateRefreshEventForForm 000173d6 f   SetupBrowser:Presentation.obj
 0001:00006466       _InitializeDisplayStatement 00017466 f   SetupBrowser:Presentation.obj
 0001:000066d1       _RefreshIntervalProcess    000176d1 f   SetupBrowser:Presentation.obj
 0001:00006760       _UpdateHotkeyList          00017760 f   SetupBrowser:Presentation.obj
 0001:0000684f       _ProcessQuestionExtraAttr  0001784f f   SetupBrowser:Presentation.obj
 0001:000068df       _AddStatementToDisplayForm 000178df f   SetupBrowser:Presentation.obj
 0001:00006c25       _UpdateDataChangedFlag     00017c25 f   SetupBrowser:Presentation.obj
 0001:00006cbc       _InitializeDisplayFormData 00017cbc f   SetupBrowser:Presentation.obj
 0001:00006d3f       _UpdateDisplayFormData     00017d3f f   SetupBrowser:Presentation.obj
 0001:00006dc2       _FreeStatementData         00017dc2 f   SetupBrowser:Presentation.obj
 0001:00006e7d       _FreeDisplayFormData       00017e7d f   SetupBrowser:Presentation.obj
 0001:00006f2b       _GetBrowserStatement       00017f2b f   SetupBrowser:Presentation.obj
 0001:00006fab       _UpdateStatementStatusForForm 00017fab f   SetupBrowser:Presentation.obj
 0001:00007023       _UpdateStatementStatusForFormSet 00018023 f   SetupBrowser:Presentation.obj
 0001:00007084       _UpdateStatementStatus     00018084 f   SetupBrowser:Presentation.obj
 0001:00007106       _ProcessAction             00018106 f   SetupBrowser:Presentation.obj
 0001:00007210       _GetFormsetGuidFromHiiHandle 00018210 f   SetupBrowser:Presentation.obj
 0001:0000732c       _DevicePathToHiiHandle     0001832c f   SetupBrowser:Presentation.obj
 0001:000073eb       _FormSetGuidToHiiHandle    000183eb f   SetupBrowser:Presentation.obj
 0001:0000745d       _ProcessChangedData        0001845d f   SetupBrowser:Presentation.obj
 0001:0000749e       _FindParentFormSet         0001849e f   SetupBrowser:Presentation.obj
 0001:000074ef       _ProcessGotoOpCode         000184ef f   SetupBrowser:Presentation.obj
 0001:000076f2       _ProcessQuestionConfig     000186f2 f   SetupBrowser:Presentation.obj
 0001:0000773a       _ProcessUserInput          0001873a f   SetupBrowser:Presentation.obj
 0001:00007970       _DisplayForm               00018970 f   SetupBrowser:Presentation.obj
 0001:00007a63       _FormUpdateNotify          00018a63 f   SetupBrowser:Presentation.obj
 0001:00007a6d       _IsNvUpdateRequiredForFormSet 00018a6d f   SetupBrowser:Presentation.obj
 0001:00007ad6       _IsNvUpdateRequiredForForm 00018ad6 f   SetupBrowser:Presentation.obj
 0001:00007b32       _FindNextMenu              00018b32 f   SetupBrowser:Presentation.obj
 0001:00007c31       _ProcessCallBackFunction   00018c31 f   SetupBrowser:Presentation.obj
 0001:000080c5       _ProcessRetrieveForQuestion 000190c5 f   SetupBrowser:Presentation.obj
 0001:000081b7       _SetupBrowser              000191b7 f   SetupBrowser:Presentation.obj
 0001:000085c8       _GrowStack                 000195c8 f   SetupBrowser:Expression.obj
 0001:00008641       _PushStack                 00019641 f   SetupBrowser:Expression.obj
 0001:000086aa       _GrowConditionalStack      000196aa f   SetupBrowser:Expression.obj
 0001:00008726       _PushConditionalStack      00019726 f   SetupBrowser:Expression.obj
 0001:00008757       _GetConditionalExpressionCount 00019757 f   SetupBrowser:Expression.obj
 0001:000087a2       _PushConditionalExpression 000197a2 f   SetupBrowser:Expression.obj
 0001:00008816       _PopConditionalExpression  00019816 f   SetupBrowser:Expression.obj
 0001:0000889f       _PushScope                 0001989f f   SetupBrowser:Expression.obj
 0001:000088ca       _PopScope                  000198ca f   SetupBrowser:Expression.obj
 0001:00008908       _PopExpression             00019908 f   SetupBrowser:Expression.obj
 0001:0000893a       _IdToForm                  0001993a f   SetupBrowser:Expression.obj
 0001:00008995       _IdToQuestion2             00019995 f   SetupBrowser:Expression.obj
 0001:000089f6       _IdToQuestion              000199f6 f   SetupBrowser:Expression.obj
 0001:00008a93       _RuleIdToExpression        00019a93 f   SetupBrowser:Expression.obj
 0001:00008aef       _InitializeUnicodeCollationProtocol 00019aef f   SetupBrowser:Expression.obj
 0001:00008b16       _IfrStrToUpper             00019b16 f   SetupBrowser:Expression.obj
 0001:00008b38       _IsTypeInBuffer            00019b38 f   SetupBrowser:Expression.obj
 0001:00008b4d       _GetLengthForValue         00019b4d f   SetupBrowser:Expression.obj
 0001:00008b74       _GetBufferForValue         00019b74 f   SetupBrowser:Expression.obj
 0001:00008b92       _IfrToString               00019b92 f   SetupBrowser:Expression.obj
 0001:00008d26       _IfrToUint                 00019d26 f   SetupBrowser:Expression.obj
 0001:00008e3a       _IfrCatenate               00019e3a f   SetupBrowser:Expression.obj
 0001:00009073       _IfrMatch                  0001a073 f   SetupBrowser:Expression.obj
 0001:00009138       _IfrMatch2                 0001a138 f   SetupBrowser:Expression.obj
 0001:0000937d       _IfrFind                   0001a37d f   SetupBrowser:Expression.obj
 0001:000094bf       _IfrMid                    0001a4bf f   SetupBrowser:Expression.obj
 0001:0000965c       _IfrToken                  0001a65c f   SetupBrowser:Expression.obj
 0001:000097a5       _IfrSpan                   0001a7a5 f   SetupBrowser:Expression.obj
 0001:00009928       _ExtendValueToU64          0001a928 f   SetupBrowser:Expression.obj
 0001:00009962       _HiiValueToUINT64          0001a962 f   SetupBrowser:Expression.obj
 0001:00009995       _CompareHiiValue           0001a995 f   SetupBrowser:Expression.obj
 0001:00009b20       _CheckUserPrivilege        0001ab20 f   SetupBrowser:Expression.obj
 0001:00009c91       _GetQuestionValueFromForm  0001ac91 f   SetupBrowser:Expression.obj
 0001:00009e1c       _EvaluateExpression        0001ae1c f   SetupBrowser:Expression.obj
 0001:0000b0fc       _IsTrue                    0001c0fc f   SetupBrowser:Expression.obj
 0001:0000b137       _EvaluateExpressionList    0001c137 f   SetupBrowser:Expression.obj
 0001:0000b1ef       _CreateStatement           0001c1ef f   SetupBrowser:IfrParse.obj
 0001:0000b31e       _CreateQuestion            0001c31e f   SetupBrowser:IfrParse.obj
 0001:0000b549       _CreateExpression          0001c549 f   SetupBrowser:IfrParse.obj
 0001:0000b588       _FindStorageInList         0001c588 f   SetupBrowser:IfrParse.obj
 0001:0000b65f       _IntializeBrowserStorage   0001c65f f   SetupBrowser:IfrParse.obj
 0001:0000b710       _CreateStorage             0001c710 f   SetupBrowser:IfrParse.obj
 0001:0000b8d5       _GetFstStgFromVarId        0001c8d5 f   SetupBrowser:IfrParse.obj
 0001:0000b94a       _GetFstStgFromBrsStg       0001c94a f   SetupBrowser:IfrParse.obj
 0001:0000ba14       _InitializeRequestElement  0001ca14 f   SetupBrowser:IfrParse.obj
 0001:0000bcbf       _DestroyExpression         0001ccbf f   SetupBrowser:IfrParse.obj
 0001:0000bd8d       _DestroyStatement          0001cd8d f   SetupBrowser:IfrParse.obj
 0001:0000bf8a       _DestroyForm               0001cf8a f   SetupBrowser:IfrParse.obj
 0001:0000c09f       _DestroyFormSet            0001d09f f   SetupBrowser:IfrParse.obj
 0001:0000c23a       _IsExpressionOpCode        0001d23a f   SetupBrowser:IfrParse.obj
 0001:0000c281       _IsStatementOpCode         0001d281 f   SetupBrowser:IfrParse.obj
 0001:0000c2d0       _ParseOpCodes              0001d2d0 f   SetupBrowser:IfrParse.obj
 0001:0000e034       _DebugPrint                0001f034 f   PeiDxeDebugLibReportStatusCode:DebugLib.obj
 0001:0000e18b       _DebugAssert               0001f18b f   PeiDxeDebugLibReportStatusCode:DebugLib.obj
 0001:0000e28c       _CompareMem                0001f28c f   BaseMemoryLibOptDxe:CompareMemWrapper.obj
 0001:0000e31b       _CopyGuid                  0001f31b f   BaseMemoryLibOptDxe:MemLibGuid.obj
 0001:0000e34b       _CompareGuid               0001f34b f   BaseMemoryLibOptDxe:MemLibGuid.obj
 0001:0000e3aa       _IsZeroGuid                0001f3aa f   BaseMemoryLibOptDxe:MemLibGuid.obj
 0001:0000e3d2       _CopyMem                   0001f3d2 f   BaseMemoryLibOptDxe:CopyMemWrapper.obj
 0001:0000e437       _ZeroMem                   0001f437 f   BaseMemoryLibOptDxe:ZeroMemWrapper.obj
 0001:0000e47c       _InternalSafeStringIsOverlap 0001f47c f   BaseLib:SafeString.obj
 0001:0000e4a2       _InternalSafeStringNoStrOverlap 0001f4a2 f   BaseLib:SafeString.obj
 0001:0000e4c1       _StrnLenS                  0001f4c1 f   BaseLib:SafeString.obj
 0001:0000e50b       _StrCpyS                   0001f50b f   BaseLib:SafeString.obj
 0001:0000e630       _StrnCpyS                  0001f630 f   BaseLib:SafeString.obj
 0001:0000e782       _StrCatS                   0001f782 f   BaseLib:SafeString.obj
 0001:0000e8e1       _StrDecimalToUint64S       0001f8e1 f   BaseLib:SafeString.obj
 0001:0000ea2d       _StrHexToUint64S           0001fa2d f   BaseLib:SafeString.obj
 0001:0000ebad       _AsciiStrnLenS             0001fbad f   BaseLib:SafeString.obj
 0001:0000ebd4       _AsciiStrCpyS              0001fbd4 f   BaseLib:SafeString.obj
 0001:0000ec95       _InternalBaseLibIsListValid 0001fc95 f   BaseLib:LinkedList.obj
 0001:0000ecf9       _InitializeListHead        0001fcf9 f   BaseLib:LinkedList.obj
 0001:0000ed1e       _InsertHeadList            0001fd1e f   BaseLib:LinkedList.obj
 0001:0000ed55       _InsertTailList            0001fd55 f   BaseLib:LinkedList.obj
 0001:0000ed8d       _GetFirstNode              0001fd8d f   BaseLib:LinkedList.obj
 0001:0000edb2       _GetNextNode               0001fdb2 f   BaseLib:LinkedList.obj
 0001:0000edd7       _IsListEmpty               0001fdd7 f   BaseLib:LinkedList.obj
 0001:0000edff       _IsNull                    0001fdff f   BaseLib:LinkedList.obj
 0001:0000ee2d       _RemoveEntryList           0001fe2d f   BaseLib:LinkedList.obj
 0001:0000ee61       _StrLen                    0001fe61 f   BaseLib:String.obj
 0001:0000eec9       _StrSize                   0001fec9 f   BaseLib:String.obj
 0001:0000eed8       _StrCmp                    0001fed8 f   BaseLib:String.obj
 0001:0000ef3d       _StrStr                    0001ff3d f   BaseLib:String.obj
 0001:0000efd6       _InternalHexCharToUintn    0001ffd6 f   BaseLib:String.obj
 0001:0000f001       _InternalIsHexaDecimalDigitCharacter 00020001 f   BaseLib:String.obj
 0001:0000f028       _StrHexToUint64            00020028 f   BaseLib:String.obj
 0001:0000f041       _AsciiStrLen               00020041 f   BaseLib:String.obj
 0001:0000f08c       _AsciiStrnCmp              0002008c f   BaseLib:String.obj
 0001:0000f11c       _InternalBaseLibBitFieldOrUint 0002011c f   BaseLib:BitField.obj
 0001:0000f168       _InternalBaseLibBitFieldAndUint 00020168 f   BaseLib:BitField.obj
 0001:0000f1b1       _BitFieldRead32            000201b1 f   BaseLib:BitField.obj
 0001:0000f203       _BitFieldWrite32           00020203 f   BaseLib:BitField.obj
 0001:0000f259       _BitFieldAndThenOr32       00020259 f   BaseLib:BitField.obj
 0001:0000f315       _DivU64x32                 00020315 f   BaseLib:DivU64x32.obj
 0001:0000f345       _RShiftU64                 00020345 f   BaseLib:RShiftU64.obj
 0001:0000f37f       _DivU64x32Remainder        0002037f f   BaseLib:DivU64x32Remainder.obj
 0001:0000f3bd       _LShiftU64                 000203bd f   BaseLib:LShiftU64.obj
 0001:0000f3f7       _ReadUnaligned16           000203f7 f   BaseLib:Unaligned.obj
 0001:0000f416       _ReadUnaligned32           00020416 f   BaseLib:Unaligned.obj
 0001:0000f436       _ReadUnaligned64           00020436 f   BaseLib:Unaligned.obj
 0001:0000f459       _WriteUnaligned64          00020459 f   BaseLib:Unaligned.obj
 0001:0000f484       _InternalAllocatePool      00020484 f   UefiMemoryAllocationLib:MemoryAllocationLib.obj
 0001:0000f4a9       _InternalAllocateZeroPool  000204a9 f   UefiMemoryAllocationLib:MemoryAllocationLib.obj
 0001:0000f4c5       _InternalAllocateCopyPool  000204c5 f   UefiMemoryAllocationLib:MemoryAllocationLib.obj
 0001:0000f51e       _FreePool                  0002051e f   UefiMemoryAllocationLib:MemoryAllocationLib.obj
 0001:0000f554       _DevicePathSubType         00020554 f   UefiDevicePathLibDevicePathProtocol:UefiDevicePathLib.obj
 0001:0000f575       _IsDevicePathEndType       00020575 f   UefiDevicePathLibDevicePathProtocol:UefiDevicePathLib.obj
 0001:0000f5ae       _IsDevicePathEnd           000205ae f   UefiDevicePathLibDevicePathProtocol:UefiDevicePathLib.obj
 0001:0000f5e8       _DevicePathFromHandle      000205e8 f   UefiDevicePathLibDevicePathProtocol:UefiDevicePathLib.obj
 0001:0000f610       _UnicodeSPrint             00020610 f   BasePrintLib:PrintLib.obj
 0001:0000f665       _UnicodeValueToStringS     00020665 f   BasePrintLib:PrintLib.obj
 0001:0000f6a7       _BasePrintLibFillBuffer    000206a7 f   BasePrintLib:PrintLibInternal.obj
 0001:0000f6db       _BasePrintLibValueToString 000206db f   BasePrintLib:PrintLibInternal.obj
 0001:0000f713       _BasePrintLibConvertValueToStringS 00020713 f   BasePrintLib:PrintLibInternal.obj
 0001:0000f9c2       _BasePrintLibSPrintMarker  000209c2 f   BasePrintLib:PrintLibInternal.obj
 0001:0001059b       _BasePrintLibSPrint        0002159b f   BasePrintLib:PrintLibInternal.obj
 0001:000105ba       _EfiGetSystemConfigurationTable 000215ba f   UefiLib:UefiLib.obj
 0001:00010614       _EfiCreateProtocolNotifyEvent 00021614 f   UefiLib:UefiLib.obj
 0001:000106e2       _EfiEventEmptyFunction     000216e2 f   UefiLib:UefiLib.obj
 0001:000106e3       _GetVariable2              000216e3 f   UefiLib:UefiLib.obj
 0001:0001078f       _GetBestLanguage           0002178f f   UefiLib:UefiLib.obj
 0001:0001089a       _GetHobList                0002189a f   DxeHobLib:HobLib.obj
 0001:000108f4       _GetNextHob                000218f4 f   DxeHobLib:HobLib.obj
 0001:00010931       _GetDebugPrintErrorLevel   00021931 f   DxeDebugPrintErrorLevelLib:DxeDebugPrintErrorLevelLib.obj
 0001:00010a27       _GetDebugMask              00021a27 f   DxeDebugPrintErrorLevelLib:DxeDebugPrintErrorLevelLib.obj
 0001:00010a3f       _SetDebugMask              00021a3f f   DxeDebugPrintErrorLevelLib:DxeDebugPrintErrorLevelLib.obj
 0001:00010a4b       _UefiHiiServicesLibConstructor 00021a4b f   UefiHiiServicesLib:UefiHiiServicesLib.obj
 0001:00010b38       _HiiGetHiiHandles          00021b38 f   UefiHiiLib:HiiLib.obj
 0001:00010ba6       _HiiConstructConfigHdr     00021ba6 f   UefiHiiLib:HiiLib.obj
 0001:00010dd4       _HiiSetString              00021dd4 f   UefiHiiLib:HiiString.obj
 0001:00010ed7       _HiiGetString              00021ed7 f   UefiHiiLib:HiiString.obj
 0001:00010ff2       _HiiGetSupportedLanguages  00021ff2 f   UefiHiiLib:HiiLanguage.obj
 0001:0001106b       _InternalGetReportStatusCode 0002206b f   DxeReportStatusCodeLib:ReportStatusCodeLib.obj
 0001:000110a4       _InternalReportStatusCode  000220a4 f   DxeReportStatusCodeLib:ReportStatusCodeLib.obj
 0001:000110eb       _ReportStatusCodeEx        000220eb f   DxeReportStatusCodeLib:ReportStatusCodeLib.obj
 0002:00000038       ??_C@_0CB@DMEJJJHA@?6ASSERT_EFI_ERROR?5?$CIStatus?5?$DN?5?$CFr?$CJ?6@ 00023038     UefiDriverEntryPoint:DriverEntryPoint.obj
 0002:0000005c       ??_C@_0BE@DCHLEIGN@?$CBEFI_ERROR?5?$CIStatus?$CJ?$AA@ 0002305c     UefiDriverEntryPoint:DriverEntryPoint.obj
 0002:00000070       ??_C@_0N@NCICMNKN@SetupBrowser?$AA@ 00023070     SetupBrowser:AutoGen.obj
 0002:00000080       ??_C@_0HD@KICMNBK@c?3?2edk2?2Build?2NT32IA32?2DEBUG_VS2@ 00023080     SetupBrowser:AutoGen.obj
 0002:000000f4       ??_C@_13MGDFOILI@?$AA?$CB?$AA?$AA@ 000230f4     SetupBrowser:Setup.obj
 0002:000000f8       ??_C@_0BF@NDBIKIKC@CR?5has?5Bad?5Signature?$AA@ 000230f8     SetupBrowser:Setup.obj
 0002:00000110       ??_C@_0DH@HIBKGLPL@c?3?2edk2?2MdeModulePkg?2Universal?2S@ 00023110     SetupBrowser:Setup.obj
 0002:00000148       ??_C@_0DK@IJHEFPAB@SettingLevel?5?$DN?$DN?5FormLevel?5?$HM?$HM?5Set@ 00023148     SetupBrowser:Setup.obj
 0002:00000184       ??_C@_0BN@LKNBJPEL@NewMenuEntry?5?$CB?$DN?5?$CI?$CIvoid?5?$CK?$CJ?50?$CJ?$AA@ 00023184     SetupBrowser:Setup.obj
 0002:000001a4       ??_C@_0BL@IONPMOEP@HiiHandles?5?$CB?$DN?5?$CI?$CIvoid?5?$CK?$CJ?50?$CJ?$AA@ 000231a4     SetupBrowser:Setup.obj
 0002:000001c0       ??_C@_0BN@JKIBMOPP@LocalFormSet?5?$CB?$DN?5?$CI?$CIvoid?5?$CK?$CJ?50?$CJ?$AA@ 000231c0     SetupBrowser:Setup.obj
 0002:000001e0       ??_C@_0BK@KKHDKLJL@Statement?5?$CB?$DN?5?$CI?$CIvoid?5?$CK?$CJ?50?$CJ?$AA@ 000231e0     SetupBrowser:Setup.obj
 0002:000001fc       ??_C@_0DL@CHCMHJHP@Fatal?5Error?$CB?5EDKII_FORM_DISPLAY_@ 000231fc     SetupBrowser:Setup.obj
 0002:00000238       ??_C@_11LOCGONAA@?$AA?$AA@ 00023238     SetupBrowser:Setup.obj
 0002:0000023c       ??_C@_0BK@EMAPFBAF@Selection?5?$CB?$DN?5?$CI?$CIvoid?5?$CK?$CJ?50?$CJ?$AA@ 0002323c     SetupBrowser:Setup.obj
 0002:00000258       ??_C@_0BI@DCAIAKBG@FormSet?5?$CB?$DN?5?$CI?$CIvoid?5?$CK?$CJ?50?$CJ?$AA@ 00023258     SetupBrowser:Setup.obj
 0002:00000270       ??_C@_19IJOJOJIB@?$AAP?$AAA?$AAT?$AAH?$AA?$AA@ 00023270     SetupBrowser:Setup.obj
 0002:0000027c       ??_C@_0BH@GGIPKJKJ@StrPtr?5?$CB?$DN?5?$CI?$CIvoid?5?$CK?$CJ?50?$CJ?$AA@ 0002327c     SetupBrowser:Setup.obj
 0002:00000294       ??_C@_13FLOCNAAB@?$AA?$CG?$AA?$AA@ 00023294     SetupBrowser:Setup.obj
 0002:00000298       ??_C@_0BP@CMBLIOEG@BrowserStorage?5?$CB?$DN?5?$CI?$CIvoid?5?$CK?$CJ?50?$CJ?$AA@ 00023298     SetupBrowser:Setup.obj
 0002:000002b8       ??_C@_0BL@IKMGLHBA@ConfigResp?5?$CB?$DN?5?$CI?$CIvoid?5?$CK?$CJ?50?$CJ?$AA@ 000232b8     SetupBrowser:Setup.obj
 0002:000002d4       ??_C@_0O@EMMLPDMJ@StringId?5?$CB?$DN?50?$AA@ 000232d4     SetupBrowser:Setup.obj
 0002:000002e4       ??_C@_0BH@MAAHKCPC@String?5?$CB?$DN?5?$CI?$CIvoid?5?$CK?$CJ?50?$CJ?$AA@ 000232e4     SetupBrowser:Setup.obj
 0002:000002fc       ??_C@_0BG@NJLDKBEH@?$CKDest?5?$CB?$DN?5?$CI?$CIvoid?5?$CK?$CJ?50?$CJ?$AA@ 000232fc     SetupBrowser:Setup.obj
 0002:00000314       ??_C@_0BK@HACKOMPP@NewString?5?$CB?$DN?5?$CI?$CIvoid?5?$CK?$CJ?50?$CJ?$AA@ 00023314     SetupBrowser:Setup.obj
 0002:00000330       ??_C@_0BH@IACGKAP@Buffer?5?$CB?$DN?5?$CI?$CIvoid?5?$CK?$CJ?50?$CJ?$AA@ 00023330     SetupBrowser:Setup.obj
 0002:00000348       ??_C@_0BP@PAMADMNP@FormsetStorage?5?$CB?$DN?5?$CI?$CIvoid?5?$CK?$CJ?50?$CJ?$AA@ 00023348     SetupBrowser:Setup.obj
 0002:00000368       ??_C@_13NMPKAAJP@?$AA?$DN?$AA?$AA@ 00023368     SetupBrowser:Setup.obj
 0002:00000370       ??_C@_0EN@IEPODJOD@Question?9?$DOHiiValue?4Type?5?$DN?$DN?50x0B?5@ 00023370     SetupBrowser:Setup.obj
 0002:000003c0       ??_C@_0BG@GJANEBOB@Value?5?$CB?$DN?5?$CI?$CIvoid?5?$CK?$CJ?50?$CJ?$AA@ 000233c0     SetupBrowser:Setup.obj
 0002:000003d8       ??_C@_0BO@KAEFIFMO@ConfigRequest?5?$CB?$DN?5?$CI?$CIvoid?5?$CK?$CJ?50?$CJ?$AA@ 000233d8     SetupBrowser:Setup.obj
 0002:000003f8       ??_C@_1O@DHGHMAMN@?$AA?$CG?$AAV?$AAA?$AAL?$AAU?$AAE?$AA?$AA@ 000233f8     SetupBrowser:Setup.obj
 0002:00000408       ??_C@_1BA@OHHBHMKI@?$AA?$CG?$AAV?$AAA?$AAL?$AAU?$AAE?$AA?$DN?$AA?$AA@ 00023408     SetupBrowser:Setup.obj
 0002:00000418       ??_C@_0BC@FEDIJHFF@?$CI?$CIBOOLEAN?$CJ?$CI0?$DN?$DN1?$CJ?$CJ?$AA@ 00023418     SetupBrowser:Setup.obj
 0002:0000042c       ??_C@_0CJ@KNPEFDNM@?$CI?$CKProgress?5?$DN?$DN?5?8?$CG?8?$CJ?5?$HM?$HM?5?$CI?$CKProgress@ 0002342c     SetupBrowser:Setup.obj
 0002:00000458       ??_C@_1M@PJAPFKED@?$AAP?$AAA?$AAT?$AAH?$AA?$DN?$AA?$AA@ 00023458     SetupBrowser:Setup.obj
 0002:00000464       ??_C@_0BH@KGKDKCLO@EndStr?5?$CB?$DN?5?$CI?$CIvoid?5?$CK?$CJ?50?$CJ?$AA@ 00023464     SetupBrowser:Setup.obj
 0002:0000047c       ??_C@_1BC@KLGPJAMP@?$AA?$CG?$AAO?$AAF?$AAF?$AAS?$AAE?$AAT?$AA?$DN?$AA?$AA@ 0002347c     SetupBrowser:Setup.obj
 0002:00000490       ??_C@_0CL@OBFNCMMM@?$CI?$CKProgress?5?$DN?$DN?5L?8?$CG?8?$CJ?5?$HM?$HM?5?$CI?$CKProgres@ 00023490     SetupBrowser:Setup.obj
 0002:000004bc       ??_C@_0CG@EEEMPLPF@?$CKRestoreConfigRequest?5?$CB?$DN?5?$CI?$CIvoid?5@ 000234bc     SetupBrowser:Setup.obj
 0002:000004e4       ??_C@_0CA@NLCAJILJ@ConfigHdrEndStr?5?$CB?$DN?5?$CI?$CIvoid?5?$CK?$CJ?50?$CJ?$AA@ 000234e4     SetupBrowser:Setup.obj
 0002:00000504       ??_C@_0BL@KJLFLBAF@ElementStr?5?$CB?$DN?5?$CI?$CIvoid?5?$CK?$CJ?50?$CJ?$AA@ 00023504     SetupBrowser:Setup.obj
 0002:00000520       ??_C@_0CD@KCGICJEB@?$CKSyncConfigRequest?5?$CB?$DN?5?$CI?$CIvoid?5?$CK?$CJ?5@ 00023520     SetupBrowser:Setup.obj
 0002:00000544       ??_C@_0BN@KDBDLHMK@StringBuffer?5?$CB?$DN?5?$CI?$CIvoid?5?$CK?$CJ?50?$CJ?$AA@ 00023544     SetupBrowser:Setup.obj
 0002:00000564       ??_C@_1DE@JNMHOEJ@?$AAS?$AAu?$AAb?$AAm?$AAi?$AAt?$AA?5?$AAF?$AAa?$AAi?$AAl?$AA?5?$AAF?$AAo?$AAr?$AA?5?$AAF?$AAo?$AAr?$AAm?$AA?3?$AA?5?$AA?$CF?$AAs?$AA?4?$AA?$AA@ 00023564     SetupBrowser:Setup.obj
 0002:00000598       ??_C@_1EC@OLNKANDF@?$AAN?$AAO?$AA_?$AAS?$AAU?$AAB?$AAM?$AAI?$AAT?$AA_?$AAI?$AAF?$AA?5?$AAe?$AAr?$AAr?$AAo?$AAr?$AA?5?$AAF?$AAo?$AAr?$AA?5?$AAF?$AAo?$AAr?$AAm?$AA?3?$AA?5?$AA?$CF?$AAs?$AA?4@ 00023598     SetupBrowser:Setup.obj
 0002:000005dc       ??_C@_0DB@GEDMJLNM@Form?5?$CB?$DN?5?$CI?$CIvoid?5?$CK?$CJ?50?$CJ?5?$CG?$CG?5Question@ 000235dc     SetupBrowser:Setup.obj
 0002:00000610       ??_C@_0BN@EHPNHAIF@ConfigString?5?$CB?$DN?5?$CI?$CIvoid?5?$CK?$CJ?50?$CJ?$AA@ 00023610     SetupBrowser:Setup.obj
 0002:00000630       ??_C@_0BK@IKGKLHMJ@BlockData?5?$CB?$DN?5?$CI?$CIvoid?5?$CK?$CJ?50?$CJ?$AA@ 00023630     SetupBrowser:Setup.obj
 0002:0000064c       ??_C@_0BG@KEJHFGFH@Array?5?$CB?$DN?5?$CI?$CIvoid?5?$CK?$CJ?50?$CJ?$AA@ 0002364c     SetupBrowser:Setup.obj
 0002:00000664       ??_C@_0DP@EAKOAIDN@StrLen?5?$CINewString?$CJ?5?$CK?5sizeof?5?$CICHA@ 00023664     SetupBrowser:Setup.obj
 0002:000006a8       ??_C@_0EA@DDHKAGAC@HiiValue?9?$DOType?5?$DN?$DN?50x0B?5?$CG?$CG?5Questi@ 000236a8     SetupBrowser:Setup.obj
 0002:000006e8       ??_C@_0CB@LMKIAJK@HiiValue?9?$DOBuffer?5?$CB?$DN?5?$CI?$CIvoid?5?$CK?$CJ?50?$CJ@ 000236e8     SetupBrowser:Setup.obj
 0002:0000070c       ??_C@_0BN@MAPPMEDF@BackUpBuffer?5?$CB?$DN?5?$CI?$CIvoid?5?$CK?$CJ?50?$CJ?$AA@ 0002370c     SetupBrowser:Setup.obj
 0002:0000072c       ??_C@_0BO@EJLJOOFN@BackUpBuffer2?5?$CB?$DN?5?$CI?$CIvoid?5?$CK?$CJ?50?$CJ?$AA@ 0002372c     SetupBrowser:Setup.obj
 0002:00000750       ??_C@_0EJ@MNBONPGK@Storage?9?$DOConfigRequest?5?$CB?$DN?5?$CI?$CIvoid@ 00023750     SetupBrowser:Setup.obj
 0002:0000079c       ??_C@_1BA@MMGOHHMM@?$AA?$CG?$AAO?$AAF?$AAF?$AAS?$AAE?$AAT?$AA?$AA@ 0002379c     SetupBrowser:Setup.obj
 0002:000007ac       ??_C@_0BP@KOOPOOKN@RequestElement?5?$CB?$DN?5?$CI?$CIvoid?5?$CK?$CJ?50?$CJ?$AA@ 000237ac     SetupBrowser:Setup.obj
 0002:000007cc       ??_C@_0BH@GADOMDOK@NewStr?5?$CB?$DN?5?$CI?$CIvoid?5?$CK?$CJ?50?$CJ?$AA@ 000237cc     SetupBrowser:Setup.obj
 0002:000007e4       ??_C@_0CD@GICIAKKE@NextRequestElement?5?$CB?$DN?5?$CI?$CIvoid?5?$CK?$CJ?5@ 000237e4     SetupBrowser:Setup.obj
 0002:00000808       ??_C@_1CO@DECMKNLF@?$AA?$CF?$AAs?$AA?$CG?$AAO?$AAF?$AAF?$AAS?$AAE?$AAT?$AA?$DN?$AA0?$AA?$CG?$AAW?$AAI?$AAD?$AAT?$AAH?$AA?$DN?$AA?$CF?$AA0?$AA4?$AAx?$AA?$AA@ 00023808     SetupBrowser:Setup.obj
 0002:00000838       ??_C@_1O@KAHOBHOF@?$AA?$CG?$AAG?$AAU?$AAI?$AAD?$AA?$DN?$AA?$AA@ 00023838     SetupBrowser:Setup.obj
 0002:00000848       ??_C@_0BP@JFMDNGDC@HiiPackageList?5?$CB?$DN?5?$CI?$CIvoid?5?$CK?$CJ?50?$CJ?$AA@ 00023848     SetupBrowser:Setup.obj
 0002:00000868       ??_C@_0BI@DNICFLOF@Context?5?$CB?$DN?5?$CI?$CIvoid?5?$CK?$CJ?50?$CJ?$AA@ 00023868     SetupBrowser:Setup.obj
 0002:00000880       ??_C@_0BK@JLAANJCP@gBrowserContextCount?5?$CB?$DN?50?$AA@ 00023880     SetupBrowser:Setup.obj
 0002:0000089c       ??_C@_0CE@OLHOFBAK@?$CBIsListEmpty?5?$CI?$CGgBrowserContextLi@ 0002389c     SetupBrowser:Setup.obj
 0002:000008c0       ??_C@_0BJ@MDHPLH@Question?5?$CB?$DN?5?$CI?$CIvoid?5?$CK?$CJ?50?$CJ?$AA@ 000238c0     SetupBrowser:Setup.obj
 0002:000008dc       ??_C@_0BH@CFJDGJFI@HotKey?5?$CB?$DN?5?$CI?$CIvoid?5?$CK?$CJ?50?$CJ?$AA@ 000238dc     SetupBrowser:Setup.obj
 0002:000008f4       ??_C@_0DO@KIAMJLM@c?3?2edk2?2MdeModulePkg?2Universal?2S@ 000238f4     SetupBrowser:Presentation.obj
 0002:00000934       ??_C@_0BK@JDDKFLNK@EventNode?5?$CB?$DN?5?$CI?$CIvoid?5?$CK?$CJ?50?$CJ?$AA@ 00023934     SetupBrowser:Presentation.obj
 0002:00000950       ??_C@_0BO@NOINPJLH@DisplayOption?5?$CB?$DN?5?$CI?$CIvoid?5?$CK?$CJ?50?$CJ?$AA@ 00023950     SetupBrowser:Presentation.obj
 0002:00000970       ??_C@_0CA@GFHKILOE@ParentStatement?5?$CB?$DN?5?$CI?$CIvoid?5?$CK?$CJ?50?$CJ?$AA@ 00023970     SetupBrowser:Presentation.obj
 0002:00000990       ??_C@_0BI@CDNAJMMF@CopyKey?5?$CB?$DN?5?$CI?$CIvoid?5?$CK?$CJ?50?$CJ?$AA@ 00023990     SetupBrowser:Presentation.obj
 0002:000009a8       ??_C@_0CB@CPIPEKIG@CopyKey?9?$DOKeyData?5?$CB?$DN?5?$CI?$CIvoid?5?$CK?$CJ?50?$CJ@ 000239a8     SetupBrowser:Presentation.obj
 0002:000009cc       ??_C@_0CE@OEDFHIJO@CopyKey?9?$DOHelpString?5?$CB?$DN?5?$CI?$CIvoid?5?$CK?$CJ@ 000239cc     SetupBrowser:Presentation.obj
 0002:000009f0       ??_C@_0CB@LLGPBMJG@DisplayStatement?5?$CB?$DN?5?$CI?$CIvoid?5?$CK?$CJ?50?$CJ@ 000239f0     SetupBrowser:Presentation.obj
 0002:00000a14       ??_C@_0BL@JFODOCGB@DevicePath?5?$CB?$DN?5?$CI?$CIvoid?5?$CK?$CJ?50?$CJ?$AA@ 00023a14     SetupBrowser:Presentation.obj
 0002:00000a30       ??_C@_0BO@CNJADLFN@ComparingGuid?5?$CB?$DN?5?$CI?$CIvoid?5?$CK?$CJ?50?$CJ?$AA@ 00023a30     SetupBrowser:Presentation.obj
 0002:00000a50       ??_C@_0EH@MJINFEEC@UserInput?9?$DOAction?5?$CB?$DN?50?5?$HM?$HM?5UserIn@ 00023a50     SetupBrowser:Presentation.obj
 0002:00000a98       ??_C@_0BM@OFLAELCN@CurrentMenu?5?$CB?$DN?5?$CI?$CIvoid?5?$CK?$CJ?50?$CJ?$AA@ 00023a98     SetupBrowser:Presentation.obj
 0002:00000ab4       ??_C@_0CG@LKKPELAF@gDisplayFormData?4BrowserStatus?5?$DN@ 00023ab4     SetupBrowser:Presentation.obj
 0002:00000ae0       ??_C@_0EA@BACOHGNG@StrLen?5?$CINewString?$CJ?5?$CK?5sizeof?5?$CICHA@ 00023ae0     SetupBrowser:Presentation.obj
 0002:00000b20       ??_C@_0CE@BKGMEKGE@?$CI?$CKStackPtr?$CJ?9?$DOBuffer?5?$CB?$DN?5?$CI?$CIvoid?5?$CK?$CJ@ 00023b20     SetupBrowser:Expression.obj
 0002:00000b44       ??_C@_0DM@CNANCJKP@c?3?2edk2?2MdeModulePkg?2Universal?2S@ 00023b44     SetupBrowser:Expression.obj
 0002:00000b80       ??_C@_17OADJODNB@?$AA?$CF?$AAl?$AAd?$AA?$AA@ 00023b80     SetupBrowser:Expression.obj
 0002:00000b88       ??_C@_17PKPGALPG@?$AA?$CF?$AAl?$AAx?$AA?$AA@ 00023b88     SetupBrowser:Expression.obj
 0002:00000b90       ??_C@_17FKMEKEMI@?$AA?$CF?$AAl?$AAX?$AA?$AA@ 00023b90     SetupBrowser:Expression.obj
 0002:00000b98       ??_C@_19BFOILMBF@?$AAT?$AAr?$AAu?$AAe?$AA?$AA@ 00023b98     SetupBrowser:Expression.obj
 0002:00000ba4       ??_C@_1M@GDFLIJGE@?$AAF?$AAa?$AAl?$AAs?$AAe?$AA?$AA@ 00023ba4     SetupBrowser:Expression.obj
 0002:00000bb0       ??_C@_0BH@CLIPOOBE@TmpBuf?5?$CB?$DN?5?$CI?$CIvoid?5?$CK?$CJ?50?$CJ?$AA@ 00023bb0     SetupBrowser:Expression.obj
 0002:00000bc8       ??_C@_15JKMGFKLP@?$AA?$CF?$AAa?$AA?$AA@ 00023bc8     SetupBrowser:Expression.obj
 0002:00000bd0       ??_C@_15GANGMFKL@?$AA?$CF?$AAs?$AA?$AA@ 00023bd0     SetupBrowser:Expression.obj
 0002:00000bd8       ??_C@_15EEPOHOLM@?$AA0?$AAX?$AA?$AA@ 00023bd8     SetupBrowser:Expression.obj
 0002:00000be0       ??_C@_0BK@OHHEMHCC@StringPtr?5?$CB?$DN?5?$CI?$CIvoid?5?$CK?$CJ?50?$CJ?$AA@ 00023be0     SetupBrowser:Expression.obj
 0002:00000bfc       ??_C@_0BP@EIEKCNDB@Result?9?$DOBuffer?5?$CB?$DN?5?$CI?$CIvoid?5?$CK?$CJ?50?$CJ?$AA@ 00023bfc     SetupBrowser:Expression.obj
 0002:00000c1c       ??_C@_0BN@BOHIKNIF@HandleBuffer?5?$CB?$DN?5?$CI?$CIvoid?5?$CK?$CJ?50?$CJ?$AA@ 00023c1c     SetupBrowser:Expression.obj
 0002:00000c40       ??_C@_0IB@KFHIDHPK@?$CIDevicePath?5?$CB?$DN?5?$CI?$CIvoid?5?$CK?$CJ?50?$CJ?5?$CG?$CG?5I@ 00023c40     SetupBrowser:Expression.obj
 0002:00000cc4       ??_C@_0BK@KLJHMMPJ@HiiHandle?5?$CB?$DN?5?$CI?$CIvoid?5?$CK?$CJ?50?$CJ?$AA@ 00023cc4     SetupBrowser:Expression.obj
 0002:00000ce0       ??_C@_0BF@JNIBMNIB@Form?5?$CB?$DN?5?$CI?$CIvoid?5?$CK?$CJ?50?$CJ?$AA@ 00023ce0     SetupBrowser:Expression.obj
 0002:00000cf8       ??_C@_0BL@KHDGDGDB@Expression?5?$CB?$DN?5?$CI?$CIvoid?5?$CK?$CJ?50?$CJ?$AA@ 00023cf8     SetupBrowser:Expression.obj
 0002:00000d14       ??_C@_19ELAAHEEL@?$AAT?$AAR?$AAU?$AAE?$AA?$AA@ 00023d14     SetupBrowser:Expression.obj
 0002:00000d20       ??_C@_1M@HCOOECOK@?$AAF?$AAA?$AAL?$AAS?$AAE?$AA?$AA@ 00023d20     SetupBrowser:Expression.obj
 0002:00000d2c       ??_C@_0BK@BAEJABNA@NameValue?5?$CB?$DN?5?$CI?$CIvoid?5?$CK?$CJ?50?$CJ?$AA@ 00023d2c     SetupBrowser:Expression.obj
 0002:00000d48       ??_C@_0EM@CLIHPKHD@ExpList?9?$DOSignature?5?$DN?$DN?5?$CI?$CI?$CI?8F?8?$CJ?5?$HM?5@ 00023d48     SetupBrowser:Expression.obj
 0002:00000d94       ??_C@_0DD@BNJMLGNK@?$CI?$CIEFI_IFR_OP_HEADER?5?$CK?$CJ?5OpCodeDat@ 00023d94     SetupBrowser:IfrParse.obj
 0002:00000dc8       ??_C@_0DK@NOGHJGA@c?3?2edk2?2MdeModulePkg?2Universal?2S@ 00023dc8     SetupBrowser:IfrParse.obj
 0002:00000e04       ??_C@_0CG@CKCPKHDO@Statement?9?$DOExpression?5?$CB?$DN?5?$CI?$CIvoid?5@ 00023e04     SetupBrowser:IfrParse.obj
 0002:00000e2c       ??_C@_0CD@CICHGBGI@Statement?9?$DOStorage?5?$CB?$DN?5?$CI?$CIvoid?5?$CK?$CJ?5@ 00023e2c     SetupBrowser:IfrParse.obj
 0002:00000e50       ??_C@_0CI@FCJMMEKE@Statement?9?$DOVariableName?5?$CB?$DN?5?$CI?$CIvoi@ 00023e50     SetupBrowser:IfrParse.obj
 0002:00000e78       ??_C@_0BO@ECGAOMEO@NameValueNode?5?$CB?$DN?5?$CI?$CIvoid?5?$CK?$CJ?50?$CJ?$AA@ 00023e78     SetupBrowser:IfrParse.obj
 0002:00000e98       ??_C@_0CE@MDJACFNL@NameValueNode?9?$DOName?5?$CB?$DN?5?$CI?$CIvoid?5?$CK?$CJ@ 00023e98     SetupBrowser:IfrParse.obj
 0002:00000ebc       ??_C@_0CF@BNJJAENC@NameValueNode?9?$DOValue?5?$CB?$DN?5?$CI?$CIvoid?5?$CK@ 00023ebc     SetupBrowser:IfrParse.obj
 0002:00000ee4       ??_C@_0CJ@MMIMALPJ@NameValueNode?9?$DOEditValue?5?$CB?$DN?5?$CI?$CIvo@ 00023ee4     SetupBrowser:IfrParse.obj
 0002:00000f10       ??_C@_0BM@FGIEGNBG@StorageName?5?$CB?$DN?5?$CI?$CIvoid?5?$CK?$CJ?50?$CJ?$AA@ 00023f10     SetupBrowser:IfrParse.obj
 0002:00000f2c       ??_C@_0BB@KMDMKCCA@StorageType?5?$DN?$DN?51?$AA@ 00023f2c     SetupBrowser:IfrParse.obj
 0002:00000f40       ??_C@_0BO@HEPHOKMP@UnicodeString?5?$CB?$DN?5?$CI?$CIvoid?5?$CK?$CJ?50?$CJ?$AA@ 00023f40     SetupBrowser:IfrParse.obj
 0002:00000f60       ??_C@_0BI@LBDBFON@Storage?5?$CB?$DN?5?$CI?$CIvoid?5?$CK?$CJ?50?$CJ?$AA@ 00023f60     SetupBrowser:IfrParse.obj
 0002:00000f78       ??_C@_1DA@LHLLODBL@?$AA?$CG?$AAO?$AAF?$AAF?$AAS?$AAE?$AAT?$AA?$DN?$AA?$CF?$AA0?$AA4?$AAx?$AA?$CG?$AAW?$AAI?$AAD?$AAT?$AAH?$AA?$DN?$AA?$CF?$AA0?$AA4?$AAx?$AA?$AA@ 00023f78     SetupBrowser:IfrParse.obj
 0002:00000fa8       ??_C@_17ILCPNALA@?$AA?$CG?$AA?$CF?$AAs?$AA?$AA@ 00023fa8     SetupBrowser:IfrParse.obj
 0002:00000fb0       ??_C@_0BL@FIKIPLNB@ConfigInfo?5?$CB?$DN?5?$CI?$CIvoid?5?$CK?$CJ?50?$CJ?$AA@ 00023fb0     SetupBrowser:IfrParse.obj
 0002:00000fcc       ??_C@_0CK@MLEIMBFN@ConfigInfo?9?$DOConfigRequest?5?$CB?$DN?5?$CI?$CIv@ 00023fcc     SetupBrowser:IfrParse.obj
 0002:00000ff8       ??_C@_0CC@CCFCBLAK@MapExpressionList?5?$CB?$DN?5?$CI?$CIvoid?5?$CK?$CJ?50@ 00023ff8     SetupBrowser:IfrParse.obj
 0002:0000101c       ??_C@_0CC@PGIJCEIB@CurrentExpression?5?$CB?$DN?5?$CI?$CIvoid?5?$CK?$CJ?50@ 0002401c     SetupBrowser:IfrParse.obj
 0002:00001040       ??_C@_0BM@CGDALJPP@CurrentForm?5?$CB?$DN?5?$CI?$CIvoid?5?$CK?$CJ?50?$CJ?$AA@ 00024040     SetupBrowser:IfrParse.obj
 0002:0000105c       ??_C@_0DA@GCFPAAIJ@CurrentForm?9?$DOSuppressExpression?5@ 0002405c     SetupBrowser:IfrParse.obj
 0002:0000108c       ??_C@_0BN@LJPHENLK@DefaultStore?5?$CB?$DN?5?$CI?$CIvoid?5?$CK?$CJ?50?$CJ?$AA@ 0002408c     SetupBrowser:IfrParse.obj
 0002:000010ac       ??_C@_0CB@MLGBCBKK@CurrentStatement?5?$CB?$DN?5?$CI?$CIvoid?5?$CK?$CJ?50?$CJ@ 000240ac     SetupBrowser:IfrParse.obj
 0002:000010d0       ??_C@_0BP@CNIHKIFA@CurrentDefault?5?$CB?$DN?5?$CI?$CIvoid?5?$CK?$CJ?50?$CJ?$AA@ 000240d0     SetupBrowser:IfrParse.obj
 0002:000010f0       ??_C@_0CN@DLOMBKAP@CurrentDefault?9?$DOValue?4Buffer?5?$CB?$DN?5@ 000240f0     SetupBrowser:IfrParse.obj
 0002:00001120       ??_C@_0BO@KCDJJCJE@CurrentOption?5?$CB?$DN?5?$CI?$CIvoid?5?$CK?$CJ?50?$CJ?$AA@ 00024120     SetupBrowser:IfrParse.obj
 0002:00001140       ??_C@_0DC@MCNNHCBO@CurrentOption?9?$DOSuppressExpressio@ 00024140     SetupBrowser:IfrParse.obj
 0002:00001174       ??_C@_0BI@PLMFGBKM@ImageId?5?$CB?$DN?5?$CI?$CIvoid?5?$CK?$CJ?50?$CJ?$AA@ 00024174     SetupBrowser:IfrParse.obj
 0002:0000118c       ??_C@_0BC@FOLOGLBK@MapScopeDepth?5?$DO?50?$AA@ 0002418c     SetupBrowser:IfrParse.obj
 0002:000011a0       ??_C@_0BH@LKMBFCBF@Format?5?$CB?$DN?5?$CI?$CIvoid?5?$CK?$CJ?50?$CJ?$AA@ 000241a0     PeiDxeDebugLibReportStatusCode:DebugLib.obj
 0002:000011b8       ??_C@_0EH@EMGPELNE@c?3?2edk2?2MdeModulePkg?2Library?2Pei@ 000241b8     PeiDxeDebugLibReportStatusCode:DebugLib.obj
 0002:00001200       ??_C@_0CI@HIINONDG@?$CICHAR8?5?$CK?$CJBaseListMarker?5?$DM?$DN?5Forma@ 00024200     PeiDxeDebugLibReportStatusCode:DebugLib.obj
 0002:00001228       ??_C@_01OHGJGJJP@?$FL?$AA@ 00024228     PeiDxeDebugLibReportStatusCode:DebugLib.obj
 0002:0000122c       ??_C@_02PBFOLPKM@?$FN?5?$AA@ 0002422c     PeiDxeDebugLibReportStatusCode:DebugLib.obj
 0002:00001230       ??_C@_0CC@JOEHDGKB@DestinationBuffer?5?$CB?$DN?5?$CI?$CIvoid?5?$CK?$CJ?50@ 00024230     BaseMemoryLibOptDxe:CompareMemWrapper.obj
 0002:00001254       ??_C@_0DP@CPGOBMAI@c?3?2edk2?2MdePkg?2Library?2BaseMemor@ 00024254     BaseMemoryLibOptDxe:CompareMemWrapper.obj
 0002:00001294       ??_C@_0BN@MDMCNBCC@SourceBuffer?5?$CB?$DN?5?$CI?$CIvoid?5?$CK?$CJ?50?$CJ?$AA@ 00024294     BaseMemoryLibOptDxe:CompareMemWrapper.obj
 0002:000012b4       ??_C@_0DI@PHOMHDKH@?$CILength?5?9?51?$CJ?5?$DM?$DN?5?$CI0xFFFFFFFF?5?9?5?$CIU@ 000242b4     BaseMemoryLibOptDxe:CompareMemWrapper.obj
 0002:000012ec       ??_C@_0DD@DCDOHCDJ@?$CILength?5?9?51?$CJ?5?$DM?$DN?5?$CI0xFFFFFFFF?5?9?5?$CIU@ 000242ec     BaseMemoryLibOptDxe:CompareMemWrapper.obj
 0002:00001320       ??_C@_0CL@OBMFBPED@Length?5?$DM?$DN?5?$CI0xFFFFFFFF?5?9?5?$CIUINTN?$CJB@ 00024320     BaseMemoryLibOptDxe:MemLibGuid.obj
 0002:0000134c       ??_C@_0DM@DBGKHDAI@c?3?2edk2?2MdePkg?2Library?2BaseMemor@ 0002434c     BaseMemoryLibOptDxe:CopyMemWrapper.obj
 0002:00001388       ??_C@_0DM@IFMIBCMP@c?3?2edk2?2MdePkg?2Library?2BaseMemor@ 00024388     BaseMemoryLibOptDxe:ZeroMemWrapper.obj
 0002:000013c4       ??_C@_0CD@BDCLIGHD@?$CI?$CIUINTN?$CJ?5String?5?$CG?50x00000001?$CJ?5?$DN?$DN@ 000243c4     BaseLib:SafeString.obj
 0002:000013e8       ??_C@_0CM@GBAFEFEA@c?3?2edk2?2MdePkg?2Library?2BaseLib?2S@ 000243e8     BaseLib:SafeString.obj
 0002:00001414       ??_C@_0CI@LLKACKFD@?$CI?$CIUINTN?$CJ?5Destination?5?$CG?50x0000000@ 00024414     BaseLib:SafeString.obj
 0002:0000143c       ??_C@_0CD@COCJPGE@?$CI?$CIUINTN?$CJ?5Source?5?$CG?50x00000001?$CJ?5?$DN?$DN@ 0002443c     BaseLib:SafeString.obj
 0002:00001460       ??_C@_0BO@ECNIOIHG@?$CIDestination?5?$CB?$DN?5?$CI?$CIvoid?5?$CK?$CJ?50?$CJ?$CJ?$AA@ 00024460     BaseLib:SafeString.obj
 0002:00001480       ??_C@_0BJ@EAEEJIP@?$CISource?5?$CB?$DN?5?$CI?$CIvoid?5?$CK?$CJ?50?$CJ?$CJ?$AA@ 00024480     BaseLib:SafeString.obj
 0002:000014a0       ??_C@_0EA@BBALOHPI@?$CIDestMax?5?$DM?$DN?5?$CI_gPcd_FixedAtBuild_@ 000244a0     BaseLib:SafeString.obj
 0002:000014e0       ??_C@_0P@PMIMLIHM@?$CIDestMax?5?$CB?$DN?50?$CJ?$AA@ 000244e0     BaseLib:SafeString.obj
 0002:000014f0       ??_C@_0BG@EEGIIOKH@?$CIDestMax?5?$DO?5SourceLen?$CJ?$AA@ 000244f0     BaseLib:SafeString.obj
 0002:00001508       ??_C@_0FH@PPBLBDBJ@InternalSafeStringNoStrOverlap?5?$CI@ 00024508     BaseLib:SafeString.obj
 0002:00001560       ??_C@_0DP@PBOJGJC@?$CILength?5?$DM?$DN?5?$CI_gPcd_FixedAtBuild_P@ 00024560     BaseLib:SafeString.obj
 0002:000015a0       ??_C@_0P@BHOOOJPD@?$CICopyLen?5?$CB?$DN?50?$CJ?$AA@ 000245a0     BaseLib:SafeString.obj
 0002:000015b0       ??_C@_0BG@BPGICNPK@?$CICopyLen?5?$DO?5SourceLen?$CJ?$AA@ 000245b0     BaseLib:SafeString.obj
 0002:000015c8       ??_C@_0BJ@MBBOBCLN@?$CIString?5?$CB?$DN?5?$CI?$CIvoid?5?$CK?$CJ?50?$CJ?$CJ?$AA@ 000245c8     BaseLib:SafeString.obj
 0002:000015e4       ??_C@_0BH@JPMEDPAI@?$CIData?5?$CB?$DN?5?$CI?$CIvoid?5?$CK?$CJ?50?$CJ?$CJ?$AA@ 000245e4     BaseLib:SafeString.obj
 0002:00001600       ??_C@_0IC@CFBPEAPC@?$CIStrnLenS?5?$CIString?0?5?$CI_gPcd_FixedA@ 00024600     BaseLib:SafeString.obj
 0002:00001684       ??_C@_0BJ@CNKJJNE@?$CIBuffer?5?$CB?$DN?5?$CI?$CIvoid?5?$CK?$CJ?50?$CJ?$CJ?$AA@ 00024684     BaseLib:SafeString.obj
 0002:000016a0       ??_C@_0FL@CDANCHFO@InternalSafeStringNoAsciiStrOver@ 000246a0     BaseLib:SafeString.obj
 0002:000016fc       ??_C@_0BF@NJNGJMPC@List?5?$CB?$DN?5?$CI?$CIvoid?5?$CK?$CJ?50?$CJ?$AA@ 000246fc     BaseLib:LinkedList.obj
 0002:00001714       ??_C@_0CM@FDGEGMJJ@c?3?2edk2?2MdePkg?2Library?2BaseLib?2L@ 00024714     BaseLib:LinkedList.obj
 0002:00001740       ??_C@_0CC@KDLPLAED@List?9?$DOForwardLink?5?$CB?$DN?5?$CI?$CIvoid?5?$CK?$CJ?50@ 00024740     BaseLib:LinkedList.obj
 0002:00001764       ??_C@_0BP@IJJCCMAK@List?9?$DOBackLink?5?$CB?$DN?5?$CI?$CIvoid?5?$CK?$CJ?50?$CJ?$AA@ 00024764     BaseLib:LinkedList.obj
 0002:00001784       ??_C@_0BJ@NJABNCDK@ListHead?5?$CB?$DN?5?$CI?$CIvoid?5?$CK?$CJ?50?$CJ?$AA@ 00024784     BaseLib:LinkedList.obj
 0002:000017a0       ??_C@_0CG@LGIALJFK@InternalBaseLibIsListValid?5?$CIList@ 000247a0     BaseLib:LinkedList.obj
 0002:000017c8       ??_C@_0CC@JLDICICM@InternalBaseLibIsListValid?5?$CIList@ 000247c8     BaseLib:LinkedList.obj
 0002:000017ec       ??_C@_0BF@NMBJJECB@?$CBIsListEmpty?5?$CIEntry?$CJ?$AA@ 000247ec     BaseLib:LinkedList.obj
 0002:00001804       ??_C@_0CI@BEFOLLLE@c?3?2edk2?2MdePkg?2Library?2BaseLib?2S@ 00024804     BaseLib:String.obj
 0002:0000182c       ??_C@_0DK@EOJCOAME@Length?5?$DM?5_gPcd_FixedAtBuild_PcdM@ 0002482c     BaseLib:String.obj
 0002:00001868       ??_C@_0BL@JAAMOCAJ@StrSize?5?$CIFirstString?$CJ?5?$CB?$DN?50?$AA@ 00024868     BaseLib:String.obj
 0002:00001884       ??_C@_0BM@DALBOILC@StrSize?5?$CISecondString?$CJ?5?$CB?$DN?50?$AA@ 00024884     BaseLib:String.obj
 0002:000018a0       ??_C@_0BG@KBNOLIGE@StrSize?5?$CIString?$CJ?5?$CB?$DN?50?$AA@ 000248a0     BaseLib:String.obj
 0002:000018b8       ??_C@_0BM@NNBLOHJD@StrSize?5?$CISearchString?$CJ?5?$CB?$DN?50?$AA@ 000248b8     BaseLib:String.obj
 0002:000018d4       ??_C@_0DJ@JJHGIFMP@Length?5?$DM?$DN?5_gPcd_FixedAtBuild_Pcd@ 000248d4     BaseLib:String.obj
 0002:00001910       ??_C@_0DI@MDIKFADO@Length?5?$DM?5_gPcd_FixedAtBuild_PcdM@ 00024910     BaseLib:String.obj
 0002:00001948       ??_C@_0BL@IKFBNFIL@AsciiStrSize?5?$CIFirstString?$CJ?$AA@ 00024948     BaseLib:String.obj
 0002:00001964       ??_C@_0BM@EDNOKLLE@AsciiStrSize?5?$CISecondString?$CJ?$AA@ 00024964     BaseLib:String.obj
 0002:00001980       ??_C@_0EJ@KBPJPBK@?$CIOrData?5?$DO?$DO?5?$CIEndBit?5?9?5StartBit?$CJ?$CJ?5@ 00024980     BaseLib:BitField.obj
 0002:000019cc       ??_C@_0CK@HJPGPCFO@c?3?2edk2?2MdePkg?2Library?2BaseLib?2B@ 000249cc     BaseLib:BitField.obj
 0002:000019f8       ??_C@_0EL@FAHAFDHP@?$CIAndData?5?$DO?$DO?5?$CIEndBit?5?9?5StartBit?$CJ?$CJ@ 000249f8     BaseLib:BitField.obj
 0002:00001a44       ??_C@_0BD@JDBPFJOM@StartBit?5?$DM?$DN?5EndBit?$AA@ 00024a44     BaseLib:BitField.obj
 0002:00001a58       ??_C@_0M@NJLBHEFK@EndBit?5?$DM?532?$AA@ 00024a58     BaseLib:BitField.obj
 0002:00001a64       ??_C@_0N@KGHEHMDL@Divisor?5?$CB?$DN?50?$AA@ 00024a64     BaseLib:DivU64x32.obj
 0002:00001a74       ??_C@_0CL@MFKCBPIH@c?3?2edk2?2MdePkg?2Library?2BaseLib?2D@ 00024a74     BaseLib:DivU64x32.obj
 0002:00001aa0       ??_C@_0L@MEMPDLHB@Count?5?$DM?564?$AA@ 00024aa0     BaseLib:RShiftU64.obj
 0002:00001aac       ??_C@_0CL@FKLEIGGF@c?3?2edk2?2MdePkg?2Library?2BaseLib?2R@ 00024aac     BaseLib:RShiftU64.obj
 0002:00001ad8       ??_C@_0DE@PLOFBNJA@c?3?2edk2?2MdePkg?2Library?2BaseLib?2D@ 00024ad8     BaseLib:DivU64x32Remainder.obj
 0002:00001b0c       ??_C@_0CL@LPJNLIIH@c?3?2edk2?2MdePkg?2Library?2BaseLib?2L@ 00024b0c     BaseLib:LShiftU64.obj
 0002:00001b38       ??_C@_0CL@COEFNOFM@c?3?2edk2?2MdePkg?2Library?2BaseLib?2U@ 00024b38     BaseLib:Unaligned.obj
 0002:00001b64       ??_C@_0BN@COECPDCC@gImageHandle?5?$CB?$DN?5?$CI?$CIvoid?5?$CK?$CJ?50?$CJ?$AA@ 00024b64     UefiBootServicesTableLib:UefiBootServicesTableLib.obj
 0002:00001b88       ??_C@_0EL@ODFJBOBF@c?3?2edk2?2MdePkg?2Library?2UefiBootS@ 00024b88     UefiBootServicesTableLib:UefiBootServicesTableLib.obj
 0002:00001bd4       ??_C@_0BE@DGNHAHIL@gST?5?$CB?$DN?5?$CI?$CIvoid?5?$CK?$CJ?50?$CJ?$AA@ 00024bd4     UefiBootServicesTableLib:UefiBootServicesTableLib.obj
 0002:00001be8       ??_C@_0BE@BDFJLGLN@gBS?5?$CB?$DN?5?$CI?$CIvoid?5?$CK?$CJ?50?$CJ?$AA@ 00024be8     UefiBootServicesTableLib:UefiBootServicesTableLib.obj
 0002:00001c00       ??_C@_0EF@NBCCMJKB@c?3?2edk2?2MdePkg?2Library?2UefiMemor@ 00024c00     UefiMemoryAllocationLib:MemoryAllocationLib.obj
 0002:00001c48       ??_C@_0DE@FCAJAHCJ@AllocationSize?5?$DM?$DN?5?$CI0xFFFFFFFF?5?9?5@ 00024c48     UefiMemoryAllocationLib:MemoryAllocationLib.obj
 0002:00001c80       ??_C@_0EP@BCAOHHL@c?3?2edk2?2MdePkg?2Library?2UefiDevic@ 00024c80     UefiDevicePathLibDevicePathProtocol:UefiDevicePathLib.obj
 0002:00001cd0       ??_C@_0DC@CNNBPJA@mDevicePathLibDevicePathUtilitie@ 00024cd0     UefiDevicePathLibDevicePathProtocol:UefiDevicePathLib.obj
 0002:00001d04       ??_C@_0BF@CBLMFKOC@Node?5?$CB?$DN?5?$CI?$CIvoid?5?$CK?$CJ?50?$CJ?$AA@ 00024d04     UefiDevicePathLibDevicePathProtocol:UefiDevicePathLib.obj
 0002:00001d1c       ??_C@_0CI@BGLNHBLM@?$CI?$CI?$CIUINTN?$CJ?5?$CIStartOfBuffer?$CJ?$CJ?5?$CG?50x0@ 00024d1c     BasePrintLib:PrintLib.obj
 0002:00001d44       ??_C@_0CP@FCAPPOBN@c?3?2edk2?2MdePkg?2Library?2BasePrint@ 00024d44     BasePrintLib:PrintLib.obj
 0002:00001d74       ??_C@_0CH@KJLBGOBB@?$CI?$CI?$CIUINTN?$CJ?5?$CIFormatString?$CJ?$CJ?5?$CG?50x01@ 00024d74     BasePrintLib:PrintLib.obj
 0002:00001d9c       ??_C@_0CB@LDBAOPMG@?$CI?$CI?$CIUINTN?$CJ?5?$CIBuffer?$CJ?$CJ?5?$CG?50x01?$CJ?5?$DN?$DN?50@ 00024d9c     BasePrintLib:PrintLib.obj
 0002:00001dc0       ??_C@_07PBILKAFL@Success?$AA@ 00024dc0     BasePrintLib:PrintLibInternal.obj
 0002:00001dc8       ??_C@_0BG@CFJMNNJK@Warning?5Unknown?5Glyph?$AA@ 00024dc8     BasePrintLib:PrintLibInternal.obj
 0002:00001de0       ??_C@_0BH@GKKCJEPJ@Warning?5Delete?5Failure?$AA@ 00024de0     BasePrintLib:PrintLibInternal.obj
 0002:00001df8       ??_C@_0BG@ECIJMOED@Warning?5Write?5Failure?$AA@ 00024df8     BasePrintLib:PrintLibInternal.obj
 0002:00001e10       ??_C@_0BJ@ODIPDGHB@Warning?5Buffer?5Too?5Small?$AA@ 00024e10     BasePrintLib:PrintLibInternal.obj
 0002:00001e2c       ??_C@_0BD@IFJNJCCO@Warning?5Stale?5Data?$AA@ 00024e2c     BasePrintLib:PrintLibInternal.obj
 0002:00001e40       ??_C@_0L@PLPBEPPC@Load?5Error?$AA@ 00024e40     BasePrintLib:PrintLibInternal.obj
 0002:00001e4c       ??_C@_0BC@HOFHKGJN@Invalid?5Parameter?$AA@ 00024e4c     BasePrintLib:PrintLibInternal.obj
 0002:00001e60       ??_C@_0M@BEECMOIL@Unsupported?$AA@ 00024e60     BasePrintLib:PrintLibInternal.obj
 0002:00001e6c       ??_C@_0BA@FLNMPMCF@Bad?5Buffer?5Size?$AA@ 00024e6c     BasePrintLib:PrintLibInternal.obj
 0002:00001e7c       ??_C@_0BB@EGELJFOB@Buffer?5Too?5Small?$AA@ 00024e7c     BasePrintLib:PrintLibInternal.obj
 0002:00001e90       ??_C@_09NKFGCIPN@Not?5Ready?$AA@ 00024e90     BasePrintLib:PrintLibInternal.obj
 0002:00001e9c       ??_C@_0N@HHEABDHO@Device?5Error?$AA@ 00024e9c     BasePrintLib:PrintLibInternal.obj
 0002:00001eac       ??_C@_0BA@LNEDDFNB@Write?5Protected?$AA@ 00024eac     BasePrintLib:PrintLibInternal.obj
 0002:00001ebc       ??_C@_0BB@GOILNEAA@Out?5of?5Resources?$AA@ 00024ebc     BasePrintLib:PrintLibInternal.obj
 0002:00001ed0       ??_C@_0P@EIOJGIF@Volume?5Corrupt?$AA@ 00024ed0     BasePrintLib:PrintLibInternal.obj
 0002:00001ee0       ??_C@_0M@HDLEPOFA@Volume?5Full?$AA@ 00024ee0     BasePrintLib:PrintLibInternal.obj
 0002:00001eec       ??_C@_08KEGAJDNN@No?5Media?$AA@ 00024eec     BasePrintLib:PrintLibInternal.obj
 0002:00001ef8       ??_C@_0O@JNCJKCCD@Media?5changed?$AA@ 00024ef8     BasePrintLib:PrintLibInternal.obj
 0002:00001f08       ??_C@_09CFCBFJND@Not?5Found?$AA@ 00024f08     BasePrintLib:PrintLibInternal.obj
 0002:00001f14       ??_C@_0O@NFHOBIDO@Access?5Denied?$AA@ 00024f14     BasePrintLib:PrintLibInternal.obj
 0002:00001f24       ??_C@_0M@ENKCBFEP@No?5Response?$AA@ 00024f24     BasePrintLib:PrintLibInternal.obj
 0002:00001f30       ??_C@_0L@IFPBNFC@No?5mapping?$AA@ 00024f30     BasePrintLib:PrintLibInternal.obj
 0002:00001f3c       ??_C@_08PAFJCNGP@Time?5out?$AA@ 00024f3c     BasePrintLib:PrintLibInternal.obj
 0002:00001f48       ??_C@_0M@DCJFAFHJ@Not?5started?$AA@ 00024f48     BasePrintLib:PrintLibInternal.obj
 0002:00001f54       ??_C@_0BA@IGIBFFPH@Already?5started?$AA@ 00024f54     BasePrintLib:PrintLibInternal.obj
 0002:00001f64       ??_C@_07LCKDCBKK@Aborted?$AA@ 00024f64     BasePrintLib:PrintLibInternal.obj
 0002:00001f6c       ??_C@_0L@LKIFCMNO@ICMP?5Error?$AA@ 00024f6c     BasePrintLib:PrintLibInternal.obj
 0002:00001f78       ??_C@_0L@DJKNJKHM@TFTP?5Error?$AA@ 00024f78     BasePrintLib:PrintLibInternal.obj
 0002:00001f84       ??_C@_0P@NCJHBCLM@Protocol?5Error?$AA@ 00024f84     BasePrintLib:PrintLibInternal.obj
 0002:00001f94       ??_C@_0BF@EHOBGFMI@Incompatible?5Version?$AA@ 00024f94     BasePrintLib:PrintLibInternal.obj
 0002:00001fac       ??_C@_0BD@KHMPCIOG@Security?5Violation?$AA@ 00024fac     BasePrintLib:PrintLibInternal.obj
 0002:00001fc0       ??_C@_09BOMAGJEG@CRC?5Error?$AA@ 00024fc0     BasePrintLib:PrintLibInternal.obj
 0002:00001fcc       ??_C@_0N@JEJDHPO@End?5of?5Media?$AA@ 00024fcc     BasePrintLib:PrintLibInternal.obj
 0002:00001fdc       ??_C@_0O@NMJOLAMF@Reserved?5?$CI29?$CJ?$AA@ 00024fdc     BasePrintLib:PrintLibInternal.obj
 0002:00001fec       ??_C@_0O@GLPDOMCP@Reserved?5?$CI30?$CJ?$AA@ 00024fec     BasePrintLib:PrintLibInternal.obj
 0002:00001ffc       ??_C@_0M@FKGOBENP@End?5of?5File?$AA@ 00024ffc     BasePrintLib:PrintLibInternal.obj
 0002:00002008       ??_C@_0BB@KFJAMCOC@Invalid?5Language?$AA@ 00025008     BasePrintLib:PrintLibInternal.obj
 0002:0000201c       ??_C@_0BB@MFGDFIJM@Compromised?5Data?$AA@ 0002501c     BasePrintLib:PrintLibInternal.obj
 0002:00002030       ??_C@_0DH@DJIHJFON@c?3?2edk2?2MdePkg?2Library?2BasePrint@ 00025030     BasePrintLib:PrintLibInternal.obj
 0002:00002068       ??_C@_0EB@HDGIDCIO@?$CIBufferSize?5?$DM?$DN?5?$CI_gPcd_FixedAtBui@ 00025068     BasePrintLib:PrintLibInternal.obj
 0002:000020b0       ??_C@_0FJ@HAEMOBLP@?$CIBufferSize?5?$DM?$DN?5?$CI_gPcd_FixedAtBui@ 000250b0     BasePrintLib:PrintLibInternal.obj
 0002:0000210c       ??_C@_0CO@OJNGHNJG@?$CI?$CIFlags?5?$CG?5?$HO?$CI0x01?5?$HM?50x08?5?$HM?50x20?5?$HM@ 0002510c     BasePrintLib:PrintLibInternal.obj
 0002:0000213c       ??_C@_0DB@HIDPIAGP@?$CI?$CI?$CIFlags?5?$CG?50x08?$CJ?5?$DN?$DN?50?$CJ?5?$HM?$HM?5?$CI?$CIFlag@ 0002513c     BasePrintLib:PrintLibInternal.obj
 0002:00002170       ??_C@_0N@PNKFBKME@?$CIWidth?5?$DM?538?$CJ?$AA@ 00025170     BasePrintLib:PrintLibInternal.obj
 0002:00002180       ??_C@_0CI@HPJOGFNE@?$CIBufferSize?5?$DO?$DN?5?$CIWidth?5?$CL?51?$CJ?5?$CK?5Inc@ 00025180     BasePrintLib:PrintLibInternal.obj
 0002:000021a8       ??_C@_0BJ@PPAKKDJG@?$CIFormat?5?$CB?$DN?5?$CI?$CIvoid?5?$CK?$CJ?50?$CJ?$CJ?$AA@ 000251a8     BasePrintLib:PrintLibInternal.obj
 0002:000021c8       ??_C@_0ED@LPDDCECB@?$CIBufferSize?5?$DM?$DN?5?$CI_gPcd_FixedAtBui@ 000251c8     BasePrintLib:PrintLibInternal.obj
 0002:00002210       ??_C@_0IM@BFJJFLGB@?$CIStrnLenS?5?$CI?$CICHAR16?5?$CK?$CJFormat?0?5?$CI_g@ 00025210     BasePrintLib:PrintLibInternal.obj
 0002:000022a0       ??_C@_0ID@PLGJGION@?$CIAsciiStrnLenS?5?$CIFormat?0?5?$CI_gPcd_F@ 000252a0     BasePrintLib:PrintLibInternal.obj
 0002:00002324       ??_C@_0O@MLOLIMFM@?$DMnull?5string?$DO?$AA@ 00025324     BasePrintLib:PrintLibInternal.obj
 0002:00002334       ??_C@_0M@BJJDNPHK@?$DMnull?5guid?$DO?$AA@ 00025334     BasePrintLib:PrintLibInternal.obj
 0002:00002340       ??_C@_0DB@PMLHLBMO@?$CF08x?9?$CF04x?9?$CF04x?9?$CF02x?$CF02x?9?$CF02x?$CF02x@ 00025340     BasePrintLib:PrintLibInternal.obj
 0002:00002374       ??_C@_0M@LHGBCIKM@?$DMnull?5time?$DO?$AA@ 00025374     BasePrintLib:PrintLibInternal.obj
 0002:00002380       ??_C@_0BK@FCPKCIDD@?$CF02d?1?$CF02d?1?$CF04d?5?5?$CF02d?3?$CF02d?$AA@ 00025380     BasePrintLib:PrintLibInternal.obj
 0002:0000239c       ??_C@_04JIMNDDED@?$CF08X?$AA@ 0002539c     BasePrintLib:PrintLibInternal.obj
 0002:000023a4       ??_C@_02PCIJFNDE@?$AN?6?$AA@ 000253a4     BasePrintLib:PrintLibInternal.obj
 0002:000023a8       ??_C@_01LIIJDEN@?$AN?$AA@  000253a8     BasePrintLib:PrintLibInternal.obj
 0002:000023b0       _mHexStr                   000253b0     BasePrintLib:PrintLibInternal.obj
 0002:000023c0       _mStatusString             000253c0     BasePrintLib:PrintLibInternal.obj
 0002:0000245c       ??_C@_0BE@OBDFIHND@gRT?5?$CB?$DN?5?$CI?$CIvoid?5?$CK?$CJ?50?$CJ?$AA@ 0002545c     UefiRuntimeServicesTableLib:UefiRuntimeServicesTableLib.obj
 0002:00002470       ??_C@_0FB@NIMBGODD@c?3?2edk2?2MdePkg?2Library?2UefiRunti@ 00025470     UefiRuntimeServicesTableLib:UefiRuntimeServicesTableLib.obj
 0002:000024c4       ??_C@_0CJ@PFEGNAHL@c?3?2edk2?2MdePkg?2Library?2UefiLib?2U@ 000254c4     UefiLib:UefiLib.obj
 0002:000024f0       ??_C@_0BP@DEIEJICI@NotifyFunction?5?$CB?$DN?5?$CI?$CIvoid?5?$CK?$CJ?50?$CJ?$AA@ 000254f0     UefiLib:UefiLib.obj
 0002:00002510       ??_C@_0BN@OMCJCPAI@Registration?5?$CB?$DN?5?$CI?$CIvoid?5?$CK?$CJ?50?$CJ?$AA@ 00025510     UefiLib:UefiLib.obj
 0002:00002530       ??_C@_0EG@GOBFPEEP@Name?5?$CB?$DN?5?$CI?$CIvoid?5?$CK?$CJ?50?$CJ?5?$CG?$CG?5Guid?5?$CB?$DN?5@ 00025530     UefiLib:UefiLib.obj
 0002:00002578       ??_C@_0BH@FMEOEIBC@?$CKValue?5?$CB?$DN?5?$CI?$CIvoid?5?$CK?$CJ?50?$CJ?$AA@ 00025578     UefiLib:UefiLib.obj
 0002:00002590       ??_C@_0CD@OLFKAJF@SupportedLanguages?5?$CB?$DN?5?$CI?$CIvoid?5?$CK?$CJ?5@ 00025590     UefiLib:UefiLib.obj
 0002:000025b4       ??_C@_0CK@GGFNJPAK@c?3?2edk2?2MdePkg?2Library?2DxeHobLib@ 000255b4     DxeHobLib:HobLib.obj
 0002:000025e0       ??_C@_0BJ@OBFMLLDO@mHobList?5?$CB?$DN?5?$CI?$CIvoid?5?$CK?$CJ?50?$CJ?$AA@ 000255e0     DxeHobLib:HobLib.obj
 0002:000025fc       ??_C@_0BJ@NOLLDKJB@HobStart?5?$CB?$DN?5?$CI?$CIvoid?5?$CK?$CJ?50?$CJ?$AA@ 000255fc     DxeHobLib:HobLib.obj
 0002:00002618       ??_C@_1BC@DPOIABCP@?$AAE?$AAF?$AAI?$AAD?$AAe?$AAb?$AAu?$AAg?$AA?$AA@ 00025618     DxeDebugPrintErrorLevelLib:DxeDebugPrintErrorLevelLib.obj
 0002:00002630       ??_C@_0EF@LIFNJAGA@c?3?2edk2?2MdeModulePkg?2Library?2Uef@ 00025630     UefiHiiServicesLib:UefiHiiServicesLib.obj
 0002:00002678       ??_C@_0DB@CPEBINLM@c?3?2edk2?2MdeModulePkg?2Library?2Uef@ 00025678     UefiHiiLib:HiiLib.obj
 0002:000026ac       ??_C@_1M@DPLGJLCD@?$AAG?$AAU?$AAI?$AAD?$AA?$DN?$AA?$AA@ 000256ac     UefiHiiLib:HiiLib.obj
 0002:000026b8       ??_C@_1O@FMIENBLJ@?$AA?$CG?$AAN?$AAA?$AAM?$AAE?$AA?$DN?$AA?$AA@ 000256b8     UefiHiiLib:HiiLib.obj
 0002:000026c8       ??_C@_1O@GGMHNGIF@?$AA?$CG?$AAP?$AAA?$AAT?$AAH?$AA?$DN?$AA?$AA@ 000256c8     UefiHiiLib:HiiLib.obj
 0002:000026d8       ??_C@_0DE@IAJEMHJO@c?3?2edk2?2MdeModulePkg?2Library?2Uef@ 000256d8     UefiHiiLib:HiiString.obj
 0002:0000270c       ??_C@_06PLDEFKP@x?9UEFI?$AA@ 0002570c     UefiHiiLib:HiiString.obj
 0002:00002714       ??_C@_1BK@GGGENMOA@?$AAP?$AAl?$AAa?$AAt?$AAf?$AAo?$AAr?$AAm?$AAL?$AAa?$AAn?$AAg?$AA?$AA@ 00025714     UefiHiiLib:HiiString.obj
 0002:0000272e       ??_C@_00CNPNBAHC@?$AA@     0002572e     UefiHiiLib:HiiString.obj
 0002:00002730       ??_C@_0DG@PGDOLEKG@c?3?2edk2?2MdeModulePkg?2Library?2Uef@ 00025730     UefiHiiLib:HiiLanguage.obj
 0002:00002768       ??_C@_0EK@NEAGPEKB@c?3?2edk2?2MdeModulePkg?2Library?2Dxe@ 00025768     DxeReportStatusCodeLib:ReportStatusCodeLib.obj
 0002:000027b4       ??_C@_0DN@HHIHPHHB@?$CB?$CI?$CIExtendedData?5?$DN?$DN?5?$CI?$CIvoid?5?$CK?$CJ?50?$CJ?$CJ@ 000257b4     DxeReportStatusCodeLib:ReportStatusCodeLib.obj
 0002:000027f4       ??_C@_0DN@BBBIFINB@?$CB?$CI?$CIExtendedData?5?$CB?$DN?5?$CI?$CIvoid?5?$CK?$CJ?50?$CJ?$CJ@ 000257f4     DxeReportStatusCodeLib:ReportStatusCodeLib.obj
 0002:00002834       ??_C@_0DI@MIEIGAOH@Status?5code?5extended?5data?5is?5too@ 00025834     DxeReportStatusCodeLib:ReportStatusCodeLib.obj
 0003:00000000       _gEfiHiiStandardFormGuid   00026000     SetupBrowser:AutoGen.obj
 0003:00000010       _gEdkiiFormBrowserExProtocolGuid 00026010     SetupBrowser:AutoGen.obj
 0003:00000020       _gEfiHiiFontProtocolGuid   00026020     SetupBrowser:AutoGen.obj
 0003:00000030       _gEfiDebugMaskProtocolGuid 00026030     SetupBrowser:AutoGen.obj
 0003:00000040       _gEfiHiiDatabaseProtocolGuid 00026040     SetupBrowser:AutoGen.obj
 0003:00000050       _gEfiDevicePathFromTextProtocolGuid 00026050     SetupBrowser:AutoGen.obj
 0003:00000060       _gEfiHiiConfigRoutingProtocolGuid 00026060     SetupBrowser:AutoGen.obj
 0003:00000070       _gEfiFormBrowser2ProtocolGuid 00026070     SetupBrowser:AutoGen.obj
 0003:00000080       _gEfiHobListGuid           00026080     SetupBrowser:AutoGen.obj
 0003:00000090       _gEfiHiiImageProtocolGuid  00026090     SetupBrowser:AutoGen.obj
 0003:000000a0       _gEfiHiiPlatformSetupFormsetGuid 000260a0     SetupBrowser:AutoGen.obj
 0003:000000b0       _gEfiDevicePathProtocolGuid 000260b0     SetupBrowser:AutoGen.obj
 0003:000000c0       _gEfiDevicePathUtilitiesProtocolGuid 000260c0     SetupBrowser:AutoGen.obj
 0003:000000d0       _gEfiHiiStringProtocolGuid 000260d0     SetupBrowser:AutoGen.obj
 0003:000000e0       _gEfiUserManagerProtocolGuid 000260e0     SetupBrowser:AutoGen.obj
 0003:000000f0       _gEfiGenericVariableGuid   000260f0     SetupBrowser:AutoGen.obj
 0003:00000100       _gEfiCallerIdGuid          00026100     SetupBrowser:AutoGen.obj
 0003:00000110       _gEfiUnicodeCollation2ProtocolGuid 00026110     SetupBrowser:AutoGen.obj
 0003:00000120       _gEdkiiFormDisplayEngineProtocolGuid 00026120     SetupBrowser:AutoGen.obj
 0003:00000130       _gEfiStatusCodeDataTypeDebugGuid 00026130     SetupBrowser:AutoGen.obj
 0003:00000140       _gEdkiiFormBrowserEx2ProtocolGuid 00026140     SetupBrowser:AutoGen.obj
 0003:00000150       _gEfiStatusCodeSpecificDataGuid 00026150     SetupBrowser:AutoGen.obj
 0003:00000160       _gEfiRegularExpressionProtocolGuid 00026160     SetupBrowser:AutoGen.obj
 0003:00000170       _gEfiHiiConfigAccessProtocolGuid 00026170     SetupBrowser:AutoGen.obj
 0003:00000180       _gEfiGlobalVariableGuid    00026180     SetupBrowser:AutoGen.obj
 0003:00000190       _gEfiStatusCodeRuntimeProtocolGuid 00026190     SetupBrowser:AutoGen.obj
 0003:000001a0       _gEdkiiIfrBitVarstoreGuid  000261a0     SetupBrowser:AutoGen.obj
 0003:000001b0       _gBrowserSaveFailFormSetList 000261b0     SetupBrowser:Setup.obj
 0003:000001b8       _gBrowserHotKeyList        000261b8     SetupBrowser:Setup.obj
 0003:000001c0       _mBrowserScopeFirstSet     000261c0     SetupBrowser:Setup.obj
 0003:000001c4       _gBrowserContextList       000261c4     SetupBrowser:Setup.obj
 0003:000001cc       _gBrowserSettingScope      000261cc     SetupBrowser:Setup.obj
 0003:000001d0       _mPrivateData              000261d0     SetupBrowser:Setup.obj
 0003:0000021c       _gBrowserFormSetList       0002621c     SetupBrowser:Setup.obj
 0003:00000224       _gBrowserStorageList       00026224     SetupBrowser:Setup.obj
 0003:0000022c       _mRefreshEventList         0002622c     SetupBrowser:Presentation.obj
 0003:00000238       _mDebugMaskProtocol        00026238     DxeDebugPrintErrorLevelLib:DxeDebugPrintErrorLevelLib.obj
 0003:00000260       _gZeroGuid                 00026260     SetupBrowser:AutoGen.obj
 0003:00000270       _mSystemSubmit             00026270     SetupBrowser:Setup.obj
 0003:00000274       _ExitHandlerFunction       00026274     SetupBrowser:Setup.obj
 0003:00000278       _gResetRequiredSystemLevel 00026278     SetupBrowser:Setup.obj
 0003:0000027c       _gBrowserContextCount      0002627c     SetupBrowser:Setup.obj
 0003:00000280       _mFinishRetrieveCall       00026280     SetupBrowser:Presentation.obj
 0003:00000284       _mCurrentFormSetGuid       00026284     SetupBrowser:Presentation.obj
 0003:00000294       _mCurrentFormId            00026294     SetupBrowser:Presentation.obj
 0003:00000298       _mCurrentHiiHandle         00026298     SetupBrowser:Presentation.obj
 0003:0000029c       _mValueChangedEvent        0002629c     SetupBrowser:Presentation.obj
 0003:000002a0       _mOptionExpressionStack    000262a0     SetupBrowser:Expression.obj
 0003:000002a4       _mMapExpressionListStack   000262a4     SetupBrowser:Expression.obj
 0003:000002a8       _mStatementExpressionPointer 000262a8     SetupBrowser:Expression.obj
 0003:000002ac       _mFormExpressionPointer    000262ac     SetupBrowser:Expression.obj
 0003:000002b0       _mUserManager              000262b0     SetupBrowser:Expression.obj
 0003:000002b4       _mExpressionEvaluationStackPointer 000262b4     SetupBrowser:Expression.obj
 0003:000002b8       _mOpCodeScopeStackPointer  000262b8     SetupBrowser:Expression.obj
 0003:000002bc       _mExpressionEvaluationStackOffset 000262bc     SetupBrowser:Expression.obj
 0003:000002c0       _mFormExpressionStack      000262c0     SetupBrowser:Expression.obj
 0003:000002c4       _mCurrentExpressionStack   000262c4     SetupBrowser:Expression.obj
 0003:000002c8       _mExpressionEvaluationStackEnd 000262c8     SetupBrowser:Expression.obj
 0003:000002cc       _mOptionExpressionEnd      000262cc     SetupBrowser:Expression.obj
 0003:000002d0       _mMapExpressionListPointer 000262d0     SetupBrowser:Expression.obj
 0003:000002d4       _mExpressionEvaluationStack 000262d4     SetupBrowser:Expression.obj
 0003:000002d8       _mCurrentExpressionPointer 000262d8     SetupBrowser:Expression.obj
 0003:000002dc       _mMapExpressionListEnd     000262dc     SetupBrowser:Expression.obj
 0003:000002e0       _mOpCodeScopeStackEnd      000262e0     SetupBrowser:Expression.obj
 0003:000002e4       _mCurrentExpressionEnd     000262e4     SetupBrowser:Expression.obj
 0003:000002e8       _mStatementExpressionStack 000262e8     SetupBrowser:Expression.obj
 0003:000002ec       _mOpCodeScopeStack         000262ec     SetupBrowser:Expression.obj
 0003:000002f0       _mStatementExpressionEnd   000262f0     SetupBrowser:Expression.obj
 0003:000002f4       _mFormExpressionEnd        000262f4     SetupBrowser:Expression.obj
 0003:000002f8       _mOptionExpressionPointer  000262f8     SetupBrowser:Expression.obj
 0003:000002fc       _mUnicodeCollation         000262fc     SetupBrowser:Expression.obj
 0003:00000300       _gST                       00026300     UefiBootServicesTableLib:UefiBootServicesTableLib.obj
 0003:00000304       _gBS                       00026304     UefiBootServicesTableLib:UefiBootServicesTableLib.obj
 0003:00000308       _gImageHandle              00026308     UefiBootServicesTableLib:UefiBootServicesTableLib.obj
 0003:0000030c       _mDevicePathLibDevicePathUtilities 0002630c     UefiDevicePathLibDevicePathProtocol:UefiDevicePathLib.obj
 0003:00000310       _gRT                       00026310     UefiRuntimeServicesTableLib:UefiRuntimeServicesTableLib.obj
 0003:00000314       _mHobList                  00026314     DxeHobLib:HobLib.obj
 0003:00000318       _mDebugPrintErrorLevel     00026318     DxeDebugPrintErrorLevelLib:DxeDebugPrintErrorLevelLib.obj
 0003:0000031c       _mGlobalErrorLevelInitialized 0002631c     DxeDebugPrintErrorLevelLib:DxeDebugPrintErrorLevelLib.obj
 0003:00000320       _mSystemTable              00026320     DxeDebugPrintErrorLevelLib:DxeDebugPrintErrorLevelLib.obj
 0003:00000324       _gHiiImage                 00026324     UefiHiiServicesLib:UefiHiiServicesLib.obj
 0003:00000328       _gHiiFont                  00026328     UefiHiiServicesLib:UefiHiiServicesLib.obj
 0003:0000032c       _gHiiString                0002632c     UefiHiiServicesLib:UefiHiiServicesLib.obj
 0003:00000330       _gHiiDatabase              00026330     UefiHiiServicesLib:UefiHiiServicesLib.obj
 0003:00000334       _gHiiConfigRouting         00026334     UefiHiiServicesLib:UefiHiiServicesLib.obj
 0003:00000338       _mReportStatusCodeLibStatusCodeProtocol 00026338     DxeReportStatusCodeLib:ReportStatusCodeLib.obj
 0003:0000033c       _mUsedQuestionId           0002633c     <common>
 0003:0000033e       _mExpressionOpCodeIndex    0002633e     <common>
 0003:00000340       _mStatementIndex           00026340     <common>
 0003:00000342       _mHiiPackageListUpdated    00026342     <common>
 0003:00000360       _gDisplayFormData          00026360     <common>
 0003:000003b8       _gCurrentSelection         000263b8     <common>
 0003:000003bc       _mCurFakeQestId            000263bc     <common>
 0003:000003be       _gFlagReconnect            000263be     <common>
 0003:000003c0       _mHiiConfigRouting         000263c0     <common>
 0003:000003c4       _gResetRequiredFormLevel   000263c4     <common>
 0003:000003c8       _gEmptyString              000263c8     <common>
 0003:000003cc       _mFormDisplay              000263cc     <common>
 0003:000003d0       _mHiiDatabase              000263d0     <common>
 0003:000003d4       _gCallbackReconnect        000263d4     <common>
 0003:000003d5       _gExitRequired             000263d5     <common>
 0003:000003d8       _mPathFromText             000263d8     <common>
 0003:000003dc       _mSystemLevelFormSet       000263dc     <common>

 entry point at        0001:0000011f

 Static symbols

 0001:0000003a       _InternalMemCopyMem.0      0001103a     BaseMemoryLibOptDxe:CopyMem.obj
 0001:0000004c       _InternalMemCopyMem.1      0001104c     BaseMemoryLibOptDxe:CopyMem.obj
 0001:0000005e       _InternalMemCopyMem.2      0001105e     BaseMemoryLibOptDxe:CopyMem.obj
 0001:0000007b       @CopyBackward              0001107b     BaseMemoryLibOptDxe:CopyMem.obj
 0001:00000082       @CopyBytes                 00011082     BaseMemoryLibOptDxe:CopyMem.obj
 0001:00000111       _InternalMemSetMem64.0     00011111     BaseMemoryLibOptDxe:SetMem64.obj
 0001:000080a5       $LN408                     000190a5     * CIL library *:* CIL module *
 0001:0000aff8       $LN549                     0001bff8     * CIL library *:* CIL module *
 0001:0000b080       $LN467                     0001c080     * CIL library *:* CIL module *
 0001:0000b0d4       $LN550                     0001c0d4     * CIL library *:* CIL module *
 0001:0000dfcc       $LN848                     0001efcc     * CIL library *:* CIL module *
 0004:00000000       .edata                     00027000     SetupBrowser.exp
 0004:00000028       rgpv                       00027028     SetupBrowser.exp
 0004:0000002c       rgszName                   0002702c     SetupBrowser.exp
 0004:00000030       rgwOrd                     00027030     SetupBrowser.exp
 0004:00000032       szName                     00027032     SetupBrowser.exp
 0004:00000043       $N00001                    00027043     SetupBrowser.exp
